ARM GAS  C:\Users\turan\AppData\Local\Temp\ccb7TZhX.s 			page 1


   1              		.syntax unified
   2              		.cpu cortex-m0
   3              		.fpu softvfp
   4              		.eabi_attribute 20, 1
   5              		.eabi_attribute 21, 1
   6              		.eabi_attribute 23, 3
   7              		.eabi_attribute 24, 1
   8              		.eabi_attribute 25, 1
   9              		.eabi_attribute 26, 1
  10              		.eabi_attribute 30, 1
  11              		.eabi_attribute 34, 0
  12              		.eabi_attribute 18, 4
  13              		.thumb
  14              		.syntax unified
  15              		.file	"cyCapsense_1_Control.c"
  16              		.text
  17              	.Ltext0:
  18              		.cfi_sections	.debug_frame
  19              		.section	.text.cyCapsense_1_Initialize,"ax",%progbits
  20              		.align	2
  21              		.global	cyCapsense_1_Initialize
  22              		.code	16
  23              		.thumb_func
  24              		.type	cyCapsense_1_Initialize, %function
  25              	cyCapsense_1_Initialize:
  26              	.LFB3:
  27              		.file 1 "Generated_Source\\PSoC4\\cyCapsense_1_Control.c"
   1:Generated_Source\PSoC4/cyCapsense_1_Control.c **** /***************************************************************************//**
   2:Generated_Source\PSoC4/cyCapsense_1_Control.c **** * \file cyCapsense_1_Control.c
   3:Generated_Source\PSoC4/cyCapsense_1_Control.c **** * \version 6.0
   4:Generated_Source\PSoC4/cyCapsense_1_Control.c **** *
   5:Generated_Source\PSoC4/cyCapsense_1_Control.c **** * \brief
   6:Generated_Source\PSoC4/cyCapsense_1_Control.c **** *   This file provides the source code to the Control module API of the
   7:Generated_Source\PSoC4/cyCapsense_1_Control.c **** *   Component.
   8:Generated_Source\PSoC4/cyCapsense_1_Control.c **** *
   9:Generated_Source\PSoC4/cyCapsense_1_Control.c **** * \see cyCapsense_1 v6.0 Datasheet
  10:Generated_Source\PSoC4/cyCapsense_1_Control.c **** *
  11:Generated_Source\PSoC4/cyCapsense_1_Control.c **** *//*****************************************************************************
  12:Generated_Source\PSoC4/cyCapsense_1_Control.c **** * Copyright (2016-2018), Cypress Semiconductor Corporation.
  13:Generated_Source\PSoC4/cyCapsense_1_Control.c **** ********************************************************************************
  14:Generated_Source\PSoC4/cyCapsense_1_Control.c **** * This software is owned by Cypress Semiconductor Corporation (Cypress) and is
  15:Generated_Source\PSoC4/cyCapsense_1_Control.c **** * protected by and subject to worldwide patent protection (United States and
  16:Generated_Source\PSoC4/cyCapsense_1_Control.c **** * foreign), United States copyright laws and international treaty provisions.
  17:Generated_Source\PSoC4/cyCapsense_1_Control.c **** * Cypress hereby grants to licensee a personal, non-exclusive, non-transferable
  18:Generated_Source\PSoC4/cyCapsense_1_Control.c **** * license to copy, use, modify, create derivative works of, and compile the
  19:Generated_Source\PSoC4/cyCapsense_1_Control.c **** * Cypress Source Code and derivative works for the sole purpose of creating
  20:Generated_Source\PSoC4/cyCapsense_1_Control.c **** * custom software in support of licensee product to be used only in conjunction
  21:Generated_Source\PSoC4/cyCapsense_1_Control.c **** * with a Cypress integrated circuit as specified in the applicable agreement.
  22:Generated_Source\PSoC4/cyCapsense_1_Control.c **** * Any reproduction, modification, translation, compilation, or representation of
  23:Generated_Source\PSoC4/cyCapsense_1_Control.c **** * this software except as specified above is prohibited without the express
  24:Generated_Source\PSoC4/cyCapsense_1_Control.c **** * written permission of Cypress.
  25:Generated_Source\PSoC4/cyCapsense_1_Control.c **** *
  26:Generated_Source\PSoC4/cyCapsense_1_Control.c **** * Disclaimer: CYPRESS MAKES NO WARRANTY OF ANY KIND, EXPRESS OR IMPLIED, WITH
  27:Generated_Source\PSoC4/cyCapsense_1_Control.c **** * REGARD TO THIS MATERIAL, INCLUDING, BUT NOT LIMITED TO, THE IMPLIED
  28:Generated_Source\PSoC4/cyCapsense_1_Control.c **** * WARRANTIES OF MERCHANTABILITY AND FITNESS FOR A PARTICULAR PURPOSE.
  29:Generated_Source\PSoC4/cyCapsense_1_Control.c **** * Cypress reserves the right to make changes without further notice to the
  30:Generated_Source\PSoC4/cyCapsense_1_Control.c **** * materials described herein. Cypress does not assume any liability arising out
ARM GAS  C:\Users\turan\AppData\Local\Temp\ccb7TZhX.s 			page 2


  31:Generated_Source\PSoC4/cyCapsense_1_Control.c **** * of the application or use of any product or circuit described herein. Cypress
  32:Generated_Source\PSoC4/cyCapsense_1_Control.c **** * does not authorize its products for use as critical components in life-support
  33:Generated_Source\PSoC4/cyCapsense_1_Control.c **** * systems where a malfunction or failure may reasonably be expected to result in
  34:Generated_Source\PSoC4/cyCapsense_1_Control.c **** * significant injury to the user. The inclusion of Cypress' product in a life-
  35:Generated_Source\PSoC4/cyCapsense_1_Control.c **** * support systems application implies that the manufacturer assumes all risk of
  36:Generated_Source\PSoC4/cyCapsense_1_Control.c **** * such use and in doing so indemnifies Cypress against all charges. Use may be
  37:Generated_Source\PSoC4/cyCapsense_1_Control.c **** * limited by and subject to the applicable Cypress software license agreement.
  38:Generated_Source\PSoC4/cyCapsense_1_Control.c **** *******************************************************************************/
  39:Generated_Source\PSoC4/cyCapsense_1_Control.c **** 
  40:Generated_Source\PSoC4/cyCapsense_1_Control.c **** #include "cytypes.h"
  41:Generated_Source\PSoC4/cyCapsense_1_Control.c **** #include "CyLib.h"
  42:Generated_Source\PSoC4/cyCapsense_1_Control.c **** #include "cyPm.h"
  43:Generated_Source\PSoC4/cyCapsense_1_Control.c **** #include "cyCapsense_1_Configuration.h"
  44:Generated_Source\PSoC4/cyCapsense_1_Control.c **** #include "cyCapsense_1_Structure.h"
  45:Generated_Source\PSoC4/cyCapsense_1_Control.c **** #include "cyCapsense_1_Control.h"
  46:Generated_Source\PSoC4/cyCapsense_1_Control.c **** #include "cyCapsense_1_Processing.h"
  47:Generated_Source\PSoC4/cyCapsense_1_Control.c **** #include "cyCapsense_1_Filter.h"
  48:Generated_Source\PSoC4/cyCapsense_1_Control.c **** #include "cyCapsense_1_Sensing.h"
  49:Generated_Source\PSoC4/cyCapsense_1_Control.c **** #include "cyCapsense_1_Tuner.h"
  50:Generated_Source\PSoC4/cyCapsense_1_Control.c **** 
  51:Generated_Source\PSoC4/cyCapsense_1_Control.c **** #if (cyCapsense_1_ENABLE == cyCapsense_1_SELF_TEST_EN)
  52:Generated_Source\PSoC4/cyCapsense_1_Control.c ****     #include "cyCapsense_1_SelfTest.h"
  53:Generated_Source\PSoC4/cyCapsense_1_Control.c **** #endif
  54:Generated_Source\PSoC4/cyCapsense_1_Control.c **** 
  55:Generated_Source\PSoC4/cyCapsense_1_Control.c **** #if (0u != cyCapsense_1_ADC_EN)
  56:Generated_Source\PSoC4/cyCapsense_1_Control.c ****     #include "cyCapsense_1_Adc.h"
  57:Generated_Source\PSoC4/cyCapsense_1_Control.c **** #endif /* (0u != cyCapsense_1_ADC_EN) */
  58:Generated_Source\PSoC4/cyCapsense_1_Control.c **** 
  59:Generated_Source\PSoC4/cyCapsense_1_Control.c **** #if ((cyCapsense_1_ENABLE == cyCapsense_1_GES_GLOBAL_EN) || \
  60:Generated_Source\PSoC4/cyCapsense_1_Control.c ****      (cyCapsense_1_ENABLE == cyCapsense_1_BALLISTIC_MULTIPLIER_EN))
  61:Generated_Source\PSoC4/cyCapsense_1_Control.c ****     #include "cyCapsense_1_Gesture.h"
  62:Generated_Source\PSoC4/cyCapsense_1_Control.c **** #endif /* (cyCapsense_1_ENABLE == cyCapsense_1_GES_GLOBAL_EN) */
  63:Generated_Source\PSoC4/cyCapsense_1_Control.c **** 
  64:Generated_Source\PSoC4/cyCapsense_1_Control.c **** /**************************************************************************************************
  65:Generated_Source\PSoC4/cyCapsense_1_Control.c **** * Local definition
  66:Generated_Source\PSoC4/cyCapsense_1_Control.c **** ***************************************************************************************************
  67:Generated_Source\PSoC4/cyCapsense_1_Control.c **** #define cyCapsense_1_INIT_DONE   (1u)
  68:Generated_Source\PSoC4/cyCapsense_1_Control.c **** #define cyCapsense_1_INIT_NEEDED (0u)
  69:Generated_Source\PSoC4/cyCapsense_1_Control.c **** 
  70:Generated_Source\PSoC4/cyCapsense_1_Control.c **** /**************************************************************************************************
  71:Generated_Source\PSoC4/cyCapsense_1_Control.c **** * Local variables
  72:Generated_Source\PSoC4/cyCapsense_1_Control.c **** ***************************************************************************************************
  73:Generated_Source\PSoC4/cyCapsense_1_Control.c **** static uint8 cyCapsense_1_InitVar = cyCapsense_1_INIT_NEEDED;
  74:Generated_Source\PSoC4/cyCapsense_1_Control.c **** 
  75:Generated_Source\PSoC4/cyCapsense_1_Control.c **** /*******************************************************************************
  76:Generated_Source\PSoC4/cyCapsense_1_Control.c **** * Function Name: cyCapsense_1_Start
  77:Generated_Source\PSoC4/cyCapsense_1_Control.c **** ****************************************************************************//**
  78:Generated_Source\PSoC4/cyCapsense_1_Control.c **** *
  79:Generated_Source\PSoC4/cyCapsense_1_Control.c **** * \brief
  80:Generated_Source\PSoC4/cyCapsense_1_Control.c **** *  Initializes the Component hardware and firmware modules. This function is
  81:Generated_Source\PSoC4/cyCapsense_1_Control.c **** *  called by the application program prior to calling any other function of the
  82:Generated_Source\PSoC4/cyCapsense_1_Control.c **** *  Component.
  83:Generated_Source\PSoC4/cyCapsense_1_Control.c **** *
  84:Generated_Source\PSoC4/cyCapsense_1_Control.c **** * \details
  85:Generated_Source\PSoC4/cyCapsense_1_Control.c **** *  This function initializes the Component hardware and firmware modules and
  86:Generated_Source\PSoC4/cyCapsense_1_Control.c **** *  is called by the application program prior to calling any other API
  87:Generated_Source\PSoC4/cyCapsense_1_Control.c **** *  of the Component. When this function is called, the following tasks are
ARM GAS  C:\Users\turan\AppData\Local\Temp\ccb7TZhX.s 			page 3


  88:Generated_Source\PSoC4/cyCapsense_1_Control.c **** *  executed as part of the initialization process:
  89:Generated_Source\PSoC4/cyCapsense_1_Control.c **** *    1. Initialize the registers of the \ref group_structures variable
  90:Generated_Source\PSoC4/cyCapsense_1_Control.c **** *       cyCapsense_1_dsRam based on the user selection in the Component
  91:Generated_Source\PSoC4/cyCapsense_1_Control.c **** *       configuration wizard.
  92:Generated_Source\PSoC4/cyCapsense_1_Control.c **** *    2. Configure the hardware to perform capacitive sensing.
  93:Generated_Source\PSoC4/cyCapsense_1_Control.c **** *    \if SECTION_C_HIGH_LEVEL
  94:Generated_Source\PSoC4/cyCapsense_1_Control.c **** *    3. If SmartSense Auto-tuning is selected for the CSD Tuning mode in the
  95:Generated_Source\PSoC4/cyCapsense_1_Control.c **** *       Basic tab, the auto-tuning algorithm is executed to set the optimal
  96:Generated_Source\PSoC4/cyCapsense_1_Control.c **** *       values for the hardware parameters of the widgets/sensors.
  97:Generated_Source\PSoC4/cyCapsense_1_Control.c **** *    \endif
  98:Generated_Source\PSoC4/cyCapsense_1_Control.c **** *    4. Calibrate the sensors and find the optimal values for IDACs of each
  99:Generated_Source\PSoC4/cyCapsense_1_Control.c **** *       widget / sensor, if the Enable IDAC auto-calibration is enabled in the
 100:Generated_Source\PSoC4/cyCapsense_1_Control.c **** *       CSD Setting or CSX Setting tabs.
 101:Generated_Source\PSoC4/cyCapsense_1_Control.c **** *    5. Perform scanning for all the sensors and initialize the baseline history.
 102:Generated_Source\PSoC4/cyCapsense_1_Control.c **** *    6. If the firmware filters are enabled in the Advanced General tab, the
 103:Generated_Source\PSoC4/cyCapsense_1_Control.c **** *       filter histories are also initialized.
 104:Generated_Source\PSoC4/cyCapsense_1_Control.c **** 
 105:Generated_Source\PSoC4/cyCapsense_1_Control.c **** *  Any next call of this API repeats an initialization process except for
 106:Generated_Source\PSoC4/cyCapsense_1_Control.c **** *  data structure initialization. Therefore, it is possible to change the
 107:Generated_Source\PSoC4/cyCapsense_1_Control.c **** *  Component configuration from the application program by writing registers to the
 108:Generated_Source\PSoC4/cyCapsense_1_Control.c **** *  data structure and calling this function again. This is also
 109:Generated_Source\PSoC4/cyCapsense_1_Control.c **** *  done inside the cyCapsense_1_RunTuner() function when a restart command
 110:Generated_Source\PSoC4/cyCapsense_1_Control.c **** *  is received.
 111:Generated_Source\PSoC4/cyCapsense_1_Control.c **** *
 112:Generated_Source\PSoC4/cyCapsense_1_Control.c **** *  When the Component operation is stopped by the cyCapsense_1_Stop()
 113:Generated_Source\PSoC4/cyCapsense_1_Control.c **** *  function, the cyCapsense_1_Start() function repeats an initialization
 114:Generated_Source\PSoC4/cyCapsense_1_Control.c **** *  process including data structure initialization.
 115:Generated_Source\PSoC4/cyCapsense_1_Control.c **** *
 116:Generated_Source\PSoC4/cyCapsense_1_Control.c **** * \return
 117:Generated_Source\PSoC4/cyCapsense_1_Control.c **** *  Returns the status of the initialization process. If CYRET_SUCCESS is not
 118:Generated_Source\PSoC4/cyCapsense_1_Control.c **** *  received, some of the initialization fails and the Component may not operate
 119:Generated_Source\PSoC4/cyCapsense_1_Control.c **** *  as expected.
 120:Generated_Source\PSoC4/cyCapsense_1_Control.c **** *
 121:Generated_Source\PSoC4/cyCapsense_1_Control.c **** *******************************************************************************/
 122:Generated_Source\PSoC4/cyCapsense_1_Control.c **** cystatus cyCapsense_1_Start(void)
 123:Generated_Source\PSoC4/cyCapsense_1_Control.c **** {
 124:Generated_Source\PSoC4/cyCapsense_1_Control.c ****     cystatus result;
 125:Generated_Source\PSoC4/cyCapsense_1_Control.c **** 
 126:Generated_Source\PSoC4/cyCapsense_1_Control.c ****     /* Initialize cyCapsense_1 modules */
 127:Generated_Source\PSoC4/cyCapsense_1_Control.c ****     result = cyCapsense_1_Initialize();
 128:Generated_Source\PSoC4/cyCapsense_1_Control.c **** 
 129:Generated_Source\PSoC4/cyCapsense_1_Control.c ****     #if (cyCapsense_1_CSD_AUTOTUNE != cyCapsense_1_CSD_SS_DIS)
 130:Generated_Source\PSoC4/cyCapsense_1_Control.c ****         if (CYRET_SUCCESS == result)
 131:Generated_Source\PSoC4/cyCapsense_1_Control.c ****         {
 132:Generated_Source\PSoC4/cyCapsense_1_Control.c ****             result = cyCapsense_1_SsAutoTune();
 133:Generated_Source\PSoC4/cyCapsense_1_Control.c ****         }
 134:Generated_Source\PSoC4/cyCapsense_1_Control.c ****     #endif /* #if (cyCapsense_1_CSD_AUTOTUNE != cyCapsense_1_CSD_SS_DIS) */
 135:Generated_Source\PSoC4/cyCapsense_1_Control.c **** 
 136:Generated_Source\PSoC4/cyCapsense_1_Control.c ****     #if (cyCapsense_1_ANY_NONSS_AUTOCAL)
 137:Generated_Source\PSoC4/cyCapsense_1_Control.c ****         if (CYRET_SUCCESS == result)
 138:Generated_Source\PSoC4/cyCapsense_1_Control.c ****         {
 139:Generated_Source\PSoC4/cyCapsense_1_Control.c ****             result = cyCapsense_1_CalibrateAllWidgets();
 140:Generated_Source\PSoC4/cyCapsense_1_Control.c ****         }
 141:Generated_Source\PSoC4/cyCapsense_1_Control.c ****     #endif
 142:Generated_Source\PSoC4/cyCapsense_1_Control.c **** 
 143:Generated_Source\PSoC4/cyCapsense_1_Control.c ****     if (CYRET_SUCCESS == result)
 144:Generated_Source\PSoC4/cyCapsense_1_Control.c ****     {
ARM GAS  C:\Users\turan\AppData\Local\Temp\ccb7TZhX.s 			page 4


 145:Generated_Source\PSoC4/cyCapsense_1_Control.c ****         result = cyCapsense_1_ScanAllWidgets();
 146:Generated_Source\PSoC4/cyCapsense_1_Control.c ****     }
 147:Generated_Source\PSoC4/cyCapsense_1_Control.c **** 
 148:Generated_Source\PSoC4/cyCapsense_1_Control.c ****     if (CYRET_SUCCESS == result)
 149:Generated_Source\PSoC4/cyCapsense_1_Control.c ****     {
 150:Generated_Source\PSoC4/cyCapsense_1_Control.c ****         /* Wait for scan to finish. */
 151:Generated_Source\PSoC4/cyCapsense_1_Control.c ****         while(cyCapsense_1_NOT_BUSY != cyCapsense_1_IsBusy())
 152:Generated_Source\PSoC4/cyCapsense_1_Control.c ****         {
 153:Generated_Source\PSoC4/cyCapsense_1_Control.c ****         }
 154:Generated_Source\PSoC4/cyCapsense_1_Control.c ****     }
 155:Generated_Source\PSoC4/cyCapsense_1_Control.c **** 
 156:Generated_Source\PSoC4/cyCapsense_1_Control.c ****     cyCapsense_1_FtInitialize();
 157:Generated_Source\PSoC4/cyCapsense_1_Control.c ****     cyCapsense_1_InitializeAllBaselines();
 158:Generated_Source\PSoC4/cyCapsense_1_Control.c **** 
 159:Generated_Source\PSoC4/cyCapsense_1_Control.c ****     #if(cyCapsense_1_ENABLE == cyCapsense_1_GES_GLOBAL_EN)
 160:Generated_Source\PSoC4/cyCapsense_1_Control.c ****         if (CYRET_SUCCESS == result)
 161:Generated_Source\PSoC4/cyCapsense_1_Control.c ****         {
 162:Generated_Source\PSoC4/cyCapsense_1_Control.c ****             cyCapsense_1_InitializeGestures();
 163:Generated_Source\PSoC4/cyCapsense_1_Control.c ****         }
 164:Generated_Source\PSoC4/cyCapsense_1_Control.c ****     #endif /* (cyCapsense_1_ENABLE == cyCapsense_1_GES_GLOBAL_EN) */
 165:Generated_Source\PSoC4/cyCapsense_1_Control.c **** 
 166:Generated_Source\PSoC4/cyCapsense_1_Control.c ****     #if (0u != cyCapsense_1_BALLISTIC_MULTIPLIER_EN)
 167:Generated_Source\PSoC4/cyCapsense_1_Control.c ****         if (CYRET_SUCCESS == result)
 168:Generated_Source\PSoC4/cyCapsense_1_Control.c ****         {
 169:Generated_Source\PSoC4/cyCapsense_1_Control.c ****             cyCapsense_1_InitializeBallisticMultiplier();
 170:Generated_Source\PSoC4/cyCapsense_1_Control.c ****         }
 171:Generated_Source\PSoC4/cyCapsense_1_Control.c ****     #endif /* (0u != cyCapsense_1_BALLISTIC_MULTIPLIER_EN) */
 172:Generated_Source\PSoC4/cyCapsense_1_Control.c **** 
 173:Generated_Source\PSoC4/cyCapsense_1_Control.c ****     #if (0u != cyCapsense_1_ADC_EN)
 174:Generated_Source\PSoC4/cyCapsense_1_Control.c ****         cyCapsense_1_AdcInitialize();
 175:Generated_Source\PSoC4/cyCapsense_1_Control.c ****     #endif /* (0u != cyCapsense_1_ADC_EN) */
 176:Generated_Source\PSoC4/cyCapsense_1_Control.c **** 
 177:Generated_Source\PSoC4/cyCapsense_1_Control.c ****     return result;
 178:Generated_Source\PSoC4/cyCapsense_1_Control.c **** }
 179:Generated_Source\PSoC4/cyCapsense_1_Control.c **** 
 180:Generated_Source\PSoC4/cyCapsense_1_Control.c **** /*******************************************************************************
 181:Generated_Source\PSoC4/cyCapsense_1_Control.c **** * Function Name: cyCapsense_1_Initialize
 182:Generated_Source\PSoC4/cyCapsense_1_Control.c **** ****************************************************************************//**
 183:Generated_Source\PSoC4/cyCapsense_1_Control.c **** *
 184:Generated_Source\PSoC4/cyCapsense_1_Control.c **** * \brief
 185:Generated_Source\PSoC4/cyCapsense_1_Control.c **** *  This function initializes the cyCapsense_1 Component.
 186:Generated_Source\PSoC4/cyCapsense_1_Control.c **** *
 187:Generated_Source\PSoC4/cyCapsense_1_Control.c **** * \details
 188:Generated_Source\PSoC4/cyCapsense_1_Control.c **** *  This API initializes all sub-modules of the cyCapsense_1 Component:
 189:Generated_Source\PSoC4/cyCapsense_1_Control.c **** *   - Data Structure - set the default Component parameters defined in the Customizer.
 190:Generated_Source\PSoC4/cyCapsense_1_Control.c **** *   - Data Processing - resets all widget statuses.
 191:Generated_Source\PSoC4/cyCapsense_1_Control.c **** *   - Tuner - resets tuning state.
 192:Generated_Source\PSoC4/cyCapsense_1_Control.c **** *   - Sensing - prepares CSD HW for operation.
 193:Generated_Source\PSoC4/cyCapsense_1_Control.c **** *
 194:Generated_Source\PSoC4/cyCapsense_1_Control.c **** *  Note that Data Structure module is initialized only once after the reset or
 195:Generated_Source\PSoC4/cyCapsense_1_Control.c **** *  cyCapsense_1_Stop() API is called. The repeated calls of Initialize API
 196:Generated_Source\PSoC4/cyCapsense_1_Control.c **** *  will not re-initialize Data Structure. This is done to preserve Component
 197:Generated_Source\PSoC4/cyCapsense_1_Control.c **** *  parameters that user may set in runtime.
 198:Generated_Source\PSoC4/cyCapsense_1_Control.c **** *
 199:Generated_Source\PSoC4/cyCapsense_1_Control.c **** * \return
 200:Generated_Source\PSoC4/cyCapsense_1_Control.c **** *  Return CYRET_SUCCESS if the initialization was successful.
 201:Generated_Source\PSoC4/cyCapsense_1_Control.c **** *
ARM GAS  C:\Users\turan\AppData\Local\Temp\ccb7TZhX.s 			page 5


 202:Generated_Source\PSoC4/cyCapsense_1_Control.c **** *******************************************************************************/
 203:Generated_Source\PSoC4/cyCapsense_1_Control.c **** cystatus cyCapsense_1_Initialize(void)
 204:Generated_Source\PSoC4/cyCapsense_1_Control.c **** {
  28              		.loc 1 204 0
  29              		.cfi_startproc
  30              		@ args = 0, pretend = 0, frame = 0
  31              		@ frame_needed = 0, uses_anonymous_args = 0
  32 0000 10B5     		push	{r4, lr}
  33              		.cfi_def_cfa_offset 8
  34              		.cfi_offset 4, -8
  35              		.cfi_offset 14, -4
 205:Generated_Source\PSoC4/cyCapsense_1_Control.c ****     cystatus result;
 206:Generated_Source\PSoC4/cyCapsense_1_Control.c **** 
 207:Generated_Source\PSoC4/cyCapsense_1_Control.c ****     /* The Data Structure and Tuner are initialized only once */
 208:Generated_Source\PSoC4/cyCapsense_1_Control.c ****     if (cyCapsense_1_INIT_NEEDED == cyCapsense_1_InitVar)
  36              		.loc 1 208 0
  37 0002 084B     		ldr	r3, .L3
  38 0004 1B78     		ldrb	r3, [r3]
  39 0006 002B     		cmp	r3, #0
  40 0008 06D1     		bne	.L2
 209:Generated_Source\PSoC4/cyCapsense_1_Control.c ****     {
 210:Generated_Source\PSoC4/cyCapsense_1_Control.c ****         cyCapsense_1_DsInitialize();
  41              		.loc 1 210 0
  42 000a FFF7FEFF 		bl	cyCapsense_1_DsInitialize
  43              	.LVL0:
 211:Generated_Source\PSoC4/cyCapsense_1_Control.c ****         cyCapsense_1_TuInitialize();
  44              		.loc 1 211 0
  45 000e FFF7FEFF 		bl	cyCapsense_1_TuInitialize
  46              	.LVL1:
 212:Generated_Source\PSoC4/cyCapsense_1_Control.c ****         cyCapsense_1_InitVar = cyCapsense_1_INIT_DONE;
  47              		.loc 1 212 0
  48 0012 0122     		movs	r2, #1
  49 0014 034B     		ldr	r3, .L3
  50 0016 1A70     		strb	r2, [r3]
  51              	.L2:
 213:Generated_Source\PSoC4/cyCapsense_1_Control.c ****     }
 214:Generated_Source\PSoC4/cyCapsense_1_Control.c **** 
 215:Generated_Source\PSoC4/cyCapsense_1_Control.c ****     cyCapsense_1_DpInitialize();
  52              		.loc 1 215 0
  53 0018 FFF7FEFF 		bl	cyCapsense_1_DpInitialize
  54              	.LVL2:
 216:Generated_Source\PSoC4/cyCapsense_1_Control.c **** 
 217:Generated_Source\PSoC4/cyCapsense_1_Control.c ****     result = cyCapsense_1_SsInitialize();
  55              		.loc 1 217 0
  56 001c FFF7FEFF 		bl	cyCapsense_1_SsInitialize
  57              	.LVL3:
 218:Generated_Source\PSoC4/cyCapsense_1_Control.c **** 
 219:Generated_Source\PSoC4/cyCapsense_1_Control.c ****     return result;
 220:Generated_Source\PSoC4/cyCapsense_1_Control.c **** }
  58              		.loc 1 220 0
  59              		@ sp needed
  60 0020 10BD     		pop	{r4, pc}
  61              	.L4:
  62 0022 C046     		.align	2
  63              	.L3:
  64 0024 00000000 		.word	.LANCHOR0
  65              		.cfi_endproc
ARM GAS  C:\Users\turan\AppData\Local\Temp\ccb7TZhX.s 			page 6


  66              	.LFE3:
  67              		.size	cyCapsense_1_Initialize, .-cyCapsense_1_Initialize
  68              		.section	.text.cyCapsense_1_Start,"ax",%progbits
  69              		.align	2
  70              		.global	cyCapsense_1_Start
  71              		.code	16
  72              		.thumb_func
  73              		.type	cyCapsense_1_Start, %function
  74              	cyCapsense_1_Start:
  75              	.LFB2:
 123:Generated_Source\PSoC4/cyCapsense_1_Control.c ****     cystatus result;
  76              		.loc 1 123 0
  77              		.cfi_startproc
  78              		@ args = 0, pretend = 0, frame = 0
  79              		@ frame_needed = 0, uses_anonymous_args = 0
  80 0000 10B5     		push	{r4, lr}
  81              		.cfi_def_cfa_offset 8
  82              		.cfi_offset 4, -8
  83              		.cfi_offset 14, -4
 127:Generated_Source\PSoC4/cyCapsense_1_Control.c **** 
  84              		.loc 1 127 0
  85 0002 FFF7FEFF 		bl	cyCapsense_1_Initialize
  86              	.LVL4:
  87 0006 041E     		subs	r4, r0, #0
  88              	.LVL5:
 130:Generated_Source\PSoC4/cyCapsense_1_Control.c ****         {
  89              		.loc 1 130 0
  90 0008 02D1     		bne	.L6
 132:Generated_Source\PSoC4/cyCapsense_1_Control.c ****         }
  91              		.loc 1 132 0
  92 000a FFF7FEFF 		bl	cyCapsense_1_SsAutoTune
  93              	.LVL6:
  94 000e 0400     		movs	r4, r0
  95              	.LVL7:
  96              	.L6:
 143:Generated_Source\PSoC4/cyCapsense_1_Control.c ****     {
  97              		.loc 1 143 0
  98 0010 002C     		cmp	r4, #0
  99 0012 02D1     		bne	.L7
 145:Generated_Source\PSoC4/cyCapsense_1_Control.c ****     }
 100              		.loc 1 145 0
 101 0014 FFF7FEFF 		bl	cyCapsense_1_ScanAllWidgets
 102              	.LVL8:
 103 0018 0400     		movs	r4, r0
 104              	.LVL9:
 105              	.L7:
 148:Generated_Source\PSoC4/cyCapsense_1_Control.c ****     {
 106              		.loc 1 148 0
 107 001a 002C     		cmp	r4, #0
 108 001c 03D1     		bne	.L8
 109              	.LVL10:
 110              	.L9:
 151:Generated_Source\PSoC4/cyCapsense_1_Control.c ****         {
 111              		.loc 1 151 0 discriminator 1
 112 001e FFF7FEFF 		bl	cyCapsense_1_IsBusy
 113              	.LVL11:
 114 0022 0028     		cmp	r0, #0
ARM GAS  C:\Users\turan\AppData\Local\Temp\ccb7TZhX.s 			page 7


 115 0024 FBD1     		bne	.L9
 116              	.L8:
 156:Generated_Source\PSoC4/cyCapsense_1_Control.c ****     cyCapsense_1_InitializeAllBaselines();
 117              		.loc 1 156 0
 118 0026 FFF7FEFF 		bl	cyCapsense_1_FtInitialize
 119              	.LVL12:
 157:Generated_Source\PSoC4/cyCapsense_1_Control.c **** 
 120              		.loc 1 157 0
 121 002a FFF7FEFF 		bl	cyCapsense_1_InitializeAllBaselines
 122              	.LVL13:
 178:Generated_Source\PSoC4/cyCapsense_1_Control.c **** 
 123              		.loc 1 178 0
 124 002e 2000     		movs	r0, r4
 125              		@ sp needed
 126              	.LVL14:
 127 0030 10BD     		pop	{r4, pc}
 128              		.cfi_endproc
 129              	.LFE2:
 130              		.size	cyCapsense_1_Start, .-cyCapsense_1_Start
 131 0032 C046     		.section	.text.cyCapsense_1_Stop,"ax",%progbits
 132              		.align	2
 133              		.global	cyCapsense_1_Stop
 134              		.code	16
 135              		.thumb_func
 136              		.type	cyCapsense_1_Stop, %function
 137              	cyCapsense_1_Stop:
 138              	.LFB4:
 221:Generated_Source\PSoC4/cyCapsense_1_Control.c **** 
 222:Generated_Source\PSoC4/cyCapsense_1_Control.c **** /*******************************************************************************
 223:Generated_Source\PSoC4/cyCapsense_1_Control.c **** * Function Name: cyCapsense_1_Stop
 224:Generated_Source\PSoC4/cyCapsense_1_Control.c **** ****************************************************************************//**
 225:Generated_Source\PSoC4/cyCapsense_1_Control.c **** *
 226:Generated_Source\PSoC4/cyCapsense_1_Control.c **** * \brief
 227:Generated_Source\PSoC4/cyCapsense_1_Control.c **** *  Stops the Component operation.
 228:Generated_Source\PSoC4/cyCapsense_1_Control.c **** *
 229:Generated_Source\PSoC4/cyCapsense_1_Control.c **** * \details
 230:Generated_Source\PSoC4/cyCapsense_1_Control.c **** *  This function stops the Component operation, no sensor scanning can be
 231:Generated_Source\PSoC4/cyCapsense_1_Control.c **** *  executed when the Component is stopped. Once stopped, the hardware block may
 232:Generated_Source\PSoC4/cyCapsense_1_Control.c **** *  be reconfigured by the application program for any other special usage. The
 233:Generated_Source\PSoC4/cyCapsense_1_Control.c **** *  Component operation can be resumed by calling the cyCapsense_1_Resume()
 234:Generated_Source\PSoC4/cyCapsense_1_Control.c **** *  function or the Component can be reset by calling the
 235:Generated_Source\PSoC4/cyCapsense_1_Control.c **** *  cyCapsense_1_Start() function.
 236:Generated_Source\PSoC4/cyCapsense_1_Control.c **** *
 237:Generated_Source\PSoC4/cyCapsense_1_Control.c **** *  This function is called when no scanning is in progress.
 238:Generated_Source\PSoC4/cyCapsense_1_Control.c **** *  I.e. cyCapsense_1_IsBusy() returns a non-busy status.
 239:Generated_Source\PSoC4/cyCapsense_1_Control.c **** *
 240:Generated_Source\PSoC4/cyCapsense_1_Control.c **** * \return
 241:Generated_Source\PSoC4/cyCapsense_1_Control.c **** *  Returns the status of the stop process. If CYRET_SUCCESS is not received,
 242:Generated_Source\PSoC4/cyCapsense_1_Control.c **** *  the stop process fails and retries may be required.
 243:Generated_Source\PSoC4/cyCapsense_1_Control.c **** *
 244:Generated_Source\PSoC4/cyCapsense_1_Control.c **** *******************************************************************************/
 245:Generated_Source\PSoC4/cyCapsense_1_Control.c **** cystatus cyCapsense_1_Stop(void)
 246:Generated_Source\PSoC4/cyCapsense_1_Control.c **** {
 139              		.loc 1 246 0
 140              		.cfi_startproc
 141              		@ args = 0, pretend = 0, frame = 0
 142              		@ frame_needed = 0, uses_anonymous_args = 0
ARM GAS  C:\Users\turan\AppData\Local\Temp\ccb7TZhX.s 			page 8


 143              		@ link register save eliminated.
 144              	.LVL15:
 247:Generated_Source\PSoC4/cyCapsense_1_Control.c ****     cystatus result = CYRET_SUCCESS;
 248:Generated_Source\PSoC4/cyCapsense_1_Control.c **** 
 249:Generated_Source\PSoC4/cyCapsense_1_Control.c ****     #if (cyCapsense_1_ENABLE == cyCapsense_1_ADC_EN)
 250:Generated_Source\PSoC4/cyCapsense_1_Control.c ****         /* Release CSD resources */
 251:Generated_Source\PSoC4/cyCapsense_1_Control.c ****         result = cyCapsense_1_SsReleaseResources();
 252:Generated_Source\PSoC4/cyCapsense_1_Control.c **** 
 253:Generated_Source\PSoC4/cyCapsense_1_Control.c ****         /* Release ADC resources */
 254:Generated_Source\PSoC4/cyCapsense_1_Control.c ****         cyCapsense_1_AdcStop();
 255:Generated_Source\PSoC4/cyCapsense_1_Control.c ****     #endif /* (cyCapsense_1_ENABLE == cyCapsense_1_ADC_EN) */
 256:Generated_Source\PSoC4/cyCapsense_1_Control.c **** 
 257:Generated_Source\PSoC4/cyCapsense_1_Control.c ****     cyCapsense_1_InitVar = cyCapsense_1_INIT_NEEDED;
 145              		.loc 1 257 0
 146 0000 0022     		movs	r2, #0
 147 0002 024B     		ldr	r3, .L11
 148 0004 1A70     		strb	r2, [r3]
 258:Generated_Source\PSoC4/cyCapsense_1_Control.c **** 
 259:Generated_Source\PSoC4/cyCapsense_1_Control.c ****     return result;
 260:Generated_Source\PSoC4/cyCapsense_1_Control.c **** }
 149              		.loc 1 260 0
 150 0006 0020     		movs	r0, #0
 151              		@ sp needed
 152 0008 7047     		bx	lr
 153              	.L12:
 154 000a C046     		.align	2
 155              	.L11:
 156 000c 00000000 		.word	.LANCHOR0
 157              		.cfi_endproc
 158              	.LFE4:
 159              		.size	cyCapsense_1_Stop, .-cyCapsense_1_Stop
 160              		.section	.text.cyCapsense_1_Resume,"ax",%progbits
 161              		.align	2
 162              		.global	cyCapsense_1_Resume
 163              		.code	16
 164              		.thumb_func
 165              		.type	cyCapsense_1_Resume, %function
 166              	cyCapsense_1_Resume:
 167              	.LFB5:
 261:Generated_Source\PSoC4/cyCapsense_1_Control.c **** 
 262:Generated_Source\PSoC4/cyCapsense_1_Control.c **** /*******************************************************************************
 263:Generated_Source\PSoC4/cyCapsense_1_Control.c **** * Function Name: cyCapsense_1_Resume
 264:Generated_Source\PSoC4/cyCapsense_1_Control.c **** ****************************************************************************//**
 265:Generated_Source\PSoC4/cyCapsense_1_Control.c **** *
 266:Generated_Source\PSoC4/cyCapsense_1_Control.c **** * \brief
 267:Generated_Source\PSoC4/cyCapsense_1_Control.c **** *  Resumes the Component operation if the cyCapsense_1_Stop() function was
 268:Generated_Source\PSoC4/cyCapsense_1_Control.c **** *  called previously.
 269:Generated_Source\PSoC4/cyCapsense_1_Control.c **** *
 270:Generated_Source\PSoC4/cyCapsense_1_Control.c **** * \details
 271:Generated_Source\PSoC4/cyCapsense_1_Control.c **** *  This function resumes the Component operation if the operation is stopped
 272:Generated_Source\PSoC4/cyCapsense_1_Control.c **** *  previously by the cyCapsense_1_Stop() function. The following tasks are
 273:Generated_Source\PSoC4/cyCapsense_1_Control.c **** *  executed as part of the operation resume process:
 274:Generated_Source\PSoC4/cyCapsense_1_Control.c **** *    1. Reset all the Widgets/Sensors statuses.
 275:Generated_Source\PSoC4/cyCapsense_1_Control.c **** *    2. Configure the hardware to perform capacitive sensing.
 276:Generated_Source\PSoC4/cyCapsense_1_Control.c **** *
 277:Generated_Source\PSoC4/cyCapsense_1_Control.c **** * \return
 278:Generated_Source\PSoC4/cyCapsense_1_Control.c **** *  Returns the status of the resume process. If CYRET_SUCCESS is not received,
ARM GAS  C:\Users\turan\AppData\Local\Temp\ccb7TZhX.s 			page 9


 279:Generated_Source\PSoC4/cyCapsense_1_Control.c **** *  the resume process fails and retries may be required.
 280:Generated_Source\PSoC4/cyCapsense_1_Control.c **** *
 281:Generated_Source\PSoC4/cyCapsense_1_Control.c **** *******************************************************************************/
 282:Generated_Source\PSoC4/cyCapsense_1_Control.c **** cystatus cyCapsense_1_Resume(void)
 283:Generated_Source\PSoC4/cyCapsense_1_Control.c **** {
 168              		.loc 1 283 0
 169              		.cfi_startproc
 170              		@ args = 0, pretend = 0, frame = 0
 171              		@ frame_needed = 0, uses_anonymous_args = 0
 172 0000 10B5     		push	{r4, lr}
 173              		.cfi_def_cfa_offset 8
 174              		.cfi_offset 4, -8
 175              		.cfi_offset 14, -4
 284:Generated_Source\PSoC4/cyCapsense_1_Control.c ****     cystatus result;
 285:Generated_Source\PSoC4/cyCapsense_1_Control.c **** 
 286:Generated_Source\PSoC4/cyCapsense_1_Control.c ****     /* The Tuner are initialized only once in order not to break communication */
 287:Generated_Source\PSoC4/cyCapsense_1_Control.c ****     if (cyCapsense_1_INIT_NEEDED == cyCapsense_1_InitVar)
 176              		.loc 1 287 0
 177 0002 074B     		ldr	r3, .L15
 178 0004 1B78     		ldrb	r3, [r3]
 179 0006 002B     		cmp	r3, #0
 180 0008 04D1     		bne	.L14
 288:Generated_Source\PSoC4/cyCapsense_1_Control.c ****     {
 289:Generated_Source\PSoC4/cyCapsense_1_Control.c ****         cyCapsense_1_TuInitialize();
 181              		.loc 1 289 0
 182 000a FFF7FEFF 		bl	cyCapsense_1_TuInitialize
 183              	.LVL16:
 290:Generated_Source\PSoC4/cyCapsense_1_Control.c ****         cyCapsense_1_InitVar = cyCapsense_1_INIT_DONE;
 184              		.loc 1 290 0
 185 000e 0122     		movs	r2, #1
 186 0010 034B     		ldr	r3, .L15
 187 0012 1A70     		strb	r2, [r3]
 188              	.L14:
 291:Generated_Source\PSoC4/cyCapsense_1_Control.c ****     }
 292:Generated_Source\PSoC4/cyCapsense_1_Control.c ****     cyCapsense_1_DpInitialize();
 189              		.loc 1 292 0
 190 0014 FFF7FEFF 		bl	cyCapsense_1_DpInitialize
 191              	.LVL17:
 293:Generated_Source\PSoC4/cyCapsense_1_Control.c **** 
 294:Generated_Source\PSoC4/cyCapsense_1_Control.c ****     result = cyCapsense_1_SsInitialize();
 192              		.loc 1 294 0
 193 0018 FFF7FEFF 		bl	cyCapsense_1_SsInitialize
 194              	.LVL18:
 295:Generated_Source\PSoC4/cyCapsense_1_Control.c **** 
 296:Generated_Source\PSoC4/cyCapsense_1_Control.c ****     return result;
 297:Generated_Source\PSoC4/cyCapsense_1_Control.c **** }
 195              		.loc 1 297 0
 196              		@ sp needed
 197 001c 10BD     		pop	{r4, pc}
 198              	.L16:
 199 001e C046     		.align	2
 200              	.L15:
 201 0020 00000000 		.word	.LANCHOR0
 202              		.cfi_endproc
 203              	.LFE5:
 204              		.size	cyCapsense_1_Resume, .-cyCapsense_1_Resume
 205              		.section	.text.cyCapsense_1_ProcessAllWidgets,"ax",%progbits
ARM GAS  C:\Users\turan\AppData\Local\Temp\ccb7TZhX.s 			page 10


 206              		.align	2
 207              		.global	cyCapsense_1_ProcessAllWidgets
 208              		.code	16
 209              		.thumb_func
 210              		.type	cyCapsense_1_ProcessAllWidgets, %function
 211              	cyCapsense_1_ProcessAllWidgets:
 212              	.LFB6:
 298:Generated_Source\PSoC4/cyCapsense_1_Control.c **** 
 299:Generated_Source\PSoC4/cyCapsense_1_Control.c **** /*******************************************************************************
 300:Generated_Source\PSoC4/cyCapsense_1_Control.c **** * Function Name: cyCapsense_1_ProcessAllWidgets
 301:Generated_Source\PSoC4/cyCapsense_1_Control.c **** ****************************************************************************//**
 302:Generated_Source\PSoC4/cyCapsense_1_Control.c **** *
 303:Generated_Source\PSoC4/cyCapsense_1_Control.c **** * \brief
 304:Generated_Source\PSoC4/cyCapsense_1_Control.c **** *  Performs full data processing of all enabled widgets.
 305:Generated_Source\PSoC4/cyCapsense_1_Control.c **** *
 306:Generated_Source\PSoC4/cyCapsense_1_Control.c **** * \details
 307:Generated_Source\PSoC4/cyCapsense_1_Control.c **** *  This function performs all data processes for all enabled widgets in the
 308:Generated_Source\PSoC4/cyCapsense_1_Control.c **** *  Component. The following tasks are executed as part of processing all the
 309:Generated_Source\PSoC4/cyCapsense_1_Control.c **** *  widgets:
 310:Generated_Source\PSoC4/cyCapsense_1_Control.c **** *    1. Apply raw count filters to the raw counts, if they are enabled in the
 311:Generated_Source\PSoC4/cyCapsense_1_Control.c **** *       customizer.
 312:Generated_Source\PSoC4/cyCapsense_1_Control.c **** *    2. Update the thresholds if the SmartSense Full Auto-Tuning is enabled in
 313:Generated_Source\PSoC4/cyCapsense_1_Control.c **** *       the customizer.
 314:Generated_Source\PSoC4/cyCapsense_1_Control.c **** *    3. Update the baselines and difference counts for all the sensors.
 315:Generated_Source\PSoC4/cyCapsense_1_Control.c **** *    4. Update the sensor and widget status (on/off), update the centroid for
 316:Generated_Source\PSoC4/cyCapsense_1_Control.c **** *       the sliders and the X/Y position for the touchpads.
 317:Generated_Source\PSoC4/cyCapsense_1_Control.c **** *
 318:Generated_Source\PSoC4/cyCapsense_1_Control.c **** *  This function is called by an application program only after all the enabled
 319:Generated_Source\PSoC4/cyCapsense_1_Control.c **** *  widgets (and sensors) in the Component is scanned. Calling this function
 320:Generated_Source\PSoC4/cyCapsense_1_Control.c **** *  multiple times without sensor scanning causes unexpected behavior.
 321:Generated_Source\PSoC4/cyCapsense_1_Control.c **** *
 322:Generated_Source\PSoC4/cyCapsense_1_Control.c **** *  The disabled widgets are not processed by this function. To disable/enable
 323:Generated_Source\PSoC4/cyCapsense_1_Control.c **** *  a widget, set the appropriate values in the
 324:Generated_Source\PSoC4/cyCapsense_1_Control.c **** *  cyCapsense_1_WDGT_ENABLE<RegisterNumber>_PARAM_ID register using the
 325:Generated_Source\PSoC4/cyCapsense_1_Control.c **** *  cyCapsense_1_SetParam() function.
 326:Generated_Source\PSoC4/cyCapsense_1_Control.c **** *
 327:Generated_Source\PSoC4/cyCapsense_1_Control.c **** *  If the Ballistic multiplier filter is enabled the Timestamp must be
 328:Generated_Source\PSoC4/cyCapsense_1_Control.c **** *  updated before calling this function using the
 329:Generated_Source\PSoC4/cyCapsense_1_Control.c **** *  cyCapsense_1_IncrementGestureTimestamp() function.
 330:Generated_Source\PSoC4/cyCapsense_1_Control.c **** *
 331:Generated_Source\PSoC4/cyCapsense_1_Control.c **** *  If the Self-test library is enabled, this function executes the baseline duplication
 332:Generated_Source\PSoC4/cyCapsense_1_Control.c **** *  test. Refer to cyCapsense_1_CheckBaselineDuplication() for details.
 333:Generated_Source\PSoC4/cyCapsense_1_Control.c **** *
 334:Generated_Source\PSoC4/cyCapsense_1_Control.c **** *  If the ballistic multiplier filter is enabled, make sure the timestamp is
 335:Generated_Source\PSoC4/cyCapsense_1_Control.c **** *  updated before calling this function. Use one of the following functions to update
 336:Generated_Source\PSoC4/cyCapsense_1_Control.c **** *  the timestamp:
 337:Generated_Source\PSoC4/cyCapsense_1_Control.c **** *  - cyCapsense_1_IncrementGestureTimestamp().
 338:Generated_Source\PSoC4/cyCapsense_1_Control.c **** *  - cyCapsense_1_SetGestureTimestamp().
 339:Generated_Source\PSoC4/cyCapsense_1_Control.c **** *
 340:Generated_Source\PSoC4/cyCapsense_1_Control.c **** * \return
 341:Generated_Source\PSoC4/cyCapsense_1_Control.c **** *  Returns the status of the processing operation. If CYRET_SUCCESS is not received,
 342:Generated_Source\PSoC4/cyCapsense_1_Control.c **** *  the processing fails and retries may be required.
 343:Generated_Source\PSoC4/cyCapsense_1_Control.c **** *
 344:Generated_Source\PSoC4/cyCapsense_1_Control.c **** *******************************************************************************/
 345:Generated_Source\PSoC4/cyCapsense_1_Control.c **** cystatus cyCapsense_1_ProcessAllWidgets(void)
 346:Generated_Source\PSoC4/cyCapsense_1_Control.c **** {
 213              		.loc 1 346 0
ARM GAS  C:\Users\turan\AppData\Local\Temp\ccb7TZhX.s 			page 11


 214              		.cfi_startproc
 215              		@ args = 0, pretend = 0, frame = 0
 216              		@ frame_needed = 0, uses_anonymous_args = 0
 217 0000 70B5     		push	{r4, r5, r6, lr}
 218              		.cfi_def_cfa_offset 16
 219              		.cfi_offset 4, -16
 220              		.cfi_offset 5, -12
 221              		.cfi_offset 6, -8
 222              		.cfi_offset 14, -4
 223              	.LVL19:
 347:Generated_Source\PSoC4/cyCapsense_1_Control.c ****     uint32 wdgtId;
 348:Generated_Source\PSoC4/cyCapsense_1_Control.c ****     cystatus result = CYRET_SUCCESS;
 349:Generated_Source\PSoC4/cyCapsense_1_Control.c ****     cyCapsense_1_FLASH_WD_STRUCT const *ptrFlashWdgt;
 350:Generated_Source\PSoC4/cyCapsense_1_Control.c **** 
 351:Generated_Source\PSoC4/cyCapsense_1_Control.c ****     ptrFlashWdgt = cyCapsense_1_dsFlash.wdgtArray;
 224              		.loc 1 351 0
 225 0002 0E4E     		ldr	r6, .L21
 348:Generated_Source\PSoC4/cyCapsense_1_Control.c ****     cyCapsense_1_FLASH_WD_STRUCT const *ptrFlashWdgt;
 226              		.loc 1 348 0
 227 0004 0025     		movs	r5, #0
 352:Generated_Source\PSoC4/cyCapsense_1_Control.c **** 
 353:Generated_Source\PSoC4/cyCapsense_1_Control.c ****     for (wdgtId = 0u; wdgtId < cyCapsense_1_TOTAL_WIDGETS; wdgtId++)
 228              		.loc 1 353 0
 229 0006 0024     		movs	r4, #0
 230 0008 13E0     		b	.L18
 231              	.LVL20:
 232              	.L20:
 354:Generated_Source\PSoC4/cyCapsense_1_Control.c ****     {
 355:Generated_Source\PSoC4/cyCapsense_1_Control.c ****         if (0uL != cyCapsense_1_GET_WIDGET_EN_STATUS(wdgtId))
 233              		.loc 1 355 0
 234 000a 6309     		lsrs	r3, r4, #5
 235 000c 0433     		adds	r3, r3, #4
 236 000e 9B00     		lsls	r3, r3, #2
 237 0010 0B4A     		ldr	r2, .L21+4
 238 0012 9B58     		ldr	r3, [r3, r2]
 239 0014 1F22     		movs	r2, #31
 240 0016 2240     		ands	r2, r4
 241 0018 D340     		lsrs	r3, r3, r2
 242 001a DB07     		lsls	r3, r3, #31
 243 001c 07D5     		bpl	.L19
 356:Generated_Source\PSoC4/cyCapsense_1_Control.c ****         {
 357:Generated_Source\PSoC4/cyCapsense_1_Control.c ****             switch(cyCapsense_1_GET_SENSE_METHOD(ptrFlashWdgt))
 358:Generated_Source\PSoC4/cyCapsense_1_Control.c ****             {
 359:Generated_Source\PSoC4/cyCapsense_1_Control.c ****             #if (0u != cyCapsense_1_TOTAL_CSD_WIDGETS)
 360:Generated_Source\PSoC4/cyCapsense_1_Control.c ****                 case cyCapsense_1_SENSE_METHOD_CSD_E:
 361:Generated_Source\PSoC4/cyCapsense_1_Control.c ****                     result = cyCapsense_1_DpProcessCsdWidgetRawCounts(ptrFlashWdgt);
 244              		.loc 1 361 0
 245 001e 3000     		movs	r0, r6
 246 0020 FFF7FEFF 		bl	cyCapsense_1_DpProcessCsdWidgetRawCounts
 247              	.LVL21:
 248 0024 0500     		movs	r5, r0
 249              	.LVL22:
 362:Generated_Source\PSoC4/cyCapsense_1_Control.c ****                     cyCapsense_1_DpProcessCsdWidgetStatus(wdgtId, ptrFlashWdgt);
 250              		.loc 1 362 0
 251 0026 3100     		movs	r1, r6
 252 0028 2000     		movs	r0, r4
 253              	.LVL23:
ARM GAS  C:\Users\turan\AppData\Local\Temp\ccb7TZhX.s 			page 12


 254 002a FFF7FEFF 		bl	cyCapsense_1_DpProcessCsdWidgetStatus
 255              	.LVL24:
 256              	.L19:
 363:Generated_Source\PSoC4/cyCapsense_1_Control.c ****                     break;
 364:Generated_Source\PSoC4/cyCapsense_1_Control.c ****             #endif /* #if (0u != cyCapsense_1_TOTAL_CSD_WIDGETS) */
 365:Generated_Source\PSoC4/cyCapsense_1_Control.c **** 
 366:Generated_Source\PSoC4/cyCapsense_1_Control.c ****             #if (0u != cyCapsense_1_TOTAL_CSX_WIDGETS)
 367:Generated_Source\PSoC4/cyCapsense_1_Control.c ****                 case cyCapsense_1_SENSE_METHOD_CSX_E:
 368:Generated_Source\PSoC4/cyCapsense_1_Control.c ****                     result = cyCapsense_1_DpProcessCsxWidgetRawCounts(ptrFlashWdgt);
 369:Generated_Source\PSoC4/cyCapsense_1_Control.c ****                     cyCapsense_1_DpProcessCsxWidgetStatus(wdgtId, ptrFlashWdgt);
 370:Generated_Source\PSoC4/cyCapsense_1_Control.c ****                     break;
 371:Generated_Source\PSoC4/cyCapsense_1_Control.c ****             #endif /* #if (0u != cyCapsense_1_TOTAL_CSX_WIDGETS) */
 372:Generated_Source\PSoC4/cyCapsense_1_Control.c **** 
 373:Generated_Source\PSoC4/cyCapsense_1_Control.c ****             #if (0u != cyCapsense_1_TOTAL_ISX_WIDGETS)
 374:Generated_Source\PSoC4/cyCapsense_1_Control.c ****                 case cyCapsense_1_SENSE_METHOD_ISX_E:
 375:Generated_Source\PSoC4/cyCapsense_1_Control.c ****                     result = cyCapsense_1_DpProcessIsxWidgetRawCounts(ptrFlashWdgt);
 376:Generated_Source\PSoC4/cyCapsense_1_Control.c ****                     cyCapsense_1_DpProcessIsxWidgetStatus(wdgtId, ptrFlashWdgt);
 377:Generated_Source\PSoC4/cyCapsense_1_Control.c ****                     break;
 378:Generated_Source\PSoC4/cyCapsense_1_Control.c ****             #endif /* #if (0u != cyCapsense_1_TOTAL_ISX_WIDGETS) */
 379:Generated_Source\PSoC4/cyCapsense_1_Control.c **** 
 380:Generated_Source\PSoC4/cyCapsense_1_Control.c ****             default:
 381:Generated_Source\PSoC4/cyCapsense_1_Control.c ****                 CYASSERT(0u);
 382:Generated_Source\PSoC4/cyCapsense_1_Control.c ****                 break;
 383:Generated_Source\PSoC4/cyCapsense_1_Control.c ****             }
 384:Generated_Source\PSoC4/cyCapsense_1_Control.c **** 
 385:Generated_Source\PSoC4/cyCapsense_1_Control.c ****             #if (cyCapsense_1_ENABLE == cyCapsense_1_TST_BSLN_DUPLICATION_EN)
 386:Generated_Source\PSoC4/cyCapsense_1_Control.c ****                 if (CYRET_SUCCESS != result)
 387:Generated_Source\PSoC4/cyCapsense_1_Control.c ****                 {
 388:Generated_Source\PSoC4/cyCapsense_1_Control.c ****                     cyCapsense_1_UpdateTestResultBaselineDuplication(wdgtId, result);
 389:Generated_Source\PSoC4/cyCapsense_1_Control.c ****                     result = CYRET_BAD_DATA;
 390:Generated_Source\PSoC4/cyCapsense_1_Control.c ****                 }
 391:Generated_Source\PSoC4/cyCapsense_1_Control.c ****             #endif /* (cyCapsense_1_ENABLE == cyCapsense_1_TST_BSLN_DUPLICATION_EN) */
 392:Generated_Source\PSoC4/cyCapsense_1_Control.c **** 
 393:Generated_Source\PSoC4/cyCapsense_1_Control.c ****         }
 394:Generated_Source\PSoC4/cyCapsense_1_Control.c ****         ptrFlashWdgt++;
 257              		.loc 1 394 0 discriminator 2
 258 002e 2036     		adds	r6, r6, #32
 259              	.LVL25:
 353:Generated_Source\PSoC4/cyCapsense_1_Control.c ****     {
 260              		.loc 1 353 0 discriminator 2
 261 0030 0134     		adds	r4, r4, #1
 262              	.LVL26:
 263              	.L18:
 353:Generated_Source\PSoC4/cyCapsense_1_Control.c ****     {
 264              		.loc 1 353 0 is_stmt 0 discriminator 1
 265 0032 002C     		cmp	r4, #0
 266 0034 E9D0     		beq	.L20
 395:Generated_Source\PSoC4/cyCapsense_1_Control.c ****     }
 396:Generated_Source\PSoC4/cyCapsense_1_Control.c ****     return result;
 397:Generated_Source\PSoC4/cyCapsense_1_Control.c **** }
 267              		.loc 1 397 0 is_stmt 1
 268 0036 2800     		movs	r0, r5
 269              		@ sp needed
 270              	.LVL27:
 271              	.LVL28:
 272              	.LVL29:
 273 0038 70BD     		pop	{r4, r5, r6, pc}
ARM GAS  C:\Users\turan\AppData\Local\Temp\ccb7TZhX.s 			page 13


 274              	.L22:
 275 003a C046     		.align	2
 276              	.L21:
 277 003c 00000000 		.word	cyCapsense_1_dsFlash
 278 0040 00000000 		.word	cyCapsense_1_dsRam
 279              		.cfi_endproc
 280              	.LFE6:
 281              		.size	cyCapsense_1_ProcessAllWidgets, .-cyCapsense_1_ProcessAllWidgets
 282              		.section	.text.cyCapsense_1_ProcessWidget,"ax",%progbits
 283              		.align	2
 284              		.global	cyCapsense_1_ProcessWidget
 285              		.code	16
 286              		.thumb_func
 287              		.type	cyCapsense_1_ProcessWidget, %function
 288              	cyCapsense_1_ProcessWidget:
 289              	.LFB7:
 398:Generated_Source\PSoC4/cyCapsense_1_Control.c **** 
 399:Generated_Source\PSoC4/cyCapsense_1_Control.c **** /*******************************************************************************
 400:Generated_Source\PSoC4/cyCapsense_1_Control.c **** * Function Name: cyCapsense_1_ProcessWidget
 401:Generated_Source\PSoC4/cyCapsense_1_Control.c **** ****************************************************************************//**
 402:Generated_Source\PSoC4/cyCapsense_1_Control.c **** *
 403:Generated_Source\PSoC4/cyCapsense_1_Control.c **** * \brief
 404:Generated_Source\PSoC4/cyCapsense_1_Control.c **** *  Performs full data processing of the specified widget if it is enabled.
 405:Generated_Source\PSoC4/cyCapsense_1_Control.c **** *
 406:Generated_Source\PSoC4/cyCapsense_1_Control.c **** * \details
 407:Generated_Source\PSoC4/cyCapsense_1_Control.c **** *  This function performs exactly the same tasks as
 408:Generated_Source\PSoC4/cyCapsense_1_Control.c **** *  cyCapsense_1_ProcessAllWidgets(), but only for a specified widget. This
 409:Generated_Source\PSoC4/cyCapsense_1_Control.c **** *  function can be used along with the cyCapsense_1_SetupWidget() and
 410:Generated_Source\PSoC4/cyCapsense_1_Control.c **** *  cyCapsense_1_Scan() functions to scan and process data for a specific
 411:Generated_Source\PSoC4/cyCapsense_1_Control.c **** *  widget. This function is called only after all the sensors in the
 412:Generated_Source\PSoC4/cyCapsense_1_Control.c **** *  widgets are scanned. A disabled widget is not processed by this function.
 413:Generated_Source\PSoC4/cyCapsense_1_Control.c **** *
 414:Generated_Source\PSoC4/cyCapsense_1_Control.c **** *  A pipeline scan method (i.e. during scanning of a widget perform processing
 415:Generated_Source\PSoC4/cyCapsense_1_Control.c **** *  of the previously scanned widget) can be implemented using this function and
 416:Generated_Source\PSoC4/cyCapsense_1_Control.c **** *  it may reduce the total execution time, increase the refresh rate and
 417:Generated_Source\PSoC4/cyCapsense_1_Control.c **** *  decrease the average power consumption.
 418:Generated_Source\PSoC4/cyCapsense_1_Control.c **** *
 419:Generated_Source\PSoC4/cyCapsense_1_Control.c **** *  If the Ballistic multiplier filter is enabled the Timestamp must be
 420:Generated_Source\PSoC4/cyCapsense_1_Control.c **** *  updated before calling this function using the
 421:Generated_Source\PSoC4/cyCapsense_1_Control.c **** *  cyCapsense_1_IncrementGestureTimestamp() function.
 422:Generated_Source\PSoC4/cyCapsense_1_Control.c **** *
 423:Generated_Source\PSoC4/cyCapsense_1_Control.c **** *  If the Self-test library is enabled, this function executes the baseline duplication
 424:Generated_Source\PSoC4/cyCapsense_1_Control.c **** *  test. Refer to cyCapsense_1_CheckBaselineDuplication() for details.
 425:Generated_Source\PSoC4/cyCapsense_1_Control.c **** *
 426:Generated_Source\PSoC4/cyCapsense_1_Control.c **** *  If the specified widget has enabled ballistic multiplier filter, make sure
 427:Generated_Source\PSoC4/cyCapsense_1_Control.c **** *  the timestamp is updated before calling this function. Use one of the following
 428:Generated_Source\PSoC4/cyCapsense_1_Control.c **** *  functions to update the timestamp:
 429:Generated_Source\PSoC4/cyCapsense_1_Control.c **** *  - cyCapsense_1_IncrementGestureTimestamp().
 430:Generated_Source\PSoC4/cyCapsense_1_Control.c **** *  - cyCapsense_1_SetGestureTimestamp().
 431:Generated_Source\PSoC4/cyCapsense_1_Control.c **** *
 432:Generated_Source\PSoC4/cyCapsense_1_Control.c **** * \param widgetId
 433:Generated_Source\PSoC4/cyCapsense_1_Control.c **** *  Specifies the ID number of the widget to be processed.
 434:Generated_Source\PSoC4/cyCapsense_1_Control.c **** *  A macro for the widget ID can be found in the
 435:Generated_Source\PSoC4/cyCapsense_1_Control.c **** *  cyCapsense_1 Configuration header file defined as
 436:Generated_Source\PSoC4/cyCapsense_1_Control.c **** *  cyCapsense_1_<WidgetName>_WDGT_ID
 437:Generated_Source\PSoC4/cyCapsense_1_Control.c **** *
 438:Generated_Source\PSoC4/cyCapsense_1_Control.c **** * \return
ARM GAS  C:\Users\turan\AppData\Local\Temp\ccb7TZhX.s 			page 14


 439:Generated_Source\PSoC4/cyCapsense_1_Control.c **** *  Returns the status of the widget processing:
 440:Generated_Source\PSoC4/cyCapsense_1_Control.c **** *  - CYRET_SUCCESS - The operation is successfully completed.
 441:Generated_Source\PSoC4/cyCapsense_1_Control.c **** *  - CYRET_BAD_PARAM - The input parameter is invalid.
 442:Generated_Source\PSoC4/cyCapsense_1_Control.c **** *  - CYRET_INVALID_STATE - The specified widget is disabled.
 443:Generated_Source\PSoC4/cyCapsense_1_Control.c **** *  - CYRET_BAD_DATA - The processing is failed.
 444:Generated_Source\PSoC4/cyCapsense_1_Control.c **** *
 445:Generated_Source\PSoC4/cyCapsense_1_Control.c **** *******************************************************************************/
 446:Generated_Source\PSoC4/cyCapsense_1_Control.c **** cystatus cyCapsense_1_ProcessWidget(uint32 widgetId)
 447:Generated_Source\PSoC4/cyCapsense_1_Control.c **** {
 290              		.loc 1 447 0
 291              		.cfi_startproc
 292              		@ args = 0, pretend = 0, frame = 0
 293              		@ frame_needed = 0, uses_anonymous_args = 0
 294              	.LVL30:
 295 0000 70B5     		push	{r4, r5, r6, lr}
 296              		.cfi_def_cfa_offset 16
 297              		.cfi_offset 4, -16
 298              		.cfi_offset 5, -12
 299              		.cfi_offset 6, -8
 300              		.cfi_offset 14, -4
 301 0002 051E     		subs	r5, r0, #0
 302              	.LVL31:
 448:Generated_Source\PSoC4/cyCapsense_1_Control.c ****     cystatus result = CYRET_SUCCESS;
 449:Generated_Source\PSoC4/cyCapsense_1_Control.c ****     cyCapsense_1_FLASH_WD_STRUCT const *ptrFlashWdgt;
 450:Generated_Source\PSoC4/cyCapsense_1_Control.c **** 
 451:Generated_Source\PSoC4/cyCapsense_1_Control.c ****     if (widgetId >= cyCapsense_1_TOTAL_WIDGETS)
 303              		.loc 1 451 0
 304 0004 01D1     		bne	.L27
 448:Generated_Source\PSoC4/cyCapsense_1_Control.c ****     cystatus result = CYRET_SUCCESS;
 305              		.loc 1 448 0
 306 0006 0024     		movs	r4, #0
 307 0008 00E0     		b	.L24
 308              	.L27:
 452:Generated_Source\PSoC4/cyCapsense_1_Control.c ****     {
 453:Generated_Source\PSoC4/cyCapsense_1_Control.c ****         result = CYRET_BAD_PARAM;
 309              		.loc 1 453 0
 310 000a 0124     		movs	r4, #1
 311              	.L24:
 312              	.LVL32:
 454:Generated_Source\PSoC4/cyCapsense_1_Control.c ****     }
 455:Generated_Source\PSoC4/cyCapsense_1_Control.c **** 
 456:Generated_Source\PSoC4/cyCapsense_1_Control.c ****     if ((CYRET_SUCCESS == result) && (0uL == cyCapsense_1_GET_WIDGET_EN_STATUS(widgetId)))
 313              		.loc 1 456 0
 314 000c 002C     		cmp	r4, #0
 315 000e 0AD1     		bne	.L25
 316              		.loc 1 456 0 is_stmt 0 discriminator 1
 317 0010 6B09     		lsrs	r3, r5, #5
 318 0012 0433     		adds	r3, r3, #4
 319 0014 9B00     		lsls	r3, r3, #2
 320 0016 0B4A     		ldr	r2, .L29
 321 0018 9B58     		ldr	r3, [r3, r2]
 322 001a 1F22     		movs	r2, #31
 323 001c 2A40     		ands	r2, r5
 324 001e D340     		lsrs	r3, r3, r2
 325 0020 DB07     		lsls	r3, r3, #31
 326 0022 00D4     		bmi	.L25
 457:Generated_Source\PSoC4/cyCapsense_1_Control.c ****     {
ARM GAS  C:\Users\turan\AppData\Local\Temp\ccb7TZhX.s 			page 15


 458:Generated_Source\PSoC4/cyCapsense_1_Control.c ****         result = CYRET_INVALID_STATE;
 327              		.loc 1 458 0 is_stmt 1
 328 0024 1134     		adds	r4, r4, #17
 329              	.LVL33:
 330              	.L25:
 459:Generated_Source\PSoC4/cyCapsense_1_Control.c ****     }
 460:Generated_Source\PSoC4/cyCapsense_1_Control.c **** 
 461:Generated_Source\PSoC4/cyCapsense_1_Control.c ****     if (CYRET_SUCCESS == result)
 331              		.loc 1 461 0
 332 0026 002C     		cmp	r4, #0
 333 0028 0AD1     		bne	.L26
 462:Generated_Source\PSoC4/cyCapsense_1_Control.c ****     {
 463:Generated_Source\PSoC4/cyCapsense_1_Control.c ****         ptrFlashWdgt = &cyCapsense_1_dsFlash.wdgtArray[widgetId];
 334              		.loc 1 463 0
 335 002a 6E01     		lsls	r6, r5, #5
 336 002c 064B     		ldr	r3, .L29+4
 337 002e F618     		adds	r6, r6, r3
 338              	.LVL34:
 464:Generated_Source\PSoC4/cyCapsense_1_Control.c **** 
 465:Generated_Source\PSoC4/cyCapsense_1_Control.c ****         switch(cyCapsense_1_GET_SENSE_METHOD(ptrFlashWdgt))
 466:Generated_Source\PSoC4/cyCapsense_1_Control.c ****         {
 467:Generated_Source\PSoC4/cyCapsense_1_Control.c ****         #if (0u != cyCapsense_1_TOTAL_CSD_WIDGETS)
 468:Generated_Source\PSoC4/cyCapsense_1_Control.c ****             case cyCapsense_1_SENSE_METHOD_CSD_E:
 469:Generated_Source\PSoC4/cyCapsense_1_Control.c ****                 result = cyCapsense_1_DpProcessCsdWidgetRawCounts(ptrFlashWdgt);
 339              		.loc 1 469 0
 340 0030 3000     		movs	r0, r6
 341              	.LVL35:
 342 0032 FFF7FEFF 		bl	cyCapsense_1_DpProcessCsdWidgetRawCounts
 343              	.LVL36:
 344 0036 0400     		movs	r4, r0
 345              	.LVL37:
 470:Generated_Source\PSoC4/cyCapsense_1_Control.c ****                 cyCapsense_1_DpProcessCsdWidgetStatus(widgetId, ptrFlashWdgt);
 346              		.loc 1 470 0
 347 0038 3100     		movs	r1, r6
 348 003a 2800     		movs	r0, r5
 349              	.LVL38:
 350 003c FFF7FEFF 		bl	cyCapsense_1_DpProcessCsdWidgetStatus
 351              	.LVL39:
 352              	.L26:
 471:Generated_Source\PSoC4/cyCapsense_1_Control.c ****                 break;
 472:Generated_Source\PSoC4/cyCapsense_1_Control.c ****         #endif /* #if (0u != cyCapsense_1_TOTAL_CSD_WIDGETS) */
 473:Generated_Source\PSoC4/cyCapsense_1_Control.c **** 
 474:Generated_Source\PSoC4/cyCapsense_1_Control.c ****         #if (0u != cyCapsense_1_TOTAL_CSX_WIDGETS)
 475:Generated_Source\PSoC4/cyCapsense_1_Control.c ****             case cyCapsense_1_SENSE_METHOD_CSX_E:
 476:Generated_Source\PSoC4/cyCapsense_1_Control.c ****                 result = cyCapsense_1_DpProcessCsxWidgetRawCounts(ptrFlashWdgt);
 477:Generated_Source\PSoC4/cyCapsense_1_Control.c ****                 cyCapsense_1_DpProcessCsxWidgetStatus(widgetId, ptrFlashWdgt);
 478:Generated_Source\PSoC4/cyCapsense_1_Control.c ****                 break;
 479:Generated_Source\PSoC4/cyCapsense_1_Control.c ****         #endif /* #if (0u != cyCapsense_1_TOTAL_CSX_WIDGETS) */
 480:Generated_Source\PSoC4/cyCapsense_1_Control.c **** 
 481:Generated_Source\PSoC4/cyCapsense_1_Control.c ****         #if (0u != cyCapsense_1_TOTAL_ISX_WIDGETS)
 482:Generated_Source\PSoC4/cyCapsense_1_Control.c ****             case cyCapsense_1_SENSE_METHOD_ISX_E:
 483:Generated_Source\PSoC4/cyCapsense_1_Control.c ****                 result = cyCapsense_1_DpProcessIsxWidgetRawCounts(ptrFlashWdgt);
 484:Generated_Source\PSoC4/cyCapsense_1_Control.c ****                 cyCapsense_1_DpProcessIsxWidgetStatus(widgetId, ptrFlashWdgt);
 485:Generated_Source\PSoC4/cyCapsense_1_Control.c ****                 break;
 486:Generated_Source\PSoC4/cyCapsense_1_Control.c ****         #endif /* #if (0u != cyCapsense_1_TOTAL_ISX_WIDGETS) */
 487:Generated_Source\PSoC4/cyCapsense_1_Control.c **** 
 488:Generated_Source\PSoC4/cyCapsense_1_Control.c ****         default:
ARM GAS  C:\Users\turan\AppData\Local\Temp\ccb7TZhX.s 			page 16


 489:Generated_Source\PSoC4/cyCapsense_1_Control.c ****             CYASSERT(0u);
 490:Generated_Source\PSoC4/cyCapsense_1_Control.c ****             break;
 491:Generated_Source\PSoC4/cyCapsense_1_Control.c ****         }
 492:Generated_Source\PSoC4/cyCapsense_1_Control.c **** 
 493:Generated_Source\PSoC4/cyCapsense_1_Control.c ****         #if (cyCapsense_1_ENABLE == cyCapsense_1_TST_BSLN_DUPLICATION_EN)
 494:Generated_Source\PSoC4/cyCapsense_1_Control.c ****             if (CYRET_SUCCESS != result)
 495:Generated_Source\PSoC4/cyCapsense_1_Control.c ****             {
 496:Generated_Source\PSoC4/cyCapsense_1_Control.c ****                 cyCapsense_1_UpdateTestResultBaselineDuplication(widgetId, result);
 497:Generated_Source\PSoC4/cyCapsense_1_Control.c ****                 result = CYRET_BAD_DATA;
 498:Generated_Source\PSoC4/cyCapsense_1_Control.c ****             }
 499:Generated_Source\PSoC4/cyCapsense_1_Control.c ****         #endif /* (cyCapsense_1_ENABLE == cyCapsense_1_TST_BSLN_DUPLICATION_EN) */
 500:Generated_Source\PSoC4/cyCapsense_1_Control.c ****     }
 501:Generated_Source\PSoC4/cyCapsense_1_Control.c ****     return result;
 502:Generated_Source\PSoC4/cyCapsense_1_Control.c **** }
 353              		.loc 1 502 0
 354 0040 2000     		movs	r0, r4
 355              		@ sp needed
 356              	.LVL40:
 357              	.LVL41:
 358 0042 70BD     		pop	{r4, r5, r6, pc}
 359              	.L30:
 360              		.align	2
 361              	.L29:
 362 0044 00000000 		.word	cyCapsense_1_dsRam
 363 0048 00000000 		.word	cyCapsense_1_dsFlash
 364              		.cfi_endproc
 365              	.LFE7:
 366              		.size	cyCapsense_1_ProcessWidget, .-cyCapsense_1_ProcessWidget
 367              		.section	.text.cyCapsense_1_ProcessWidgetExt,"ax",%progbits
 368              		.align	2
 369              		.global	cyCapsense_1_ProcessWidgetExt
 370              		.code	16
 371              		.thumb_func
 372              		.type	cyCapsense_1_ProcessWidgetExt, %function
 373              	cyCapsense_1_ProcessWidgetExt:
 374              	.LFB8:
 503:Generated_Source\PSoC4/cyCapsense_1_Control.c **** 
 504:Generated_Source\PSoC4/cyCapsense_1_Control.c **** 
 505:Generated_Source\PSoC4/cyCapsense_1_Control.c **** /*******************************************************************************
 506:Generated_Source\PSoC4/cyCapsense_1_Control.c **** * Function Name: cyCapsense_1_ProcessWidgetExt
 507:Generated_Source\PSoC4/cyCapsense_1_Control.c **** ****************************************************************************//**
 508:Generated_Source\PSoC4/cyCapsense_1_Control.c **** *
 509:Generated_Source\PSoC4/cyCapsense_1_Control.c **** * \brief
 510:Generated_Source\PSoC4/cyCapsense_1_Control.c **** *  Performs customized data processing on the selected widget.
 511:Generated_Source\PSoC4/cyCapsense_1_Control.c **** *
 512:Generated_Source\PSoC4/cyCapsense_1_Control.c **** * \details
 513:Generated_Source\PSoC4/cyCapsense_1_Control.c **** *  This function performs data processes for the specified widget specified by
 514:Generated_Source\PSoC4/cyCapsense_1_Control.c **** *  the mode parameter. The execution order of the requested operations is from
 515:Generated_Source\PSoC4/cyCapsense_1_Control.c **** *  LSB to MSB of the mode parameter. For a different order, this API
 516:Generated_Source\PSoC4/cyCapsense_1_Control.c **** *  can be called multiple times with the required mode parameter.
 517:Generated_Source\PSoC4/cyCapsense_1_Control.c **** *
 518:Generated_Source\PSoC4/cyCapsense_1_Control.c **** *  This function can be used with any of the available scan functions. This
 519:Generated_Source\PSoC4/cyCapsense_1_Control.c **** *  function is called only after all the sensors in the specified widget are
 520:Generated_Source\PSoC4/cyCapsense_1_Control.c **** *  scanned. Calling this function multiple times with the same mode without
 521:Generated_Source\PSoC4/cyCapsense_1_Control.c **** *  sensor scanning causes unexpected behavior. This function ignores the value
 522:Generated_Source\PSoC4/cyCapsense_1_Control.c **** *  of the wdgtEnable register.
 523:Generated_Source\PSoC4/cyCapsense_1_Control.c **** *  \if SECTION_C_LOW_LEVEL
ARM GAS  C:\Users\turan\AppData\Local\Temp\ccb7TZhX.s 			page 17


 524:Generated_Source\PSoC4/cyCapsense_1_Control.c **** *  The cyCapsense_1_PROCESS_CALC_NOISE and
 525:Generated_Source\PSoC4/cyCapsense_1_Control.c **** *  cyCapsense_1_PROCESS_THRESHOLDS flags are supported by the CSD sensing
 526:Generated_Source\PSoC4/cyCapsense_1_Control.c **** *  method only when Auto-tuning mode is enabled.
 527:Generated_Source\PSoC4/cyCapsense_1_Control.c **** *  \endif
 528:Generated_Source\PSoC4/cyCapsense_1_Control.c **** *  The pipeline scan method (i.e. during scanning of a widget, processing
 529:Generated_Source\PSoC4/cyCapsense_1_Control.c **** *  of a previously scanned widget is performed) can be implemented using this
 530:Generated_Source\PSoC4/cyCapsense_1_Control.c **** *  function and it may reduce the total scan/process time, increase the refresh
 531:Generated_Source\PSoC4/cyCapsense_1_Control.c **** *  rate and decrease the power consumption.
 532:Generated_Source\PSoC4/cyCapsense_1_Control.c **** *
 533:Generated_Source\PSoC4/cyCapsense_1_Control.c **** *  If the Ballistic multiplier filter is enabled the Timestamp must be
 534:Generated_Source\PSoC4/cyCapsense_1_Control.c **** *  updated before calling this function using the
 535:Generated_Source\PSoC4/cyCapsense_1_Control.c **** *  cyCapsense_1_IncrementGestureTimestamp() function.
 536:Generated_Source\PSoC4/cyCapsense_1_Control.c **** *
 537:Generated_Source\PSoC4/cyCapsense_1_Control.c **** *  If the Self-test library is enabled, this function executes the baseline duplication
 538:Generated_Source\PSoC4/cyCapsense_1_Control.c **** *  test. Refer to cyCapsense_1_CheckBaselineDuplication() for details.
 539:Generated_Source\PSoC4/cyCapsense_1_Control.c **** *
 540:Generated_Source\PSoC4/cyCapsense_1_Control.c **** *  If the specified widget has enabled ballistic multiplier filter, make sure
 541:Generated_Source\PSoC4/cyCapsense_1_Control.c **** *  the timestamp is updated before calling this function. Use one of the following
 542:Generated_Source\PSoC4/cyCapsense_1_Control.c **** *  functions to update the timestamp:
 543:Generated_Source\PSoC4/cyCapsense_1_Control.c **** *  - cyCapsense_1_IncrementGestureTimestamp().
 544:Generated_Source\PSoC4/cyCapsense_1_Control.c **** *  - cyCapsense_1_SetGestureTimestamp().
 545:Generated_Source\PSoC4/cyCapsense_1_Control.c **** *
 546:Generated_Source\PSoC4/cyCapsense_1_Control.c **** * \param widgetId
 547:Generated_Source\PSoC4/cyCapsense_1_Control.c **** *  Specifies the ID number of the widget to be processed.
 548:Generated_Source\PSoC4/cyCapsense_1_Control.c **** *  A macro for the widget ID can be found in the cyCapsense_1 Configuration header
 549:Generated_Source\PSoC4/cyCapsense_1_Control.c **** *  file defined as cyCapsense_1_<WidgetName>_WDGT_ID.
 550:Generated_Source\PSoC4/cyCapsense_1_Control.c **** 
 551:Generated_Source\PSoC4/cyCapsense_1_Control.c **** * \param mode
 552:Generated_Source\PSoC4/cyCapsense_1_Control.c **** *  Specifies the type of widget processing to be executed for the
 553:Generated_Source\PSoC4/cyCapsense_1_Control.c **** *  specified widget:
 554:Generated_Source\PSoC4/cyCapsense_1_Control.c **** *    1. Bits [31..6] - Reserved.
 555:Generated_Source\PSoC4/cyCapsense_1_Control.c **** *    2. Bits [5..0] - cyCapsense_1_PROCESS_ALL - Execute all the tasks.
 556:Generated_Source\PSoC4/cyCapsense_1_Control.c **** *    3. Bit [5] - cyCapsense_1_PROCESS_STATUS - Update the status (on/off,
 557:Generated_Source\PSoC4/cyCapsense_1_Control.c **** *       centroid position).
 558:Generated_Source\PSoC4/cyCapsense_1_Control.c **** *    \if SECTION_C_LOW_LEVEL
 559:Generated_Source\PSoC4/cyCapsense_1_Control.c **** *    4. Bit [4] - cyCapsense_1_PROCESS_THRESHOLDS - Update the thresholds
 560:Generated_Source\PSoC4/cyCapsense_1_Control.c **** *       (only in CSD auto-tuning mode).
 561:Generated_Source\PSoC4/cyCapsense_1_Control.c **** *    5. Bit [3] - cyCapsense_1_PROCESS_CALC_NOISE - Calculate the noise (only in
 562:Generated_Source\PSoC4/cyCapsense_1_Control.c **** *       CSD auto-tuning mode).
 563:Generated_Source\PSoC4/cyCapsense_1_Control.c **** *    \endif
 564:Generated_Source\PSoC4/cyCapsense_1_Control.c **** *    6. Bit [2] - cyCapsense_1_PROCESS_DIFFCOUNTS - Update the difference counts.
 565:Generated_Source\PSoC4/cyCapsense_1_Control.c **** *    7. Bit [1] - cyCapsense_1_PROCESS_BASELINE - Update the baselines.
 566:Generated_Source\PSoC4/cyCapsense_1_Control.c **** *    8. Bit [0] - cyCapsense_1_PROCESS_FILTER - Run the firmware filters.
 567:Generated_Source\PSoC4/cyCapsense_1_Control.c **** *
 568:Generated_Source\PSoC4/cyCapsense_1_Control.c **** * \return
 569:Generated_Source\PSoC4/cyCapsense_1_Control.c **** *  Returns the status of the widget processing operation:
 570:Generated_Source\PSoC4/cyCapsense_1_Control.c **** *  - CYRET_SUCCESS - The processing is successfully performed.
 571:Generated_Source\PSoC4/cyCapsense_1_Control.c **** *  - CYRET_BAD_PARAM - The input parameter is invalid.
 572:Generated_Source\PSoC4/cyCapsense_1_Control.c **** *  - CYRET_BAD_DATA - The processing is failed.
 573:Generated_Source\PSoC4/cyCapsense_1_Control.c **** *
 574:Generated_Source\PSoC4/cyCapsense_1_Control.c **** *******************************************************************************/
 575:Generated_Source\PSoC4/cyCapsense_1_Control.c **** cystatus cyCapsense_1_ProcessWidgetExt(uint32 widgetId, uint32 mode)
 576:Generated_Source\PSoC4/cyCapsense_1_Control.c **** {
 375              		.loc 1 576 0
 376              		.cfi_startproc
 377              		@ args = 0, pretend = 0, frame = 8
 378              		@ frame_needed = 0, uses_anonymous_args = 0
ARM GAS  C:\Users\turan\AppData\Local\Temp\ccb7TZhX.s 			page 18


 379              	.LVL42:
 380 0000 F0B5     		push	{r4, r5, r6, r7, lr}
 381              		.cfi_def_cfa_offset 20
 382              		.cfi_offset 4, -20
 383              		.cfi_offset 5, -16
 384              		.cfi_offset 6, -12
 385              		.cfi_offset 7, -8
 386              		.cfi_offset 14, -4
 387 0002 5F46     		mov	r7, fp
 388 0004 4646     		mov	r6, r8
 389 0006 C0B4     		push	{r6, r7}
 390              		.cfi_def_cfa_offset 28
 391              		.cfi_offset 8, -28
 392              		.cfi_offset 11, -24
 393 0008 83B0     		sub	sp, sp, #12
 394              		.cfi_def_cfa_offset 40
 395 000a 8346     		mov	fp, r0
 396 000c 0191     		str	r1, [sp, #4]
 397              	.LVL43:
 577:Generated_Source\PSoC4/cyCapsense_1_Control.c ****     uint32 snsCount;
 578:Generated_Source\PSoC4/cyCapsense_1_Control.c ****     cystatus result = CYRET_BAD_PARAM;
 579:Generated_Source\PSoC4/cyCapsense_1_Control.c ****     cyCapsense_1_FLASH_WD_STRUCT const *ptrFlashWdgt;
 580:Generated_Source\PSoC4/cyCapsense_1_Control.c ****     cyCapsense_1_PTR_FILTER_VARIANT fltrHistV;
 581:Generated_Source\PSoC4/cyCapsense_1_Control.c ****     cyCapsense_1_RAM_SNS_STRUCT *ptrSnsTmp;
 582:Generated_Source\PSoC4/cyCapsense_1_Control.c **** 
 583:Generated_Source\PSoC4/cyCapsense_1_Control.c ****     #if (0u != cyCapsense_1_TOTAL_CSD_WIDGETS)
 584:Generated_Source\PSoC4/cyCapsense_1_Control.c ****         uint32 isProxWdgt;
 585:Generated_Source\PSoC4/cyCapsense_1_Control.c ****     #endif
 586:Generated_Source\PSoC4/cyCapsense_1_Control.c **** 
 587:Generated_Source\PSoC4/cyCapsense_1_Control.c ****     if (widgetId < cyCapsense_1_TOTAL_WIDGETS)
 398              		.loc 1 587 0
 399 000e 0028     		cmp	r0, #0
 400 0010 28D1     		bne	.L37
 588:Generated_Source\PSoC4/cyCapsense_1_Control.c ****     {
 589:Generated_Source\PSoC4/cyCapsense_1_Control.c ****         ptrFlashWdgt = &cyCapsense_1_dsFlash.wdgtArray[widgetId];
 401              		.loc 1 589 0
 402 0012 4301     		lsls	r3, r0, #5
 403 0014 174A     		ldr	r2, .L39
 404 0016 9846     		mov	r8, r3
 405 0018 9044     		add	r8, r8, r2
 406              	.LVL44:
 590:Generated_Source\PSoC4/cyCapsense_1_Control.c ****         snsCount = cyCapsense_1_GET_SNS_CNT_BY_PTR(ptrFlashWdgt);
 407              		.loc 1 590 0
 408 001a 4346     		mov	r3, r8
 409 001c 1B8B     		ldrh	r3, [r3, #24]
 410              	.LVL45:
 591:Generated_Source\PSoC4/cyCapsense_1_Control.c ****         ptrSnsTmp = ptrFlashWdgt->ptr2SnsRam;
 411              		.loc 1 591 0
 412 001e 4246     		mov	r2, r8
 413 0020 9468     		ldr	r4, [r2, #8]
 414              	.LVL46:
 592:Generated_Source\PSoC4/cyCapsense_1_Control.c ****         fltrHistV.ptr = ptrFlashWdgt->ptr2FltrHistory;
 415              		.loc 1 592 0
 416 0022 D568     		ldr	r5, [r2, #12]
 417              	.LVL47:
 593:Generated_Source\PSoC4/cyCapsense_1_Control.c **** 
 594:Generated_Source\PSoC4/cyCapsense_1_Control.c ****         switch(cyCapsense_1_GET_SENSE_METHOD(ptrFlashWdgt))
ARM GAS  C:\Users\turan\AppData\Local\Temp\ccb7TZhX.s 			page 19


 595:Generated_Source\PSoC4/cyCapsense_1_Control.c ****         {
 596:Generated_Source\PSoC4/cyCapsense_1_Control.c ****         #if (0u != cyCapsense_1_TOTAL_CSD_WIDGETS)
 597:Generated_Source\PSoC4/cyCapsense_1_Control.c ****             case cyCapsense_1_SENSE_METHOD_CSD_E:
 598:Generated_Source\PSoC4/cyCapsense_1_Control.c ****             {
 599:Generated_Source\PSoC4/cyCapsense_1_Control.c ****                 /* Determine if widget is type of proximity.
 600:Generated_Source\PSoC4/cyCapsense_1_Control.c ****                  * The Proximity widgets use different filters and
 601:Generated_Source\PSoC4/cyCapsense_1_Control.c ****                  * therefore have different filter history object structure */
 602:Generated_Source\PSoC4/cyCapsense_1_Control.c ****                 isProxWdgt = (cyCapsense_1_GET_WIDGET_TYPE(ptrFlashWdgt) == cyCapsense_1_WD_PROXIMI
 418              		.loc 1 602 0
 419 0024 927E     		ldrb	r2, [r2, #26]
 420 0026 062A     		cmp	r2, #6
 421 0028 01D1     		bne	.L38
 422 002a 0126     		movs	r6, #1
 423 002c 00E0     		b	.L33
 424              	.L38:
 425 002e 0026     		movs	r6, #0
 426              	.L33:
 427              	.LVL48:
 578:Generated_Source\PSoC4/cyCapsense_1_Control.c ****     cyCapsense_1_FLASH_WD_STRUCT const *ptrFlashWdgt;
 428              		.loc 1 578 0 discriminator 4
 429 0030 0122     		movs	r2, #1
 430 0032 0092     		str	r2, [sp]
 603:Generated_Source\PSoC4/cyCapsense_1_Control.c **** 
 604:Generated_Source\PSoC4/cyCapsense_1_Control.c ****                 /* Run the desired processing for the all CSD widget sensors */
 605:Generated_Source\PSoC4/cyCapsense_1_Control.c ****                 for (;snsCount-- > 0u;)
 431              		.loc 1 605 0 discriminator 4
 432 0034 0BE0     		b	.L34
 433              	.LVL49:
 434              	.L36:
 606:Generated_Source\PSoC4/cyCapsense_1_Control.c ****                 {
 607:Generated_Source\PSoC4/cyCapsense_1_Control.c ****                     result = cyCapsense_1_DpProcessCsdSensorRawCountsExt(ptrFlashWdgt, ptrSnsTmp, f
 435              		.loc 1 607 0
 436 0036 019B     		ldr	r3, [sp, #4]
 437 0038 2A00     		movs	r2, r5
 438 003a 2100     		movs	r1, r4
 439 003c 4046     		mov	r0, r8
 440 003e FFF7FEFF 		bl	cyCapsense_1_DpProcessCsdSensorRawCountsExt
 441              	.LVL50:
 442 0042 0090     		str	r0, [sp]
 443              	.LVL51:
 608:Generated_Source\PSoC4/cyCapsense_1_Control.c **** 
 609:Generated_Source\PSoC4/cyCapsense_1_Control.c ****                     #if (cyCapsense_1_ENABLE == cyCapsense_1_TST_BSLN_DUPLICATION_EN)
 610:Generated_Source\PSoC4/cyCapsense_1_Control.c ****                         if (CYRET_SUCCESS != result)
 611:Generated_Source\PSoC4/cyCapsense_1_Control.c ****                         {
 612:Generated_Source\PSoC4/cyCapsense_1_Control.c ****                             result = (result | cyCapsense_1_TST_LSBYTE) & snsCount;
 613:Generated_Source\PSoC4/cyCapsense_1_Control.c ****                         }
 614:Generated_Source\PSoC4/cyCapsense_1_Control.c ****                     #endif /* (cyCapsense_1_ENABLE == cyCapsense_1_TST_BSLN_DUPLICATION_EN) */
 615:Generated_Source\PSoC4/cyCapsense_1_Control.c **** 
 616:Generated_Source\PSoC4/cyCapsense_1_Control.c ****                     /* Move to the next sensor and filter history objects */
 617:Generated_Source\PSoC4/cyCapsense_1_Control.c ****                     ptrSnsTmp++;
 444              		.loc 1 617 0
 445 0044 0A34     		adds	r4, r4, #10
 446              	.LVL52:
 618:Generated_Source\PSoC4/cyCapsense_1_Control.c ****                     cyCapsense_1_INC_FLTR_OBJ_VARIANT(isProxWdgt, fltrHistV);
 447              		.loc 1 618 0
 448 0046 002E     		cmp	r6, #0
 449 0048 00D1     		bne	.L35
ARM GAS  C:\Users\turan\AppData\Local\Temp\ccb7TZhX.s 			page 20


 450              		.loc 1 618 0 is_stmt 0 discriminator 1
 451 004a 0635     		adds	r5, r5, #6
 452              	.LVL53:
 453              	.L35:
 454 004c 3B00     		movs	r3, r7
 455              	.LVL54:
 456              	.L34:
 605:Generated_Source\PSoC4/cyCapsense_1_Control.c ****                 {
 457              		.loc 1 605 0 is_stmt 1
 458 004e 5F1E     		subs	r7, r3, #1
 459              	.LVL55:
 460 0050 002B     		cmp	r3, #0
 461 0052 F0D1     		bne	.L36
 619:Generated_Source\PSoC4/cyCapsense_1_Control.c ****                 }
 620:Generated_Source\PSoC4/cyCapsense_1_Control.c **** 
 621:Generated_Source\PSoC4/cyCapsense_1_Control.c ****                 if (0u != (mode & cyCapsense_1_PROCESS_STATUS))
 462              		.loc 1 621 0
 463 0054 019B     		ldr	r3, [sp, #4]
 464 0056 9B06     		lsls	r3, r3, #26
 465 0058 06D5     		bpl	.L32
 622:Generated_Source\PSoC4/cyCapsense_1_Control.c ****                 {
 623:Generated_Source\PSoC4/cyCapsense_1_Control.c ****                     cyCapsense_1_DpProcessCsdWidgetStatus(widgetId, ptrFlashWdgt);
 466              		.loc 1 623 0
 467 005a 4146     		mov	r1, r8
 468 005c 5846     		mov	r0, fp
 469 005e FFF7FEFF 		bl	cyCapsense_1_DpProcessCsdWidgetStatus
 470              	.LVL56:
 471 0062 01E0     		b	.L32
 472              	.LVL57:
 473              	.L37:
 578:Generated_Source\PSoC4/cyCapsense_1_Control.c ****     cyCapsense_1_FLASH_WD_STRUCT const *ptrFlashWdgt;
 474              		.loc 1 578 0
 475 0064 0123     		movs	r3, #1
 476 0066 0093     		str	r3, [sp]
 477              	.LVL58:
 478              	.L32:
 624:Generated_Source\PSoC4/cyCapsense_1_Control.c ****                 }
 625:Generated_Source\PSoC4/cyCapsense_1_Control.c ****                 break;
 626:Generated_Source\PSoC4/cyCapsense_1_Control.c ****             }
 627:Generated_Source\PSoC4/cyCapsense_1_Control.c ****         #endif /* #if (0u != cyCapsense_1_TOTAL_CSD_WIDGETS) */
 628:Generated_Source\PSoC4/cyCapsense_1_Control.c **** 
 629:Generated_Source\PSoC4/cyCapsense_1_Control.c ****         #if (0u != cyCapsense_1_TOTAL_CSX_WIDGETS)
 630:Generated_Source\PSoC4/cyCapsense_1_Control.c ****             case cyCapsense_1_SENSE_METHOD_CSX_E:
 631:Generated_Source\PSoC4/cyCapsense_1_Control.c **** 
 632:Generated_Source\PSoC4/cyCapsense_1_Control.c ****                 #if (0u != cyCapsense_1_CSX_MULTIPHASE_TX_EN)
 633:Generated_Source\PSoC4/cyCapsense_1_Control.c ****                     if ((0u != (mode & cyCapsense_1_PROCESS_DECONVOLUTION)) &&
 634:Generated_Source\PSoC4/cyCapsense_1_Control.c ****                         (0u != (ptrFlashWdgt->staticConfig & cyCapsense_1_MULTIPHASE_TX_MASK)))
 635:Generated_Source\PSoC4/cyCapsense_1_Control.c ****                     {
 636:Generated_Source\PSoC4/cyCapsense_1_Control.c ****                         cyCapsense_1_DpDeconvolution(ptrFlashWdgt);
 637:Generated_Source\PSoC4/cyCapsense_1_Control.c ****                     }
 638:Generated_Source\PSoC4/cyCapsense_1_Control.c ****                 #endif /* #if (0u != cyCapsense_1_CSX_MULTIPHASE_TX_EN) */
 639:Generated_Source\PSoC4/cyCapsense_1_Control.c **** 
 640:Generated_Source\PSoC4/cyCapsense_1_Control.c ****                 /* Run the desired processing for the all CSX widget sensors */
 641:Generated_Source\PSoC4/cyCapsense_1_Control.c ****                 for (;snsCount-- > 0u;)
 642:Generated_Source\PSoC4/cyCapsense_1_Control.c ****                 {
 643:Generated_Source\PSoC4/cyCapsense_1_Control.c ****                     result = cyCapsense_1_DpProcessCsxSensorRawCountsExt(ptrFlashWdgt, ptrSnsTmp, f
 644:Generated_Source\PSoC4/cyCapsense_1_Control.c **** 
ARM GAS  C:\Users\turan\AppData\Local\Temp\ccb7TZhX.s 			page 21


 645:Generated_Source\PSoC4/cyCapsense_1_Control.c ****                     #if (cyCapsense_1_ENABLE == cyCapsense_1_TST_BSLN_DUPLICATION_EN)
 646:Generated_Source\PSoC4/cyCapsense_1_Control.c ****                         if (CYRET_SUCCESS != result)
 647:Generated_Source\PSoC4/cyCapsense_1_Control.c ****                         {
 648:Generated_Source\PSoC4/cyCapsense_1_Control.c ****                             result = (result | cyCapsense_1_TST_LSBYTE) & snsCount;
 649:Generated_Source\PSoC4/cyCapsense_1_Control.c ****                         }
 650:Generated_Source\PSoC4/cyCapsense_1_Control.c ****                     #endif /* (cyCapsense_1_ENABLE == cyCapsense_1_TST_BSLN_DUPLICATION_EN) */
 651:Generated_Source\PSoC4/cyCapsense_1_Control.c **** 
 652:Generated_Source\PSoC4/cyCapsense_1_Control.c ****                     /* Move to the next sensor and filter history objects */
 653:Generated_Source\PSoC4/cyCapsense_1_Control.c ****                     ptrSnsTmp++;
 654:Generated_Source\PSoC4/cyCapsense_1_Control.c ****                     cyCapsense_1_INC_REG_FLTR_OBJ(fltrHistV);
 655:Generated_Source\PSoC4/cyCapsense_1_Control.c ****                 }
 656:Generated_Source\PSoC4/cyCapsense_1_Control.c **** 
 657:Generated_Source\PSoC4/cyCapsense_1_Control.c ****                 if (0u != (mode & cyCapsense_1_PROCESS_STATUS))
 658:Generated_Source\PSoC4/cyCapsense_1_Control.c ****                 {
 659:Generated_Source\PSoC4/cyCapsense_1_Control.c ****                     cyCapsense_1_DpProcessCsxWidgetStatus(widgetId, ptrFlashWdgt);
 660:Generated_Source\PSoC4/cyCapsense_1_Control.c ****                 }
 661:Generated_Source\PSoC4/cyCapsense_1_Control.c ****                 break;
 662:Generated_Source\PSoC4/cyCapsense_1_Control.c ****         #endif /* #if (0u != cyCapsense_1_TOTAL_CSX_WIDGETS) */
 663:Generated_Source\PSoC4/cyCapsense_1_Control.c **** 
 664:Generated_Source\PSoC4/cyCapsense_1_Control.c ****         #if (0u != cyCapsense_1_TOTAL_ISX_WIDGETS)
 665:Generated_Source\PSoC4/cyCapsense_1_Control.c ****             case cyCapsense_1_SENSE_METHOD_ISX_E:
 666:Generated_Source\PSoC4/cyCapsense_1_Control.c ****                 /* Run the desired processing for the all ISX widget sensors */
 667:Generated_Source\PSoC4/cyCapsense_1_Control.c ****                 for (;snsCount-- > 0u;)
 668:Generated_Source\PSoC4/cyCapsense_1_Control.c ****                 {
 669:Generated_Source\PSoC4/cyCapsense_1_Control.c ****                     result = cyCapsense_1_DpProcessIsxSensorRawCountsExt(ptrFlashWdgt, ptrSnsTmp, f
 670:Generated_Source\PSoC4/cyCapsense_1_Control.c **** 
 671:Generated_Source\PSoC4/cyCapsense_1_Control.c ****                     #if (cyCapsense_1_ENABLE == cyCapsense_1_TST_BSLN_DUPLICATION_EN)
 672:Generated_Source\PSoC4/cyCapsense_1_Control.c ****                         if (CYRET_SUCCESS != result)
 673:Generated_Source\PSoC4/cyCapsense_1_Control.c ****                         {
 674:Generated_Source\PSoC4/cyCapsense_1_Control.c ****                             result = (result | cyCapsense_1_TST_LSBYTE) & snsCount;
 675:Generated_Source\PSoC4/cyCapsense_1_Control.c ****                         }
 676:Generated_Source\PSoC4/cyCapsense_1_Control.c ****                     #endif /* (cyCapsense_1_ENABLE == cyCapsense_1_TST_BSLN_DUPLICATION_EN) */
 677:Generated_Source\PSoC4/cyCapsense_1_Control.c **** 
 678:Generated_Source\PSoC4/cyCapsense_1_Control.c ****                     /* Move to the next sensor and filter history objects */
 679:Generated_Source\PSoC4/cyCapsense_1_Control.c ****                     ptrSnsTmp++;
 680:Generated_Source\PSoC4/cyCapsense_1_Control.c ****                     cyCapsense_1_INC_REG_FLTR_OBJ(fltrHistV);
 681:Generated_Source\PSoC4/cyCapsense_1_Control.c ****                 }
 682:Generated_Source\PSoC4/cyCapsense_1_Control.c **** 
 683:Generated_Source\PSoC4/cyCapsense_1_Control.c ****                 if (0u != (mode & cyCapsense_1_PROCESS_STATUS))
 684:Generated_Source\PSoC4/cyCapsense_1_Control.c ****                 {
 685:Generated_Source\PSoC4/cyCapsense_1_Control.c ****                     cyCapsense_1_DpProcessIsxWidgetStatus(widgetId, ptrFlashWdgt);
 686:Generated_Source\PSoC4/cyCapsense_1_Control.c ****                 }
 687:Generated_Source\PSoC4/cyCapsense_1_Control.c ****                 break;
 688:Generated_Source\PSoC4/cyCapsense_1_Control.c ****         #endif /* #if (0u != cyCapsense_1_TOTAL_ISX_WIDGETS) */
 689:Generated_Source\PSoC4/cyCapsense_1_Control.c **** 
 690:Generated_Source\PSoC4/cyCapsense_1_Control.c ****         default:
 691:Generated_Source\PSoC4/cyCapsense_1_Control.c ****             CYASSERT(0u);
 692:Generated_Source\PSoC4/cyCapsense_1_Control.c ****             break;
 693:Generated_Source\PSoC4/cyCapsense_1_Control.c ****         }
 694:Generated_Source\PSoC4/cyCapsense_1_Control.c **** 
 695:Generated_Source\PSoC4/cyCapsense_1_Control.c ****         #if (cyCapsense_1_ENABLE == cyCapsense_1_TST_BSLN_DUPLICATION_EN)
 696:Generated_Source\PSoC4/cyCapsense_1_Control.c ****             if (CYRET_SUCCESS != result)
 697:Generated_Source\PSoC4/cyCapsense_1_Control.c ****             {
 698:Generated_Source\PSoC4/cyCapsense_1_Control.c ****                 cyCapsense_1_UpdateTestResultBaselineDuplication(widgetId, snsCount);
 699:Generated_Source\PSoC4/cyCapsense_1_Control.c ****                 result = CYRET_BAD_DATA;
 700:Generated_Source\PSoC4/cyCapsense_1_Control.c ****             }
 701:Generated_Source\PSoC4/cyCapsense_1_Control.c ****         #endif /* (cyCapsense_1_ENABLE == cyCapsense_1_TST_BSLN_DUPLICATION_EN) */
ARM GAS  C:\Users\turan\AppData\Local\Temp\ccb7TZhX.s 			page 22


 702:Generated_Source\PSoC4/cyCapsense_1_Control.c **** 
 703:Generated_Source\PSoC4/cyCapsense_1_Control.c ****     }
 704:Generated_Source\PSoC4/cyCapsense_1_Control.c ****     return result;
 705:Generated_Source\PSoC4/cyCapsense_1_Control.c **** }
 479              		.loc 1 705 0
 480 0068 0098     		ldr	r0, [sp]
 481 006a 03B0     		add	sp, sp, #12
 482              	.LVL59:
 483              		@ sp needed
 484              	.LVL60:
 485              	.LVL61:
 486 006c 0CBC     		pop	{r2, r3}
 487 006e 9046     		mov	r8, r2
 488 0070 9B46     		mov	fp, r3
 489 0072 F0BD     		pop	{r4, r5, r6, r7, pc}
 490              	.L40:
 491              		.align	2
 492              	.L39:
 493 0074 00000000 		.word	cyCapsense_1_dsFlash
 494              		.cfi_endproc
 495              	.LFE8:
 496              		.size	cyCapsense_1_ProcessWidgetExt, .-cyCapsense_1_ProcessWidgetExt
 497              		.section	.text.cyCapsense_1_ProcessSensorExt,"ax",%progbits
 498              		.align	2
 499              		.global	cyCapsense_1_ProcessSensorExt
 500              		.code	16
 501              		.thumb_func
 502              		.type	cyCapsense_1_ProcessSensorExt, %function
 503              	cyCapsense_1_ProcessSensorExt:
 504              	.LFB9:
 706:Generated_Source\PSoC4/cyCapsense_1_Control.c **** 
 707:Generated_Source\PSoC4/cyCapsense_1_Control.c **** /*******************************************************************************
 708:Generated_Source\PSoC4/cyCapsense_1_Control.c **** * Function Name: cyCapsense_1_ProcessSensorExt
 709:Generated_Source\PSoC4/cyCapsense_1_Control.c **** ****************************************************************************//**
 710:Generated_Source\PSoC4/cyCapsense_1_Control.c **** *
 711:Generated_Source\PSoC4/cyCapsense_1_Control.c **** * \brief
 712:Generated_Source\PSoC4/cyCapsense_1_Control.c **** *  Performs customized data processing on the selected widget's sensor.
 713:Generated_Source\PSoC4/cyCapsense_1_Control.c **** *
 714:Generated_Source\PSoC4/cyCapsense_1_Control.c **** * \details
 715:Generated_Source\PSoC4/cyCapsense_1_Control.c **** *  This function performs data processes for the specified sensor specified by
 716:Generated_Source\PSoC4/cyCapsense_1_Control.c **** *  the mode parameter. The execution order of the requested operations is from
 717:Generated_Source\PSoC4/cyCapsense_1_Control.c **** *  LSB to MSB of the mode parameter. For a different order, this
 718:Generated_Source\PSoC4/cyCapsense_1_Control.c **** *  function can be called multiple times with the required mode parameter.
 719:Generated_Source\PSoC4/cyCapsense_1_Control.c **** *
 720:Generated_Source\PSoC4/cyCapsense_1_Control.c **** *  This function can be used with any of the available scan functions. This
 721:Generated_Source\PSoC4/cyCapsense_1_Control.c **** *  function is called only after a specified sensor in the widget is
 722:Generated_Source\PSoC4/cyCapsense_1_Control.c **** *  scanned. Calling this function multiple times with the same mode without
 723:Generated_Source\PSoC4/cyCapsense_1_Control.c **** *  sensor scanning causes unexpected behavior. This function ignores the value
 724:Generated_Source\PSoC4/cyCapsense_1_Control.c **** *  of the wdgtEnable register.
 725:Generated_Source\PSoC4/cyCapsense_1_Control.c **** *
 726:Generated_Source\PSoC4/cyCapsense_1_Control.c **** *  \if SECTION_C_LOW_LEVEL
 727:Generated_Source\PSoC4/cyCapsense_1_Control.c **** *  The cyCapsense_1_PROCESS_CALC_NOISE and
 728:Generated_Source\PSoC4/cyCapsense_1_Control.c **** *  cyCapsense_1_PROCESS_THRESHOLDS flags are supported by the CSD sensing
 729:Generated_Source\PSoC4/cyCapsense_1_Control.c **** *  method only when Auto-tuning mode is enabled.
 730:Generated_Source\PSoC4/cyCapsense_1_Control.c **** *  \endif
 731:Generated_Source\PSoC4/cyCapsense_1_Control.c **** *
 732:Generated_Source\PSoC4/cyCapsense_1_Control.c **** *  The pipeline scan method (i.e. during scanning of a sensor, processing
ARM GAS  C:\Users\turan\AppData\Local\Temp\ccb7TZhX.s 			page 23


 733:Generated_Source\PSoC4/cyCapsense_1_Control.c **** *  of a previously scanned sensor is performed) can be implemented using this
 734:Generated_Source\PSoC4/cyCapsense_1_Control.c **** *  function and it may reduce the total scan/process time, increase the refresh
 735:Generated_Source\PSoC4/cyCapsense_1_Control.c **** *  rate and decrease the power consumption.
 736:Generated_Source\PSoC4/cyCapsense_1_Control.c **** *
 737:Generated_Source\PSoC4/cyCapsense_1_Control.c **** *  If the Self-test library is enabled, this function executes the baseline duplication
 738:Generated_Source\PSoC4/cyCapsense_1_Control.c **** *  test. Refer to cyCapsense_1_CheckBaselineDuplication() for details.
 739:Generated_Source\PSoC4/cyCapsense_1_Control.c **** *
 740:Generated_Source\PSoC4/cyCapsense_1_Control.c **** * \param widgetId
 741:Generated_Source\PSoC4/cyCapsense_1_Control.c **** *  Specifies the ID number of the widget to process one of its sensors.
 742:Generated_Source\PSoC4/cyCapsense_1_Control.c **** *  A macro for the widget ID can be found in the
 743:Generated_Source\PSoC4/cyCapsense_1_Control.c **** *  cyCapsense_1 Configuration header file defined as
 744:Generated_Source\PSoC4/cyCapsense_1_Control.c **** *  cyCapsense_1_<WidgetName>_WDGT_ID.
 745:Generated_Source\PSoC4/cyCapsense_1_Control.c **** *
 746:Generated_Source\PSoC4/cyCapsense_1_Control.c **** * \param sensorId
 747:Generated_Source\PSoC4/cyCapsense_1_Control.c **** *  Specifies the ID number of the sensor within the widget to process it.
 748:Generated_Source\PSoC4/cyCapsense_1_Control.c **** *  A macro for the sensor ID within a specified widget can be found in the
 749:Generated_Source\PSoC4/cyCapsense_1_Control.c **** *  cyCapsense_1 Configuration header file defined as
 750:Generated_Source\PSoC4/cyCapsense_1_Control.c **** *  cyCapsense_1_<WidgetName>_SNS<SensorNumber>_ID.
 751:Generated_Source\PSoC4/cyCapsense_1_Control.c **** *
 752:Generated_Source\PSoC4/cyCapsense_1_Control.c **** * \param mode
 753:Generated_Source\PSoC4/cyCapsense_1_Control.c **** *  Specifies the type of the sensor processing that needs to be executed for the
 754:Generated_Source\PSoC4/cyCapsense_1_Control.c **** *  specified sensor:
 755:Generated_Source\PSoC4/cyCapsense_1_Control.c **** *    1. Bits [31..5] - Reserved.
 756:Generated_Source\PSoC4/cyCapsense_1_Control.c **** *    2. Bits [4..0] - cyCapsense_1_PROCESS_ALL - Executes all the tasks.
 757:Generated_Source\PSoC4/cyCapsense_1_Control.c **** *    \if SECTION_C_LOW_LEVEL
 758:Generated_Source\PSoC4/cyCapsense_1_Control.c **** *    3. Bit [4] - cyCapsense_1_PROCESS_THRESHOLDS - Updates the thresholds (only
 759:Generated_Source\PSoC4/cyCapsense_1_Control.c **** *       in auto-tuning mode).
 760:Generated_Source\PSoC4/cyCapsense_1_Control.c **** *    4. Bit [3] - cyCapsense_1_PROCESS_CALC_NOISE - Calculates the noise (only
 761:Generated_Source\PSoC4/cyCapsense_1_Control.c **** *       in auto-tuning mode).
 762:Generated_Source\PSoC4/cyCapsense_1_Control.c **** *    \endif
 763:Generated_Source\PSoC4/cyCapsense_1_Control.c **** *    5. Bit [2] - cyCapsense_1_PROCESS_DIFFCOUNTS - Updates the difference count.
 764:Generated_Source\PSoC4/cyCapsense_1_Control.c **** *    6. Bit [1] - cyCapsense_1_PROCESS_BASELINE - Updates the baseline.
 765:Generated_Source\PSoC4/cyCapsense_1_Control.c **** *    7. Bit [0] - cyCapsense_1_PROCESS_FILTER - Runs the firmware filters.
 766:Generated_Source\PSoC4/cyCapsense_1_Control.c **** *
 767:Generated_Source\PSoC4/cyCapsense_1_Control.c **** * \return
 768:Generated_Source\PSoC4/cyCapsense_1_Control.c **** *  Returns the status of the sensor process operation:
 769:Generated_Source\PSoC4/cyCapsense_1_Control.c **** *  - CYRET_SUCCESS - The processing is successfully performed.
 770:Generated_Source\PSoC4/cyCapsense_1_Control.c **** *  - CYRET_BAD_PARAM - The input parameter is invalid.
 771:Generated_Source\PSoC4/cyCapsense_1_Control.c **** *  - CYRET_BAD_DATA - The processing is failed.
 772:Generated_Source\PSoC4/cyCapsense_1_Control.c **** *
 773:Generated_Source\PSoC4/cyCapsense_1_Control.c **** *******************************************************************************/
 774:Generated_Source\PSoC4/cyCapsense_1_Control.c **** cystatus cyCapsense_1_ProcessSensorExt(uint32 widgetId, uint32 sensorId, uint32 mode)
 775:Generated_Source\PSoC4/cyCapsense_1_Control.c **** {
 505              		.loc 1 775 0
 506              		.cfi_startproc
 507              		@ args = 0, pretend = 0, frame = 0
 508              		@ frame_needed = 0, uses_anonymous_args = 0
 509              	.LVL62:
 510 0000 F8B5     		push	{r3, r4, r5, r6, r7, lr}
 511              		.cfi_def_cfa_offset 24
 512              		.cfi_offset 3, -24
 513              		.cfi_offset 4, -20
 514              		.cfi_offset 5, -16
 515              		.cfi_offset 6, -12
 516              		.cfi_offset 7, -8
 517              		.cfi_offset 14, -4
 518              	.LVL63:
ARM GAS  C:\Users\turan\AppData\Local\Temp\ccb7TZhX.s 			page 24


 776:Generated_Source\PSoC4/cyCapsense_1_Control.c ****     cystatus result = CYRET_BAD_PARAM;
 777:Generated_Source\PSoC4/cyCapsense_1_Control.c ****     cyCapsense_1_FLASH_WD_STRUCT const *ptrFlashWdgt;
 778:Generated_Source\PSoC4/cyCapsense_1_Control.c ****     cyCapsense_1_PTR_FILTER_VARIANT fltrHistV;
 779:Generated_Source\PSoC4/cyCapsense_1_Control.c ****     cyCapsense_1_RAM_SNS_STRUCT *ptrSnsTmp;
 780:Generated_Source\PSoC4/cyCapsense_1_Control.c **** 
 781:Generated_Source\PSoC4/cyCapsense_1_Control.c ****     if ((widgetId < cyCapsense_1_TOTAL_WIDGETS) && (sensorId < cyCapsense_1_GET_SENSOR_COUNT(widget
 519              		.loc 1 781 0
 520 0002 0028     		cmp	r0, #0
 521 0004 1AD1     		bne	.L44
 522              		.loc 1 781 0 is_stmt 0 discriminator 1
 523 0006 4401     		lsls	r4, r0, #5
 524 0008 0E4B     		ldr	r3, .L46
 525 000a 1C19     		adds	r4, r3, r4
 526 000c 238B     		ldrh	r3, [r4, #24]
 527 000e 8B42     		cmp	r3, r1
 528 0010 16D9     		bls	.L45
 529              	.LVL64:
 782:Generated_Source\PSoC4/cyCapsense_1_Control.c ****     {
 783:Generated_Source\PSoC4/cyCapsense_1_Control.c ****         result = CYRET_SUCCESS;
 784:Generated_Source\PSoC4/cyCapsense_1_Control.c **** 
 785:Generated_Source\PSoC4/cyCapsense_1_Control.c ****         ptrFlashWdgt = &cyCapsense_1_dsFlash.wdgtArray[widgetId];
 530              		.loc 1 785 0 is_stmt 1
 531 0012 2000     		movs	r0, r4
 532              	.LVL65:
 786:Generated_Source\PSoC4/cyCapsense_1_Control.c ****         fltrHistV.ptr = ptrFlashWdgt->ptr2FltrHistory;
 533              		.loc 1 786 0
 534 0014 E768     		ldr	r7, [r4, #12]
 535 0016 3E00     		movs	r6, r7
 536              	.LVL66:
 787:Generated_Source\PSoC4/cyCapsense_1_Control.c ****         ptrSnsTmp = ptrFlashWdgt->ptr2SnsRam;
 788:Generated_Source\PSoC4/cyCapsense_1_Control.c ****         ptrSnsTmp += sensorId;
 537              		.loc 1 788 0
 538 0018 8C00     		lsls	r4, r1, #2
 539 001a 6418     		adds	r4, r4, r1
 540 001c 6300     		lsls	r3, r4, #1
 541 001e 8468     		ldr	r4, [r0, #8]
 542 0020 E518     		adds	r5, r4, r3
 543              	.LVL67:
 789:Generated_Source\PSoC4/cyCapsense_1_Control.c **** 
 790:Generated_Source\PSoC4/cyCapsense_1_Control.c ****         switch(cyCapsense_1_GET_SENSE_METHOD(ptrFlashWdgt))
 791:Generated_Source\PSoC4/cyCapsense_1_Control.c ****         {
 792:Generated_Source\PSoC4/cyCapsense_1_Control.c ****         #if (0u != cyCapsense_1_TOTAL_CSD_WIDGETS)
 793:Generated_Source\PSoC4/cyCapsense_1_Control.c ****             case cyCapsense_1_SENSE_METHOD_CSD_E:
 794:Generated_Source\PSoC4/cyCapsense_1_Control.c ****                 if (cyCapsense_1_WD_PROXIMITY_E == (cyCapsense_1_WD_TYPE_ENUM)ptrFlashWdgt->wdgtTyp
 544              		.loc 1 794 0
 545 0022 837E     		ldrb	r3, [r0, #26]
 546 0024 062B     		cmp	r3, #6
 547 0026 03D0     		beq	.L43
 795:Generated_Source\PSoC4/cyCapsense_1_Control.c ****                 {
 796:Generated_Source\PSoC4/cyCapsense_1_Control.c ****                     #if (0u != cyCapsense_1_PROX_RC_ALP_FILTER_EN)
 797:Generated_Source\PSoC4/cyCapsense_1_Control.c ****                         fltrHistV.ptr = &fltrHistV.ptrAlp[sensorId];
 798:Generated_Source\PSoC4/cyCapsense_1_Control.c ****                     #elif (0u != cyCapsense_1_PROX_RC_FILTER_EN)
 799:Generated_Source\PSoC4/cyCapsense_1_Control.c ****                         fltrHistV.ptr = &fltrHistV.ptrProx[sensorId];
 800:Generated_Source\PSoC4/cyCapsense_1_Control.c ****                     #endif
 801:Generated_Source\PSoC4/cyCapsense_1_Control.c ****                 }
 802:Generated_Source\PSoC4/cyCapsense_1_Control.c ****                 else
 803:Generated_Source\PSoC4/cyCapsense_1_Control.c ****                 {
ARM GAS  C:\Users\turan\AppData\Local\Temp\ccb7TZhX.s 			page 25


 804:Generated_Source\PSoC4/cyCapsense_1_Control.c ****                     #if (0u != cyCapsense_1_REGULAR_RC_ALP_FILTER_EN)
 805:Generated_Source\PSoC4/cyCapsense_1_Control.c ****                         fltrHistV.ptr = &fltrHistV.ptrAlp[sensorId];
 806:Generated_Source\PSoC4/cyCapsense_1_Control.c ****                     #elif (0u != cyCapsense_1_REGULAR_RC_FILTER_EN)
 807:Generated_Source\PSoC4/cyCapsense_1_Control.c ****                         fltrHistV.ptr = &fltrHistV.ptrRegular[sensorId];
 548              		.loc 1 807 0
 549 0028 4C00     		lsls	r4, r1, #1
 550 002a 6418     		adds	r4, r4, r1
 551 002c 6600     		lsls	r6, r4, #1
 552 002e BE19     		adds	r6, r7, r6
 553              	.L43:
 808:Generated_Source\PSoC4/cyCapsense_1_Control.c ****                     #endif
 809:Generated_Source\PSoC4/cyCapsense_1_Control.c ****                 }
 810:Generated_Source\PSoC4/cyCapsense_1_Control.c **** 
 811:Generated_Source\PSoC4/cyCapsense_1_Control.c ****                 result = cyCapsense_1_DpProcessCsdSensorRawCountsExt(ptrFlashWdgt, ptrSnsTmp, fltrH
 554              		.loc 1 811 0
 555 0030 1300     		movs	r3, r2
 556              	.LVL68:
 557 0032 3200     		movs	r2, r6
 558              	.LVL69:
 559 0034 2900     		movs	r1, r5
 560              	.LVL70:
 561 0036 FFF7FEFF 		bl	cyCapsense_1_DpProcessCsdSensorRawCountsExt
 562              	.LVL71:
 812:Generated_Source\PSoC4/cyCapsense_1_Control.c ****                 break;
 563              		.loc 1 812 0
 564 003a 02E0     		b	.L42
 565              	.LVL72:
 566              	.L44:
 776:Generated_Source\PSoC4/cyCapsense_1_Control.c ****     cyCapsense_1_FLASH_WD_STRUCT const *ptrFlashWdgt;
 567              		.loc 1 776 0
 568 003c 0120     		movs	r0, #1
 569              	.LVL73:
 570 003e 00E0     		b	.L42
 571              	.LVL74:
 572              	.L45:
 573 0040 0120     		movs	r0, #1
 574              	.LVL75:
 575              	.L42:
 813:Generated_Source\PSoC4/cyCapsense_1_Control.c ****         #endif /* #if (0u != cyCapsense_1_TOTAL_CSD_WIDGETS) */
 814:Generated_Source\PSoC4/cyCapsense_1_Control.c **** 
 815:Generated_Source\PSoC4/cyCapsense_1_Control.c ****         #if (0u != cyCapsense_1_TOTAL_CSX_WIDGETS)
 816:Generated_Source\PSoC4/cyCapsense_1_Control.c ****             case cyCapsense_1_SENSE_METHOD_CSX_E:
 817:Generated_Source\PSoC4/cyCapsense_1_Control.c ****                 #if (0u != cyCapsense_1_REGULAR_RC_ALP_FILTER_EN)
 818:Generated_Source\PSoC4/cyCapsense_1_Control.c ****                     fltrHistV.ptr = &fltrHistV.ptrAlp[sensorId];
 819:Generated_Source\PSoC4/cyCapsense_1_Control.c ****                 #elif (0u != cyCapsense_1_REGULAR_RC_FILTER_EN)
 820:Generated_Source\PSoC4/cyCapsense_1_Control.c ****                     fltrHistV.ptr = &fltrHistV.ptrRegular[sensorId];
 821:Generated_Source\PSoC4/cyCapsense_1_Control.c ****                 #endif
 822:Generated_Source\PSoC4/cyCapsense_1_Control.c **** 
 823:Generated_Source\PSoC4/cyCapsense_1_Control.c ****                 result = cyCapsense_1_DpProcessCsxSensorRawCountsExt(ptrFlashWdgt, ptrSnsTmp, fltrH
 824:Generated_Source\PSoC4/cyCapsense_1_Control.c ****                 break;
 825:Generated_Source\PSoC4/cyCapsense_1_Control.c ****         #endif /* #if (0u != cyCapsense_1_TOTAL_CSX_WIDGETS) */
 826:Generated_Source\PSoC4/cyCapsense_1_Control.c **** 
 827:Generated_Source\PSoC4/cyCapsense_1_Control.c ****         #if (0u != cyCapsense_1_TOTAL_ISX_WIDGETS)
 828:Generated_Source\PSoC4/cyCapsense_1_Control.c ****             case cyCapsense_1_SENSE_METHOD_ISX_E:
 829:Generated_Source\PSoC4/cyCapsense_1_Control.c ****                 if (cyCapsense_1_WD_PROXIMITY_E == (cyCapsense_1_WD_TYPE_ENUM)ptrFlashWdgt->wdgtTyp
 830:Generated_Source\PSoC4/cyCapsense_1_Control.c ****                 {
 831:Generated_Source\PSoC4/cyCapsense_1_Control.c ****                     #if (0u != cyCapsense_1_PROX_RC_FILTER_EN)
ARM GAS  C:\Users\turan\AppData\Local\Temp\ccb7TZhX.s 			page 26


 832:Generated_Source\PSoC4/cyCapsense_1_Control.c ****                         fltrHistV.ptr = &fltrHistV.ptrProx[sensorId];
 833:Generated_Source\PSoC4/cyCapsense_1_Control.c ****                     #endif /* #if (0u != cyCapsense_1_PROX_RC_FILTER_EN) */
 834:Generated_Source\PSoC4/cyCapsense_1_Control.c ****                 }
 835:Generated_Source\PSoC4/cyCapsense_1_Control.c ****                 else
 836:Generated_Source\PSoC4/cyCapsense_1_Control.c ****                 {
 837:Generated_Source\PSoC4/cyCapsense_1_Control.c ****                     #if (0u != cyCapsense_1_REGULAR_RC_FILTER_EN)
 838:Generated_Source\PSoC4/cyCapsense_1_Control.c ****                         fltrHistV.ptr = &fltrHistV.ptrRegular[sensorId];
 839:Generated_Source\PSoC4/cyCapsense_1_Control.c ****                     #endif /* #if (0u != cyCapsense_1_REGULAR_RC_FILTER_EN) */
 840:Generated_Source\PSoC4/cyCapsense_1_Control.c ****                 }
 841:Generated_Source\PSoC4/cyCapsense_1_Control.c **** 
 842:Generated_Source\PSoC4/cyCapsense_1_Control.c ****                 result = cyCapsense_1_DpProcessIsxSensorRawCountsExt(ptrFlashWdgt, ptrSnsTmp, fltrH
 843:Generated_Source\PSoC4/cyCapsense_1_Control.c ****                 break;
 844:Generated_Source\PSoC4/cyCapsense_1_Control.c ****         #endif /* #if (0u != cyCapsense_1_TOTAL_ISX_WIDGETS) */
 845:Generated_Source\PSoC4/cyCapsense_1_Control.c **** 
 846:Generated_Source\PSoC4/cyCapsense_1_Control.c ****         default:
 847:Generated_Source\PSoC4/cyCapsense_1_Control.c ****             CYASSERT(0u);
 848:Generated_Source\PSoC4/cyCapsense_1_Control.c ****             break;
 849:Generated_Source\PSoC4/cyCapsense_1_Control.c ****         }
 850:Generated_Source\PSoC4/cyCapsense_1_Control.c **** 
 851:Generated_Source\PSoC4/cyCapsense_1_Control.c ****         #if (cyCapsense_1_ENABLE == cyCapsense_1_TST_BSLN_DUPLICATION_EN)
 852:Generated_Source\PSoC4/cyCapsense_1_Control.c ****             if (CYRET_SUCCESS != result)
 853:Generated_Source\PSoC4/cyCapsense_1_Control.c ****             {
 854:Generated_Source\PSoC4/cyCapsense_1_Control.c ****                 cyCapsense_1_UpdateTestResultBaselineDuplication(widgetId, sensorId);
 855:Generated_Source\PSoC4/cyCapsense_1_Control.c ****                 result = CYRET_BAD_DATA;
 856:Generated_Source\PSoC4/cyCapsense_1_Control.c ****             }
 857:Generated_Source\PSoC4/cyCapsense_1_Control.c ****         #endif /* (cyCapsense_1_ENABLE == cyCapsense_1_TST_BSLN_DUPLICATION_EN) */
 858:Generated_Source\PSoC4/cyCapsense_1_Control.c **** 
 859:Generated_Source\PSoC4/cyCapsense_1_Control.c ****     }
 860:Generated_Source\PSoC4/cyCapsense_1_Control.c ****     return result;
 861:Generated_Source\PSoC4/cyCapsense_1_Control.c **** }
 576              		.loc 1 861 0
 577              		@ sp needed
 578              	.LVL76:
 579 0042 F8BD     		pop	{r3, r4, r5, r6, r7, pc}
 580              	.L47:
 581              		.align	2
 582              	.L46:
 583 0044 00000000 		.word	cyCapsense_1_dsFlash
 584              		.cfi_endproc
 585              	.LFE9:
 586              		.size	cyCapsense_1_ProcessSensorExt, .-cyCapsense_1_ProcessSensorExt
 587              		.section	.text.cyCapsense_1_Sleep,"ax",%progbits
 588              		.align	2
 589              		.global	cyCapsense_1_Sleep
 590              		.code	16
 591              		.thumb_func
 592              		.type	cyCapsense_1_Sleep, %function
 593              	cyCapsense_1_Sleep:
 594              	.LFB10:
 862:Generated_Source\PSoC4/cyCapsense_1_Control.c **** 
 863:Generated_Source\PSoC4/cyCapsense_1_Control.c **** /*******************************************************************************
 864:Generated_Source\PSoC4/cyCapsense_1_Control.c **** * Function Name: cyCapsense_1_Sleep
 865:Generated_Source\PSoC4/cyCapsense_1_Control.c **** ****************************************************************************//**
 866:Generated_Source\PSoC4/cyCapsense_1_Control.c **** *
 867:Generated_Source\PSoC4/cyCapsense_1_Control.c **** * \brief
 868:Generated_Source\PSoC4/cyCapsense_1_Control.c **** *  Prepares the Component for deep sleep.
 869:Generated_Source\PSoC4/cyCapsense_1_Control.c **** *
ARM GAS  C:\Users\turan\AppData\Local\Temp\ccb7TZhX.s 			page 27


 870:Generated_Source\PSoC4/cyCapsense_1_Control.c **** * \details
 871:Generated_Source\PSoC4/cyCapsense_1_Control.c **** *  Currently this function is empty and exists as a place for future updates,
 872:Generated_Source\PSoC4/cyCapsense_1_Control.c **** *  this function will be used to prepare the Component to enter deep sleep.
 873:Generated_Source\PSoC4/cyCapsense_1_Control.c **** *
 874:Generated_Source\PSoC4/cyCapsense_1_Control.c **** *******************************************************************************/
 875:Generated_Source\PSoC4/cyCapsense_1_Control.c **** void cyCapsense_1_Sleep(void)
 876:Generated_Source\PSoC4/cyCapsense_1_Control.c **** {
 595              		.loc 1 876 0
 596              		.cfi_startproc
 597              		@ args = 0, pretend = 0, frame = 0
 598              		@ frame_needed = 0, uses_anonymous_args = 0
 599              		@ link register save eliminated.
 877:Generated_Source\PSoC4/cyCapsense_1_Control.c **** }
 600              		.loc 1 877 0
 601              		@ sp needed
 602 0000 7047     		bx	lr
 603              		.cfi_endproc
 604              	.LFE10:
 605              		.size	cyCapsense_1_Sleep, .-cyCapsense_1_Sleep
 606 0002 C046     		.section	.text.cyCapsense_1_Wakeup,"ax",%progbits
 607              		.align	2
 608              		.global	cyCapsense_1_Wakeup
 609              		.code	16
 610              		.thumb_func
 611              		.type	cyCapsense_1_Wakeup, %function
 612              	cyCapsense_1_Wakeup:
 613              	.LFB11:
 878:Generated_Source\PSoC4/cyCapsense_1_Control.c **** 
 879:Generated_Source\PSoC4/cyCapsense_1_Control.c **** 
 880:Generated_Source\PSoC4/cyCapsense_1_Control.c **** /*******************************************************************************
 881:Generated_Source\PSoC4/cyCapsense_1_Control.c **** * Function Name: cyCapsense_1_Wakeup
 882:Generated_Source\PSoC4/cyCapsense_1_Control.c **** ****************************************************************************//**
 883:Generated_Source\PSoC4/cyCapsense_1_Control.c **** *
 884:Generated_Source\PSoC4/cyCapsense_1_Control.c **** * \brief
 885:Generated_Source\PSoC4/cyCapsense_1_Control.c **** *  Resumes the Component after deep sleep power mode.
 886:Generated_Source\PSoC4/cyCapsense_1_Control.c **** *
 887:Generated_Source\PSoC4/cyCapsense_1_Control.c **** * \details
 888:Generated_Source\PSoC4/cyCapsense_1_Control.c **** *  Resumes the Component after deep sleep power mode. This function is used to
 889:Generated_Source\PSoC4/cyCapsense_1_Control.c **** *  resume the Component after exiting deep sleep.
 890:Generated_Source\PSoC4/cyCapsense_1_Control.c **** *
 891:Generated_Source\PSoC4/cyCapsense_1_Control.c **** *******************************************************************************/
 892:Generated_Source\PSoC4/cyCapsense_1_Control.c **** void cyCapsense_1_Wakeup(void)
 893:Generated_Source\PSoC4/cyCapsense_1_Control.c **** {
 614              		.loc 1 893 0
 615              		.cfi_startproc
 616              		@ args = 0, pretend = 0, frame = 0
 617              		@ frame_needed = 0, uses_anonymous_args = 0
 618              		@ link register save eliminated.
 894:Generated_Source\PSoC4/cyCapsense_1_Control.c ****     #if(cyCapsense_1_ENABLE == cyCapsense_1_CSDV2)
 895:Generated_Source\PSoC4/cyCapsense_1_Control.c ****         #if(cyCapsense_1_BLOCK_ANALOG_WAKEUP_DELAY_US > 0uL)
 896:Generated_Source\PSoC4/cyCapsense_1_Control.c ****             CyDelayUs(cyCapsense_1_BLOCK_ANALOG_WAKEUP_DELAY_US);
 897:Generated_Source\PSoC4/cyCapsense_1_Control.c ****         #endif /* (cyCapsense_1_BLOCK_ANALOG_WAKEUP_DELAY_US > 0uL) */
 898:Generated_Source\PSoC4/cyCapsense_1_Control.c ****     #endif /* (cyCapsense_1_ENABLE == cyCapsense_1_CSDV2) */
 899:Generated_Source\PSoC4/cyCapsense_1_Control.c **** }
 619              		.loc 1 899 0
 620              		@ sp needed
 621 0000 7047     		bx	lr
ARM GAS  C:\Users\turan\AppData\Local\Temp\ccb7TZhX.s 			page 28


 622              		.cfi_endproc
 623              	.LFE11:
 624              		.size	cyCapsense_1_Wakeup, .-cyCapsense_1_Wakeup
 625 0002 C046     		.bss
 626              		.set	.LANCHOR0,. + 0
 627              		.type	cyCapsense_1_InitVar, %object
 628              		.size	cyCapsense_1_InitVar, 1
 629              	cyCapsense_1_InitVar:
 630 0000 00       		.space	1
 631              		.text
 632              	.Letext0:
 633              		.file 2 "Generated_Source\\PSoC4\\cytypes.h"
 634              		.file 3 "Generated_Source\\PSoC4\\cyCapsense_1_Configuration.h"
 635              		.file 4 "Generated_Source\\PSoC4\\cyCapsense_1_SmartSense_LL.h"
 636              		.file 5 "Generated_Source\\PSoC4\\cyCapsense_1_Structure.h"
 637              		.file 6 "Generated_Source\\PSoC4\\cyCapsense_1_Tuner.h"
 638              		.file 7 "Generated_Source\\PSoC4\\cyCapsense_1_Processing.h"
 639              		.file 8 "Generated_Source\\PSoC4\\cyCapsense_1_Sensing.h"
 640              		.file 9 "Generated_Source\\PSoC4\\cyCapsense_1_Filter.h"