ARM GAS  C:\Users\turan\AppData\Local\Temp\ccfzf2rj.s 			page 1


   1              		.syntax unified
   2              		.cpu cortex-m0
   3              		.fpu softvfp
   4              		.eabi_attribute 20, 1
   5              		.eabi_attribute 21, 1
   6              		.eabi_attribute 23, 3
   7              		.eabi_attribute 24, 1
   8              		.eabi_attribute 25, 1
   9              		.eabi_attribute 26, 1
  10              		.eabi_attribute 30, 1
  11              		.eabi_attribute 34, 0
  12              		.eabi_attribute 18, 4
  13              		.thumb
  14              		.syntax unified
  15              		.file	"cyCapsense_Filter.c"
  16              		.text
  17              	.Ltext0:
  18              		.cfi_sections	.debug_frame
  19              		.section	.text.cyCapsense_FtInitializeBaselineChannel,"ax",%progbits
  20              		.align	2
  21              		.global	cyCapsense_FtInitializeBaselineChannel
  22              		.code	16
  23              		.thumb_func
  24              		.type	cyCapsense_FtInitializeBaselineChannel, %function
  25              	cyCapsense_FtInitializeBaselineChannel:
  26              	.LFB10:
  27              		.file 1 "Generated_Source\\PSoC4\\cyCapsense_Filter.c"
   1:Generated_Source\PSoC4/cyCapsense_Filter.c **** /***************************************************************************//**
   2:Generated_Source\PSoC4/cyCapsense_Filter.c **** * \file cyCapsense_Filter.c
   3:Generated_Source\PSoC4/cyCapsense_Filter.c **** * \version 6.0
   4:Generated_Source\PSoC4/cyCapsense_Filter.c **** *
   5:Generated_Source\PSoC4/cyCapsense_Filter.c **** * \brief
   6:Generated_Source\PSoC4/cyCapsense_Filter.c **** *   This file contains the implementation source code to implement all
   7:Generated_Source\PSoC4/cyCapsense_Filter.c **** *   firmware filters.
   8:Generated_Source\PSoC4/cyCapsense_Filter.c **** *
   9:Generated_Source\PSoC4/cyCapsense_Filter.c **** * \see cyCapsense v6.0 Datasheet
  10:Generated_Source\PSoC4/cyCapsense_Filter.c **** *
  11:Generated_Source\PSoC4/cyCapsense_Filter.c **** *//*****************************************************************************
  12:Generated_Source\PSoC4/cyCapsense_Filter.c **** * Copyright (2016-2018), Cypress Semiconductor Corporation.
  13:Generated_Source\PSoC4/cyCapsense_Filter.c **** ********************************************************************************
  14:Generated_Source\PSoC4/cyCapsense_Filter.c **** * This software is owned by Cypress Semiconductor Corporation (Cypress) and is
  15:Generated_Source\PSoC4/cyCapsense_Filter.c **** * protected by and subject to worldwide patent protection (United States and
  16:Generated_Source\PSoC4/cyCapsense_Filter.c **** * foreign), United States copyright laws and international treaty provisions.
  17:Generated_Source\PSoC4/cyCapsense_Filter.c **** * Cypress hereby grants to licensee a personal, non-exclusive, non-transferable
  18:Generated_Source\PSoC4/cyCapsense_Filter.c **** * license to copy, use, modify, create derivative works of, and compile the
  19:Generated_Source\PSoC4/cyCapsense_Filter.c **** * Cypress Source Code and derivative works for the sole purpose of creating
  20:Generated_Source\PSoC4/cyCapsense_Filter.c **** * custom software in support of licensee product to be used only in conjunction
  21:Generated_Source\PSoC4/cyCapsense_Filter.c **** * with a Cypress integrated circuit as specified in the applicable agreement.
  22:Generated_Source\PSoC4/cyCapsense_Filter.c **** * Any reproduction, modification, translation, compilation, or representation of
  23:Generated_Source\PSoC4/cyCapsense_Filter.c **** * this software except as specified above is prohibited without the express
  24:Generated_Source\PSoC4/cyCapsense_Filter.c **** * written permission of Cypress.
  25:Generated_Source\PSoC4/cyCapsense_Filter.c **** *
  26:Generated_Source\PSoC4/cyCapsense_Filter.c **** * Disclaimer: CYPRESS MAKES NO WARRANTY OF ANY KIND, EXPRESS OR IMPLIED, WITH
  27:Generated_Source\PSoC4/cyCapsense_Filter.c **** * REGARD TO THIS MATERIAL, INCLUDING, BUT NOT LIMITED TO, THE IMPLIED
  28:Generated_Source\PSoC4/cyCapsense_Filter.c **** * WARRANTIES OF MERCHANTABILITY AND FITNESS FOR A PARTICULAR PURPOSE.
  29:Generated_Source\PSoC4/cyCapsense_Filter.c **** * Cypress reserves the right to make changes without further notice to the
  30:Generated_Source\PSoC4/cyCapsense_Filter.c **** * materials described herein. Cypress does not assume any liability arising out
ARM GAS  C:\Users\turan\AppData\Local\Temp\ccfzf2rj.s 			page 2


  31:Generated_Source\PSoC4/cyCapsense_Filter.c **** * of the application or use of any product or circuit described herein. Cypress
  32:Generated_Source\PSoC4/cyCapsense_Filter.c **** * does not authorize its products for use as critical components in life-support
  33:Generated_Source\PSoC4/cyCapsense_Filter.c **** * systems where a malfunction or failure may reasonably be expected to result in
  34:Generated_Source\PSoC4/cyCapsense_Filter.c **** * significant injury to the user. The inclusion of Cypress' product in a life-
  35:Generated_Source\PSoC4/cyCapsense_Filter.c **** * support systems application implies that the manufacturer assumes all risk of
  36:Generated_Source\PSoC4/cyCapsense_Filter.c **** * such use and in doing so indemnifies Cypress against all charges. Use may be
  37:Generated_Source\PSoC4/cyCapsense_Filter.c **** * limited by and subject to the applicable Cypress software license agreement.
  38:Generated_Source\PSoC4/cyCapsense_Filter.c **** *******************************************************************************/
  39:Generated_Source\PSoC4/cyCapsense_Filter.c **** 
  40:Generated_Source\PSoC4/cyCapsense_Filter.c **** #include "cyCapsense_Filter.h"
  41:Generated_Source\PSoC4/cyCapsense_Filter.c **** #include "cyCapsense_Configuration.h"
  42:Generated_Source\PSoC4/cyCapsense_Filter.c **** 
  43:Generated_Source\PSoC4/cyCapsense_Filter.c **** #if (0 != (cyCapsense_CSD_AUTOTUNE & cyCapsense_CSD_SS_TH_EN))
  44:Generated_Source\PSoC4/cyCapsense_Filter.c ****     #include "cyCapsense_SmartSense_LL.h"
  45:Generated_Source\PSoC4/cyCapsense_Filter.c **** #endif /* (0 != (cyCapsense_CSD_AUTOTUNE & cyCapsense_CSD_SS_TH_EN)) */
  46:Generated_Source\PSoC4/cyCapsense_Filter.c **** 
  47:Generated_Source\PSoC4/cyCapsense_Filter.c **** #if (cyCapsense_ENABLE == cyCapsense_SELF_TEST_EN)
  48:Generated_Source\PSoC4/cyCapsense_Filter.c ****     #include "cyCapsense_SelfTest.h"
  49:Generated_Source\PSoC4/cyCapsense_Filter.c **** #endif
  50:Generated_Source\PSoC4/cyCapsense_Filter.c **** 
  51:Generated_Source\PSoC4/cyCapsense_Filter.c **** /*******************************************************************************
  52:Generated_Source\PSoC4/cyCapsense_Filter.c **** * Function Name: cyCapsense_FtInitialize
  53:Generated_Source\PSoC4/cyCapsense_Filter.c **** ****************************************************************************//**
  54:Generated_Source\PSoC4/cyCapsense_Filter.c **** *
  55:Generated_Source\PSoC4/cyCapsense_Filter.c **** * \brief
  56:Generated_Source\PSoC4/cyCapsense_Filter.c **** *  Initializes all the firmware filter history, except the baseline filter.
  57:Generated_Source\PSoC4/cyCapsense_Filter.c **** *
  58:Generated_Source\PSoC4/cyCapsense_Filter.c **** * \details
  59:Generated_Source\PSoC4/cyCapsense_Filter.c **** *  Initializes all the firmware filter history, except the baseline filter.
  60:Generated_Source\PSoC4/cyCapsense_Filter.c **** *
  61:Generated_Source\PSoC4/cyCapsense_Filter.c **** *******************************************************************************/
  62:Generated_Source\PSoC4/cyCapsense_Filter.c **** void cyCapsense_FtInitialize(void)
  63:Generated_Source\PSoC4/cyCapsense_Filter.c **** {
  64:Generated_Source\PSoC4/cyCapsense_Filter.c ****     #if ((cyCapsense_ENABLE == cyCapsense_RC_FILTER_EN) || \
  65:Generated_Source\PSoC4/cyCapsense_Filter.c ****          (0u != (cyCapsense_CSD_AUTOTUNE & cyCapsense_CSD_SS_TH_EN)))
  66:Generated_Source\PSoC4/cyCapsense_Filter.c ****         cyCapsense_InitializeAllFilters();
  67:Generated_Source\PSoC4/cyCapsense_Filter.c ****     #endif /* ((cyCapsense_ENABLE == cyCapsense_RC_FILTER_EN) || \
  68:Generated_Source\PSoC4/cyCapsense_Filter.c ****                (0u != (cyCapsense_CSD_AUTOTUNE & cyCapsense_CSD_SS_TH_EN))) */
  69:Generated_Source\PSoC4/cyCapsense_Filter.c **** }
  70:Generated_Source\PSoC4/cyCapsense_Filter.c **** 
  71:Generated_Source\PSoC4/cyCapsense_Filter.c **** 
  72:Generated_Source\PSoC4/cyCapsense_Filter.c **** /*******************************************************************************
  73:Generated_Source\PSoC4/cyCapsense_Filter.c **** * Function Name: cyCapsense_UpdateAllBaselines
  74:Generated_Source\PSoC4/cyCapsense_Filter.c **** ****************************************************************************//**
  75:Generated_Source\PSoC4/cyCapsense_Filter.c **** *
  76:Generated_Source\PSoC4/cyCapsense_Filter.c **** * \brief
  77:Generated_Source\PSoC4/cyCapsense_Filter.c **** *  Updates the baseline for all the sensors in all the widgets.
  78:Generated_Source\PSoC4/cyCapsense_Filter.c **** *
  79:Generated_Source\PSoC4/cyCapsense_Filter.c **** * \details
  80:Generated_Source\PSoC4/cyCapsense_Filter.c **** *  Updates the baseline for all the sensors in all the widgets. Baseline updating is a
  81:Generated_Source\PSoC4/cyCapsense_Filter.c **** *  part of data processing performed by the process functions. So, no need to
  82:Generated_Source\PSoC4/cyCapsense_Filter.c **** *  call this function except a specific process flow is implemented.
  83:Generated_Source\PSoC4/cyCapsense_Filter.c **** *
  84:Generated_Source\PSoC4/cyCapsense_Filter.c **** *  This function ignores the value of the wdgtEnable register. Multiple calling
  85:Generated_Source\PSoC4/cyCapsense_Filter.c **** *  of this function (or any other function with a baseline updating task)
  86:Generated_Source\PSoC4/cyCapsense_Filter.c **** *  without scanning leads to unexpected behavior.
  87:Generated_Source\PSoC4/cyCapsense_Filter.c **** *
ARM GAS  C:\Users\turan\AppData\Local\Temp\ccfzf2rj.s 			page 3


  88:Generated_Source\PSoC4/cyCapsense_Filter.c **** *  If the Self-test library is enabled, this function executes the baseline duplication
  89:Generated_Source\PSoC4/cyCapsense_Filter.c **** *  test. Refer to cyCapsense_CheckBaselineDuplication() for details.
  90:Generated_Source\PSoC4/cyCapsense_Filter.c **** *
  91:Generated_Source\PSoC4/cyCapsense_Filter.c **** * \return
  92:Generated_Source\PSoC4/cyCapsense_Filter.c **** *  Returns the status of the update baseline operation of all the widgets:
  93:Generated_Source\PSoC4/cyCapsense_Filter.c **** *  - CYRET_SUCCESS - The operation is successfully completed.
  94:Generated_Source\PSoC4/cyCapsense_Filter.c **** *  - CYRET_BAD_DATA - The baseline processing failed.
  95:Generated_Source\PSoC4/cyCapsense_Filter.c **** *
  96:Generated_Source\PSoC4/cyCapsense_Filter.c **** *******************************************************************************/
  97:Generated_Source\PSoC4/cyCapsense_Filter.c **** cystatus cyCapsense_UpdateAllBaselines(void)
  98:Generated_Source\PSoC4/cyCapsense_Filter.c **** {
  99:Generated_Source\PSoC4/cyCapsense_Filter.c ****     uint32 widgetId;
 100:Generated_Source\PSoC4/cyCapsense_Filter.c ****     cystatus bslnStatus = CYRET_SUCCESS;
 101:Generated_Source\PSoC4/cyCapsense_Filter.c **** 
 102:Generated_Source\PSoC4/cyCapsense_Filter.c ****     for(widgetId = cyCapsense_TOTAL_WIDGETS; widgetId-- > 0u;)
 103:Generated_Source\PSoC4/cyCapsense_Filter.c ****     {
 104:Generated_Source\PSoC4/cyCapsense_Filter.c ****         bslnStatus |= cyCapsense_UpdateWidgetBaseline(widgetId);
 105:Generated_Source\PSoC4/cyCapsense_Filter.c ****     }
 106:Generated_Source\PSoC4/cyCapsense_Filter.c **** 
 107:Generated_Source\PSoC4/cyCapsense_Filter.c ****     return(bslnStatus);
 108:Generated_Source\PSoC4/cyCapsense_Filter.c **** }
 109:Generated_Source\PSoC4/cyCapsense_Filter.c **** 
 110:Generated_Source\PSoC4/cyCapsense_Filter.c **** 
 111:Generated_Source\PSoC4/cyCapsense_Filter.c **** /*******************************************************************************
 112:Generated_Source\PSoC4/cyCapsense_Filter.c **** * Function Name: cyCapsense_UpdateWidgetBaseline
 113:Generated_Source\PSoC4/cyCapsense_Filter.c **** ****************************************************************************//**
 114:Generated_Source\PSoC4/cyCapsense_Filter.c **** *
 115:Generated_Source\PSoC4/cyCapsense_Filter.c **** * \brief
 116:Generated_Source\PSoC4/cyCapsense_Filter.c **** *  Updates the baselines for all the sensors in a widget specified by the input
 117:Generated_Source\PSoC4/cyCapsense_Filter.c **** *  parameter.
 118:Generated_Source\PSoC4/cyCapsense_Filter.c **** *
 119:Generated_Source\PSoC4/cyCapsense_Filter.c **** * \details
 120:Generated_Source\PSoC4/cyCapsense_Filter.c **** *  This function performs exactly the same tasks as
 121:Generated_Source\PSoC4/cyCapsense_Filter.c **** *  cyCapsense_UpdateAllBaselines() but only for a specified widget.
 122:Generated_Source\PSoC4/cyCapsense_Filter.c **** *
 123:Generated_Source\PSoC4/cyCapsense_Filter.c **** *  This function ignores the value of the wdgtEnable register. Multiple calling
 124:Generated_Source\PSoC4/cyCapsense_Filter.c **** *  of this function (or any other function with a baseline updating task)
 125:Generated_Source\PSoC4/cyCapsense_Filter.c **** *  without scanning leads to unexpected behavior.
 126:Generated_Source\PSoC4/cyCapsense_Filter.c **** *
 127:Generated_Source\PSoC4/cyCapsense_Filter.c **** *  If the Self-test library is enabled, this function executes the baseline duplication
 128:Generated_Source\PSoC4/cyCapsense_Filter.c **** *  test. Refer to cyCapsense_CheckBaselineDuplication() for details.
 129:Generated_Source\PSoC4/cyCapsense_Filter.c **** *
 130:Generated_Source\PSoC4/cyCapsense_Filter.c **** * \param widgetId
 131:Generated_Source\PSoC4/cyCapsense_Filter.c **** *  Specifies the ID number of the widget to update the baseline of all the sensors
 132:Generated_Source\PSoC4/cyCapsense_Filter.c **** *  in the widget.
 133:Generated_Source\PSoC4/cyCapsense_Filter.c **** *  A macro for the widget ID can be found in the
 134:Generated_Source\PSoC4/cyCapsense_Filter.c **** *  cyCapsense Configuration header file defined as
 135:Generated_Source\PSoC4/cyCapsense_Filter.c **** *  cyCapsense_<WidgetName>_WDGT_ID.
 136:Generated_Source\PSoC4/cyCapsense_Filter.c **** *
 137:Generated_Source\PSoC4/cyCapsense_Filter.c **** * \return
 138:Generated_Source\PSoC4/cyCapsense_Filter.c **** *  Returns the status of the specified widget update baseline operation:
 139:Generated_Source\PSoC4/cyCapsense_Filter.c **** *  - CYRET_SUCCESS - The operation is successfully completed.
 140:Generated_Source\PSoC4/cyCapsense_Filter.c **** *  - CYRET_BAD_DATA - The baseline processing is failed.
 141:Generated_Source\PSoC4/cyCapsense_Filter.c **** *
 142:Generated_Source\PSoC4/cyCapsense_Filter.c **** *******************************************************************************/
 143:Generated_Source\PSoC4/cyCapsense_Filter.c **** cystatus cyCapsense_UpdateWidgetBaseline(uint32 widgetId)
 144:Generated_Source\PSoC4/cyCapsense_Filter.c **** {
ARM GAS  C:\Users\turan\AppData\Local\Temp\ccfzf2rj.s 			page 4


 145:Generated_Source\PSoC4/cyCapsense_Filter.c ****     uint32 sensorId;
 146:Generated_Source\PSoC4/cyCapsense_Filter.c ****     uint32 sensorsNumber;
 147:Generated_Source\PSoC4/cyCapsense_Filter.c **** 
 148:Generated_Source\PSoC4/cyCapsense_Filter.c ****     cyCapsense_FLASH_WD_STRUCT const *ptrWidget = &cyCapsense_dsFlash.wdgtArray[widgetId];
 149:Generated_Source\PSoC4/cyCapsense_Filter.c ****     cystatus bslnStatus = CYRET_SUCCESS;
 150:Generated_Source\PSoC4/cyCapsense_Filter.c **** 
 151:Generated_Source\PSoC4/cyCapsense_Filter.c ****     /* Find total amount of sensors in specified widget */
 152:Generated_Source\PSoC4/cyCapsense_Filter.c ****     sensorsNumber = cyCapsense_GET_SNS_CNT_BY_PTR(ptrWidget);
 153:Generated_Source\PSoC4/cyCapsense_Filter.c **** 
 154:Generated_Source\PSoC4/cyCapsense_Filter.c ****     for(sensorId = sensorsNumber; sensorId-- > 0u;)
 155:Generated_Source\PSoC4/cyCapsense_Filter.c ****     {
 156:Generated_Source\PSoC4/cyCapsense_Filter.c ****         bslnStatus |= cyCapsense_UpdateSensorBaseline(widgetId, sensorId);
 157:Generated_Source\PSoC4/cyCapsense_Filter.c ****     }
 158:Generated_Source\PSoC4/cyCapsense_Filter.c **** 
 159:Generated_Source\PSoC4/cyCapsense_Filter.c ****     return(bslnStatus);
 160:Generated_Source\PSoC4/cyCapsense_Filter.c **** }
 161:Generated_Source\PSoC4/cyCapsense_Filter.c **** 
 162:Generated_Source\PSoC4/cyCapsense_Filter.c **** 
 163:Generated_Source\PSoC4/cyCapsense_Filter.c **** /*******************************************************************************
 164:Generated_Source\PSoC4/cyCapsense_Filter.c **** * Function Name: cyCapsense_UpdateSensorBaseline
 165:Generated_Source\PSoC4/cyCapsense_Filter.c **** ****************************************************************************//**
 166:Generated_Source\PSoC4/cyCapsense_Filter.c **** *
 167:Generated_Source\PSoC4/cyCapsense_Filter.c **** * \brief
 168:Generated_Source\PSoC4/cyCapsense_Filter.c **** *  Updates the baseline for a sensor in a widget specified by the input parameters.
 169:Generated_Source\PSoC4/cyCapsense_Filter.c **** *
 170:Generated_Source\PSoC4/cyCapsense_Filter.c **** * \details
 171:Generated_Source\PSoC4/cyCapsense_Filter.c **** *  This function performs exactly the same tasks as
 172:Generated_Source\PSoC4/cyCapsense_Filter.c **** *  cyCapsense_UpdateAllBaselines() and
 173:Generated_Source\PSoC4/cyCapsense_Filter.c **** *  cyCapsense_UpdateWidgetBaseline() but only for a specified sensor.
 174:Generated_Source\PSoC4/cyCapsense_Filter.c **** *
 175:Generated_Source\PSoC4/cyCapsense_Filter.c **** *  This function ignores the value of the wdgtEnable register. Multiple calling
 176:Generated_Source\PSoC4/cyCapsense_Filter.c **** *  of this function (or any other function with a baseline updating task)
 177:Generated_Source\PSoC4/cyCapsense_Filter.c **** *  without scanning leads to unexpected behavior.
 178:Generated_Source\PSoC4/cyCapsense_Filter.c **** *
 179:Generated_Source\PSoC4/cyCapsense_Filter.c **** *  If the Self-test library is enabled, this function executes the baseline duplication
 180:Generated_Source\PSoC4/cyCapsense_Filter.c **** *  test. Refer to cyCapsense_CheckBaselineDuplication() for details.
 181:Generated_Source\PSoC4/cyCapsense_Filter.c **** *
 182:Generated_Source\PSoC4/cyCapsense_Filter.c **** * \param widgetId
 183:Generated_Source\PSoC4/cyCapsense_Filter.c **** *  Specifies the ID number of the widget to update the baseline of the sensor
 184:Generated_Source\PSoC4/cyCapsense_Filter.c **** *  specified by the sensorId argument.
 185:Generated_Source\PSoC4/cyCapsense_Filter.c **** *  A macro for the widget ID can be found in the cyCapsense Configuration header
 186:Generated_Source\PSoC4/cyCapsense_Filter.c **** *  file defined as cyCapsense_<WidgetName>_WDGT_ID.
 187:Generated_Source\PSoC4/cyCapsense_Filter.c **** *
 188:Generated_Source\PSoC4/cyCapsense_Filter.c **** * \param sensorId
 189:Generated_Source\PSoC4/cyCapsense_Filter.c **** *  Specifies the ID number of the sensor within the widget to update its baseline.
 190:Generated_Source\PSoC4/cyCapsense_Filter.c **** *  A macro for the sensor ID within a specified widget can be found in the
 191:Generated_Source\PSoC4/cyCapsense_Filter.c **** *  cyCapsense Configuration header file defined as
 192:Generated_Source\PSoC4/cyCapsense_Filter.c **** *  cyCapsense_<WidgetName>_SNS<SensorNumber>_ID.
 193:Generated_Source\PSoC4/cyCapsense_Filter.c **** *
 194:Generated_Source\PSoC4/cyCapsense_Filter.c **** * \return
 195:Generated_Source\PSoC4/cyCapsense_Filter.c **** *  Returns the status of the specified sensor update baseline operation:
 196:Generated_Source\PSoC4/cyCapsense_Filter.c **** *  - CYRET_SUCCESS - The operation is successfully completed.
 197:Generated_Source\PSoC4/cyCapsense_Filter.c **** *  - CYRET_BAD_DATA - The baseline processing failed.
 198:Generated_Source\PSoC4/cyCapsense_Filter.c **** *
 199:Generated_Source\PSoC4/cyCapsense_Filter.c **** *******************************************************************************/
 200:Generated_Source\PSoC4/cyCapsense_Filter.c **** cystatus cyCapsense_UpdateSensorBaseline(uint32 widgetId, uint32 sensorId)
 201:Generated_Source\PSoC4/cyCapsense_Filter.c **** {
ARM GAS  C:\Users\turan\AppData\Local\Temp\ccfzf2rj.s 			page 5


 202:Generated_Source\PSoC4/cyCapsense_Filter.c ****     uint32 result = CYRET_SUCCESS;
 203:Generated_Source\PSoC4/cyCapsense_Filter.c **** 
 204:Generated_Source\PSoC4/cyCapsense_Filter.c ****     cyCapsense_RAM_SNS_STRUCT *ptrSensor = NULL;
 205:Generated_Source\PSoC4/cyCapsense_Filter.c ****     cyCapsense_FLASH_WD_STRUCT const *ptrWidget = &cyCapsense_dsFlash.wdgtArray[widgetId];
 206:Generated_Source\PSoC4/cyCapsense_Filter.c ****     cyCapsense_RAM_WD_BASE_STRUCT *ptrWidgetRam = (cyCapsense_RAM_WD_BASE_STRUCT *)ptrWidget->ptr2W
 207:Generated_Source\PSoC4/cyCapsense_Filter.c **** 
 208:Generated_Source\PSoC4/cyCapsense_Filter.c ****     /* Find pointer to specified sensor object */
 209:Generated_Source\PSoC4/cyCapsense_Filter.c ****     ptrSensor = ptrWidget->ptr2SnsRam;
 210:Generated_Source\PSoC4/cyCapsense_Filter.c ****     ptrSensor = &ptrSensor[sensorId];
 211:Generated_Source\PSoC4/cyCapsense_Filter.c ****     result = cyCapsense_FtUpdateBaseline(ptrWidgetRam, ptrSensor, (uint32)ptrWidget->wdgtType);
 212:Generated_Source\PSoC4/cyCapsense_Filter.c **** 
 213:Generated_Source\PSoC4/cyCapsense_Filter.c ****     #if (cyCapsense_ENABLE == cyCapsense_TST_BSLN_DUPLICATION_EN)
 214:Generated_Source\PSoC4/cyCapsense_Filter.c ****         if (CYRET_SUCCESS != result)
 215:Generated_Source\PSoC4/cyCapsense_Filter.c ****         {
 216:Generated_Source\PSoC4/cyCapsense_Filter.c ****             result = CYRET_BAD_DATA;
 217:Generated_Source\PSoC4/cyCapsense_Filter.c ****             cyCapsense_UpdateTestResultBaselineDuplication(widgetId, sensorId);
 218:Generated_Source\PSoC4/cyCapsense_Filter.c ****         }
 219:Generated_Source\PSoC4/cyCapsense_Filter.c ****     #endif /* (cyCapsense_ENABLE == cyCapsense_TST_BSLN_DUPLICATION_EN) */
 220:Generated_Source\PSoC4/cyCapsense_Filter.c **** 
 221:Generated_Source\PSoC4/cyCapsense_Filter.c ****     return result;
 222:Generated_Source\PSoC4/cyCapsense_Filter.c **** }
 223:Generated_Source\PSoC4/cyCapsense_Filter.c **** 
 224:Generated_Source\PSoC4/cyCapsense_Filter.c **** /*******************************************************************************
 225:Generated_Source\PSoC4/cyCapsense_Filter.c **** * Function Name: cyCapsense_FtUpdateBaseline
 226:Generated_Source\PSoC4/cyCapsense_Filter.c **** ****************************************************************************//**
 227:Generated_Source\PSoC4/cyCapsense_Filter.c **** *
 228:Generated_Source\PSoC4/cyCapsense_Filter.c **** * \brief
 229:Generated_Source\PSoC4/cyCapsense_Filter.c **** *  Updates the baseline for a sensor specified by an input parameter.
 230:Generated_Source\PSoC4/cyCapsense_Filter.c **** *
 231:Generated_Source\PSoC4/cyCapsense_Filter.c **** * \details
 232:Generated_Source\PSoC4/cyCapsense_Filter.c **** *  Check a matching of present baseline and its inverse duplication. If they
 233:Generated_Source\PSoC4/cyCapsense_Filter.c **** *  match then updates the baseline for a sensor specified by an input parameter.
 234:Generated_Source\PSoC4/cyCapsense_Filter.c **** *  If don't match the function return cyCapsense_TST_BSLN_DUPLICATION
 235:Generated_Source\PSoC4/cyCapsense_Filter.c **** *  result and don't update baseline.
 236:Generated_Source\PSoC4/cyCapsense_Filter.c **** *
 237:Generated_Source\PSoC4/cyCapsense_Filter.c **** * \param ptrWidgetRam
 238:Generated_Source\PSoC4/cyCapsense_Filter.c **** *  The pointer to the widget RAM structure where all the widget parameters
 239:Generated_Source\PSoC4/cyCapsense_Filter.c **** *  are stored.
 240:Generated_Source\PSoC4/cyCapsense_Filter.c **** *
 241:Generated_Source\PSoC4/cyCapsense_Filter.c **** * \param ptrSensor
 242:Generated_Source\PSoC4/cyCapsense_Filter.c **** *  The pointer to the sensor RAM structure where all the sensor parameters
 243:Generated_Source\PSoC4/cyCapsense_Filter.c **** *  are stored.
 244:Generated_Source\PSoC4/cyCapsense_Filter.c **** *
 245:Generated_Source\PSoC4/cyCapsense_Filter.c **** * \param wdType
 246:Generated_Source\PSoC4/cyCapsense_Filter.c **** *  Specifies the type of a widget.
 247:Generated_Source\PSoC4/cyCapsense_Filter.c **** *
 248:Generated_Source\PSoC4/cyCapsense_Filter.c **** * \return
 249:Generated_Source\PSoC4/cyCapsense_Filter.c **** *  Returns a status indicating whether the baseline has been updated:
 250:Generated_Source\PSoC4/cyCapsense_Filter.c **** *  - CYRET_SUCCESS if baseline updating was successful.
 251:Generated_Source\PSoC4/cyCapsense_Filter.c **** *  - cyCapsense_PROCESS_BASELINE_FAILED if present sensor's any channel
 252:Generated_Source\PSoC4/cyCapsense_Filter.c **** *    baseline and its inversion doesn't matched.
 253:Generated_Source\PSoC4/cyCapsense_Filter.c **** *
 254:Generated_Source\PSoC4/cyCapsense_Filter.c **** *******************************************************************************/
 255:Generated_Source\PSoC4/cyCapsense_Filter.c **** uint32 cyCapsense_FtUpdateBaseline(
 256:Generated_Source\PSoC4/cyCapsense_Filter.c ****                                 cyCapsense_RAM_WD_BASE_STRUCT *ptrWidgetRam,
 257:Generated_Source\PSoC4/cyCapsense_Filter.c ****                                 cyCapsense_RAM_SNS_STRUCT *ptrSensor,
 258:Generated_Source\PSoC4/cyCapsense_Filter.c ****                                 uint32 wdType)
ARM GAS  C:\Users\turan\AppData\Local\Temp\ccfzf2rj.s 			page 6


 259:Generated_Source\PSoC4/cyCapsense_Filter.c **** {
 260:Generated_Source\PSoC4/cyCapsense_Filter.c ****     uint32 sign;
 261:Generated_Source\PSoC4/cyCapsense_Filter.c ****     uint32 difference;
 262:Generated_Source\PSoC4/cyCapsense_Filter.c ****     uint32 freqChannel;
 263:Generated_Source\PSoC4/cyCapsense_Filter.c ****     uint32 baselineCoeff;
 264:Generated_Source\PSoC4/cyCapsense_Filter.c ****     uint32 result = CYRET_SUCCESS;
 265:Generated_Source\PSoC4/cyCapsense_Filter.c **** 
 266:Generated_Source\PSoC4/cyCapsense_Filter.c ****     #if (cyCapsense_TOTAL_WIDGETS)
 267:Generated_Source\PSoC4/cyCapsense_Filter.c ****         uint32 history;
 268:Generated_Source\PSoC4/cyCapsense_Filter.c ****     #endif /* (cyCapsense_TOTAL_WIDGETS) */
 269:Generated_Source\PSoC4/cyCapsense_Filter.c **** 
 270:Generated_Source\PSoC4/cyCapsense_Filter.c ****     /* Apply baseline to every channel in sensor */
 271:Generated_Source\PSoC4/cyCapsense_Filter.c ****     for(freqChannel = cyCapsense_NUM_SCAN_FREQS; freqChannel-- > 0u;)
 272:Generated_Source\PSoC4/cyCapsense_Filter.c ****     {
 273:Generated_Source\PSoC4/cyCapsense_Filter.c ****         #if (cyCapsense_ENABLE == cyCapsense_TST_BSLN_DUPLICATION_EN)
 274:Generated_Source\PSoC4/cyCapsense_Filter.c ****             if (ptrSensor->bslnInv[freqChannel] != ((uint16) ~(ptrSensor->bsln[freqChannel])))
 275:Generated_Source\PSoC4/cyCapsense_Filter.c ****             {
 276:Generated_Source\PSoC4/cyCapsense_Filter.c ****                 result = cyCapsense_PROCESS_BASELINE_FAILED;
 277:Generated_Source\PSoC4/cyCapsense_Filter.c ****             }
 278:Generated_Source\PSoC4/cyCapsense_Filter.c ****             else
 279:Generated_Source\PSoC4/cyCapsense_Filter.c ****             {
 280:Generated_Source\PSoC4/cyCapsense_Filter.c ****         #endif /* (cyCapsense_ENABLE == cyCapsense_TST_BSLN_DUPLICATION_EN) */
 281:Generated_Source\PSoC4/cyCapsense_Filter.c **** 
 282:Generated_Source\PSoC4/cyCapsense_Filter.c ****         /* Calculate signal value and its sign */
 283:Generated_Source\PSoC4/cyCapsense_Filter.c ****         if(ptrSensor->raw[freqChannel] >= ptrSensor->bsln[freqChannel])
 284:Generated_Source\PSoC4/cyCapsense_Filter.c ****         {
 285:Generated_Source\PSoC4/cyCapsense_Filter.c ****             difference = (uint32)ptrSensor->raw[freqChannel] - (uint32)ptrSensor->bsln[freqChannel]
 286:Generated_Source\PSoC4/cyCapsense_Filter.c ****             sign = 1u;
 287:Generated_Source\PSoC4/cyCapsense_Filter.c ****             ptrSensor->negBslnRstCnt[freqChannel] = 0u;
 288:Generated_Source\PSoC4/cyCapsense_Filter.c ****         }
 289:Generated_Source\PSoC4/cyCapsense_Filter.c ****         else
 290:Generated_Source\PSoC4/cyCapsense_Filter.c ****         {
 291:Generated_Source\PSoC4/cyCapsense_Filter.c ****             difference = (uint32)ptrSensor->bsln[freqChannel] - (uint32)ptrSensor->raw[freqChannel]
 292:Generated_Source\PSoC4/cyCapsense_Filter.c ****             sign = 0u;
 293:Generated_Source\PSoC4/cyCapsense_Filter.c ****         }
 294:Generated_Source\PSoC4/cyCapsense_Filter.c **** 
 295:Generated_Source\PSoC4/cyCapsense_Filter.c ****         /* Reset baseline if condition is met */
 296:Generated_Source\PSoC4/cyCapsense_Filter.c ****         if((sign == 0u) && (difference > (uint32) ptrWidgetRam->nNoiseTh))
 297:Generated_Source\PSoC4/cyCapsense_Filter.c ****         {
 298:Generated_Source\PSoC4/cyCapsense_Filter.c ****             if(ptrSensor->negBslnRstCnt[freqChannel] >= ptrWidgetRam->lowBslnRst)
 299:Generated_Source\PSoC4/cyCapsense_Filter.c ****             {
 300:Generated_Source\PSoC4/cyCapsense_Filter.c ****                 cyCapsense_FtInitializeBaselineChannel(ptrSensor, wdType, freqChannel);
 301:Generated_Source\PSoC4/cyCapsense_Filter.c ****             }
 302:Generated_Source\PSoC4/cyCapsense_Filter.c ****             else
 303:Generated_Source\PSoC4/cyCapsense_Filter.c ****             {
 304:Generated_Source\PSoC4/cyCapsense_Filter.c ****                 ptrSensor->negBslnRstCnt[freqChannel]++;
 305:Generated_Source\PSoC4/cyCapsense_Filter.c ****             }
 306:Generated_Source\PSoC4/cyCapsense_Filter.c ****         }
 307:Generated_Source\PSoC4/cyCapsense_Filter.c ****         else
 308:Generated_Source\PSoC4/cyCapsense_Filter.c ****         {
 309:Generated_Source\PSoC4/cyCapsense_Filter.c ****             #if (!cyCapsense_SENSOR_AUTO_RESET_EN)
 310:Generated_Source\PSoC4/cyCapsense_Filter.c ****                 /* Update baseline only if signal is in range between noiseThreshold and negativeno
 311:Generated_Source\PSoC4/cyCapsense_Filter.c ****                 if ((difference <= (uint32)ptrWidgetRam->noiseTh) ||
 312:Generated_Source\PSoC4/cyCapsense_Filter.c ****                     ((difference < (uint32) ptrWidgetRam->nNoiseTh) && (sign == 0u)))
 313:Generated_Source\PSoC4/cyCapsense_Filter.c ****                 {
 314:Generated_Source\PSoC4/cyCapsense_Filter.c ****             #endif /* (cyCapsense_CSD_AUTO_RESET == cyCapsense_CSD_AUTO_RESET_DISABLE) */
 315:Generated_Source\PSoC4/cyCapsense_Filter.c **** 
ARM GAS  C:\Users\turan\AppData\Local\Temp\ccfzf2rj.s 			page 7


 316:Generated_Source\PSoC4/cyCapsense_Filter.c ****             #if (cyCapsense_BASELINE_TYPE == cyCapsense_IIR_BASELINE)
 317:Generated_Source\PSoC4/cyCapsense_Filter.c ****                 /* Calculate baseline value */
 318:Generated_Source\PSoC4/cyCapsense_Filter.c ****                 if ((cyCapsense_WD_TYPE_ENUM)wdType != cyCapsense_WD_PROXIMITY_E)
 319:Generated_Source\PSoC4/cyCapsense_Filter.c ****                 {
 320:Generated_Source\PSoC4/cyCapsense_Filter.c ****                     #if (cyCapsense_REGULAR_SENSOR_EN)
 321:Generated_Source\PSoC4/cyCapsense_Filter.c ****                         #if (cyCapsense_REGULAR_IIR_BL_TYPE == cyCapsense_IIR_FILTER_PERFORMANCE)
 322:Generated_Source\PSoC4/cyCapsense_Filter.c ****                             history = (uint32) ptrSensor->bsln[freqChannel] << 8u;
 323:Generated_Source\PSoC4/cyCapsense_Filter.c ****                             history |= ptrSensor->bslnExt[freqChannel];
 324:Generated_Source\PSoC4/cyCapsense_Filter.c ****                         #else
 325:Generated_Source\PSoC4/cyCapsense_Filter.c ****                             history = ptrSensor->bsln[freqChannel];
 326:Generated_Source\PSoC4/cyCapsense_Filter.c ****                         #endif /* (cyCapsense_REGULAR_IIR_BL_TYPE == cyCapsense_IIR_FILTER_PERFORMA
 327:Generated_Source\PSoC4/cyCapsense_Filter.c **** 
 328:Generated_Source\PSoC4/cyCapsense_Filter.c ****                         #if (cyCapsense_ENABLE == cyCapsense_WD_BSLN_COEFF_EN)
 329:Generated_Source\PSoC4/cyCapsense_Filter.c ****                             baselineCoeff = ptrWidgetRam->bslnCoeff;
 330:Generated_Source\PSoC4/cyCapsense_Filter.c ****                         #else /* (cyCapsense_ENABLE == cyCapsense_WD_BSLN_COEFF_EN) */
 331:Generated_Source\PSoC4/cyCapsense_Filter.c ****                             baselineCoeff = cyCapsense_REGULAR_IIR_BL_N;
 332:Generated_Source\PSoC4/cyCapsense_Filter.c ****                         #endif /* (cyCapsense_ENABLE == cyCapsense_WD_BSLN_COEFF_EN) */
 333:Generated_Source\PSoC4/cyCapsense_Filter.c **** 
 334:Generated_Source\PSoC4/cyCapsense_Filter.c ****                         history =  cyCapsense_FtIIR1stOrder(
 335:Generated_Source\PSoC4/cyCapsense_Filter.c ****                                         (uint32)ptrSensor->raw[freqChannel],
 336:Generated_Source\PSoC4/cyCapsense_Filter.c ****                                         history, baselineCoeff,
 337:Generated_Source\PSoC4/cyCapsense_Filter.c ****                                         cyCapsense_REGULAR_IIR_BL_SHIFT);
 338:Generated_Source\PSoC4/cyCapsense_Filter.c **** 
 339:Generated_Source\PSoC4/cyCapsense_Filter.c ****                         #if (cyCapsense_REGULAR_IIR_BL_TYPE == cyCapsense_IIR_FILTER_PERFORMANCE)
 340:Generated_Source\PSoC4/cyCapsense_Filter.c ****                             ptrSensor->bsln[freqChannel] = LO16(history >> 8u);
 341:Generated_Source\PSoC4/cyCapsense_Filter.c ****                             ptrSensor->bslnExt[freqChannel] = LO8(history);
 342:Generated_Source\PSoC4/cyCapsense_Filter.c ****                         #else
 343:Generated_Source\PSoC4/cyCapsense_Filter.c ****                             ptrSensor->bsln[freqChannel] = LO16(history);
 344:Generated_Source\PSoC4/cyCapsense_Filter.c ****                         #endif /* (cyCapsense_REGULAR_IIR_BL_TYPE == cyCapsense_IIR_FILTER_PERFORMA
 345:Generated_Source\PSoC4/cyCapsense_Filter.c ****                     #endif /* (cyCapsense_REGULAR_SENSOR_EN) */
 346:Generated_Source\PSoC4/cyCapsense_Filter.c ****                 }
 347:Generated_Source\PSoC4/cyCapsense_Filter.c ****                 else
 348:Generated_Source\PSoC4/cyCapsense_Filter.c ****                 {
 349:Generated_Source\PSoC4/cyCapsense_Filter.c ****                     #if (cyCapsense_PROXIMITY_SENSOR_EN)
 350:Generated_Source\PSoC4/cyCapsense_Filter.c ****                         #if (cyCapsense_PROX_IIR_BL_TYPE == cyCapsense_IIR_FILTER_PERFORMANCE)
 351:Generated_Source\PSoC4/cyCapsense_Filter.c ****                             history = (uint32) ptrSensor->bsln[freqChannel] << 8u;
 352:Generated_Source\PSoC4/cyCapsense_Filter.c ****                             history |= ptrSensor->bslnExt[freqChannel];
 353:Generated_Source\PSoC4/cyCapsense_Filter.c ****                         #else
 354:Generated_Source\PSoC4/cyCapsense_Filter.c ****                             history = (uint32) ptrSensor->bsln[freqChannel];
 355:Generated_Source\PSoC4/cyCapsense_Filter.c ****                         #endif /* (cyCapsense_PROX_IIR_BL_TYPE == cyCapsense_IIR_FILTER_PERFORMANCE
 356:Generated_Source\PSoC4/cyCapsense_Filter.c **** 
 357:Generated_Source\PSoC4/cyCapsense_Filter.c ****                         #if (cyCapsense_ENABLE == cyCapsense_WD_BSLN_COEFF_EN)
 358:Generated_Source\PSoC4/cyCapsense_Filter.c ****                             baselineCoeff = ptrWidgetRam->bslnCoeff;
 359:Generated_Source\PSoC4/cyCapsense_Filter.c ****                         #else /* (cyCapsense_ENABLE == cyCapsense_WD_BSLN_COEFF_EN) */
 360:Generated_Source\PSoC4/cyCapsense_Filter.c ****                             baselineCoeff = cyCapsense_PROX_IIR_BL_N;
 361:Generated_Source\PSoC4/cyCapsense_Filter.c ****                         #endif /* (cyCapsense_ENABLE == cyCapsense_WD_BSLN_COEFF_EN) */
 362:Generated_Source\PSoC4/cyCapsense_Filter.c **** 
 363:Generated_Source\PSoC4/cyCapsense_Filter.c ****                         history = cyCapsense_FtIIR1stOrder(
 364:Generated_Source\PSoC4/cyCapsense_Filter.c ****                                         (uint32)ptrSensor->raw[freqChannel],
 365:Generated_Source\PSoC4/cyCapsense_Filter.c ****                                         history, baselineCoeff,
 366:Generated_Source\PSoC4/cyCapsense_Filter.c ****                                         cyCapsense_PROX_IIR_BL_SHIFT);
 367:Generated_Source\PSoC4/cyCapsense_Filter.c **** 
 368:Generated_Source\PSoC4/cyCapsense_Filter.c ****                         #if (cyCapsense_PROX_IIR_BL_TYPE == cyCapsense_IIR_FILTER_PERFORMANCE)
 369:Generated_Source\PSoC4/cyCapsense_Filter.c ****                             ptrSensor->bsln[freqChannel] = LO16(history >> 8u);
 370:Generated_Source\PSoC4/cyCapsense_Filter.c ****                             ptrSensor->bslnExt[freqChannel] = LO8(history);
 371:Generated_Source\PSoC4/cyCapsense_Filter.c ****                         #else
 372:Generated_Source\PSoC4/cyCapsense_Filter.c ****                             ptrSensor->bsln[freqChannel] = LO16(history);
ARM GAS  C:\Users\turan\AppData\Local\Temp\ccfzf2rj.s 			page 8


 373:Generated_Source\PSoC4/cyCapsense_Filter.c ****                         #endif /* (cyCapsense_PROX_IIR_BL_TYPE == cyCapsense_IIR_FILTER_PERFORMANCE
 374:Generated_Source\PSoC4/cyCapsense_Filter.c ****                     #endif /* (cyCapsense_PROX_SENSOR_EN) */
 375:Generated_Source\PSoC4/cyCapsense_Filter.c ****                 }
 376:Generated_Source\PSoC4/cyCapsense_Filter.c ****             #else /* (cyCapsense_CSD_BASELINE_TYPE == cyCapsense_IIR_BASELINE) */
 377:Generated_Source\PSoC4/cyCapsense_Filter.c **** 
 378:Generated_Source\PSoC4/cyCapsense_Filter.c ****                 /******************************************************************
 379:Generated_Source\PSoC4/cyCapsense_Filter.c ****                 * This is the place where the bucket algorithm should be implemented.
 380:Generated_Source\PSoC4/cyCapsense_Filter.c ****                 * The bucket method will be implemented in future Component version.
 381:Generated_Source\PSoC4/cyCapsense_Filter.c ****                 *******************************************************************/
 382:Generated_Source\PSoC4/cyCapsense_Filter.c **** 
 383:Generated_Source\PSoC4/cyCapsense_Filter.c ****             #endif /* (cyCapsense_CSD_BASELINE_TYPE == cyCapsense_IIR_BASELINE) */
 384:Generated_Source\PSoC4/cyCapsense_Filter.c **** 
 385:Generated_Source\PSoC4/cyCapsense_Filter.c ****             #if (!cyCapsense_SENSOR_AUTO_RESET_EN)
 386:Generated_Source\PSoC4/cyCapsense_Filter.c ****                 }
 387:Generated_Source\PSoC4/cyCapsense_Filter.c ****             #endif /* (!cyCapsense_SENSOR_AUTO_RESET_EN) */
 388:Generated_Source\PSoC4/cyCapsense_Filter.c ****         }
 389:Generated_Source\PSoC4/cyCapsense_Filter.c **** 
 390:Generated_Source\PSoC4/cyCapsense_Filter.c ****         #if (cyCapsense_ENABLE == cyCapsense_TST_BSLN_DUPLICATION_EN)
 391:Generated_Source\PSoC4/cyCapsense_Filter.c ****             /* Update baseline inversion of every channel in sensor */
 392:Generated_Source\PSoC4/cyCapsense_Filter.c ****             ptrSensor->bslnInv[freqChannel] = ~(ptrSensor->bsln[freqChannel]);
 393:Generated_Source\PSoC4/cyCapsense_Filter.c ****             }
 394:Generated_Source\PSoC4/cyCapsense_Filter.c ****         #endif /* (cyCapsense_ENABLE == cyCapsense_TST_BSLN_DUPLICATION_EN) */
 395:Generated_Source\PSoC4/cyCapsense_Filter.c **** 
 396:Generated_Source\PSoC4/cyCapsense_Filter.c ****     }
 397:Generated_Source\PSoC4/cyCapsense_Filter.c ****     return result;
 398:Generated_Source\PSoC4/cyCapsense_Filter.c **** }
 399:Generated_Source\PSoC4/cyCapsense_Filter.c **** 
 400:Generated_Source\PSoC4/cyCapsense_Filter.c **** 
 401:Generated_Source\PSoC4/cyCapsense_Filter.c **** /*******************************************************************************
 402:Generated_Source\PSoC4/cyCapsense_Filter.c **** * Function Name: cyCapsense_InitializeAllBaselines
 403:Generated_Source\PSoC4/cyCapsense_Filter.c **** ****************************************************************************//**
 404:Generated_Source\PSoC4/cyCapsense_Filter.c **** *
 405:Generated_Source\PSoC4/cyCapsense_Filter.c **** * \brief
 406:Generated_Source\PSoC4/cyCapsense_Filter.c **** *  Initializes (or re-initializes) the baselines of all the sensors of all the widgets.
 407:Generated_Source\PSoC4/cyCapsense_Filter.c **** *
 408:Generated_Source\PSoC4/cyCapsense_Filter.c **** * \details
 409:Generated_Source\PSoC4/cyCapsense_Filter.c **** *  Initializes the baseline for all the sensors of all the widgets. Also, this function
 410:Generated_Source\PSoC4/cyCapsense_Filter.c **** *  can be used to re-initialize baselines. cyCapsense_Start() calls this
 411:Generated_Source\PSoC4/cyCapsense_Filter.c **** *  API as part of cyCapsense operation initialization.
 412:Generated_Source\PSoC4/cyCapsense_Filter.c **** *
 413:Generated_Source\PSoC4/cyCapsense_Filter.c **** *  If any raw count filter is enabled, make sure the raw count filter history is
 414:Generated_Source\PSoC4/cyCapsense_Filter.c **** *  initialized as well using one of these functions:
 415:Generated_Source\PSoC4/cyCapsense_Filter.c **** *  - cyCapsense_InitializeAllFilters().
 416:Generated_Source\PSoC4/cyCapsense_Filter.c **** *  - cyCapsense_InitializeWidgetFilter().
 417:Generated_Source\PSoC4/cyCapsense_Filter.c **** *
 418:Generated_Source\PSoC4/cyCapsense_Filter.c **** *******************************************************************************/
 419:Generated_Source\PSoC4/cyCapsense_Filter.c **** void cyCapsense_InitializeAllBaselines(void)
 420:Generated_Source\PSoC4/cyCapsense_Filter.c **** {
 421:Generated_Source\PSoC4/cyCapsense_Filter.c ****     uint32 widgetId;
 422:Generated_Source\PSoC4/cyCapsense_Filter.c **** 
 423:Generated_Source\PSoC4/cyCapsense_Filter.c ****     for(widgetId = cyCapsense_TOTAL_WIDGETS; widgetId-- > 0u;)
 424:Generated_Source\PSoC4/cyCapsense_Filter.c ****     {
 425:Generated_Source\PSoC4/cyCapsense_Filter.c ****         cyCapsense_InitializeWidgetBaseline(widgetId);
 426:Generated_Source\PSoC4/cyCapsense_Filter.c ****     }
 427:Generated_Source\PSoC4/cyCapsense_Filter.c **** }
 428:Generated_Source\PSoC4/cyCapsense_Filter.c **** 
 429:Generated_Source\PSoC4/cyCapsense_Filter.c **** 
ARM GAS  C:\Users\turan\AppData\Local\Temp\ccfzf2rj.s 			page 9


 430:Generated_Source\PSoC4/cyCapsense_Filter.c **** /*******************************************************************************
 431:Generated_Source\PSoC4/cyCapsense_Filter.c **** * Function Name: cyCapsense_InitializeWidgetBaseline
 432:Generated_Source\PSoC4/cyCapsense_Filter.c **** ****************************************************************************//**
 433:Generated_Source\PSoC4/cyCapsense_Filter.c **** *
 434:Generated_Source\PSoC4/cyCapsense_Filter.c **** * \brief
 435:Generated_Source\PSoC4/cyCapsense_Filter.c **** *  Initializes (or re-initializes) the baselines of all the sensors in a widget
 436:Generated_Source\PSoC4/cyCapsense_Filter.c **** *  specified by the input parameter.
 437:Generated_Source\PSoC4/cyCapsense_Filter.c **** *
 438:Generated_Source\PSoC4/cyCapsense_Filter.c **** * \details
 439:Generated_Source\PSoC4/cyCapsense_Filter.c **** *  Initializes (or re-initializes) the baseline for all the sensors of the
 440:Generated_Source\PSoC4/cyCapsense_Filter.c **** *  specified widget.
 441:Generated_Source\PSoC4/cyCapsense_Filter.c **** *
 442:Generated_Source\PSoC4/cyCapsense_Filter.c **** *  If any raw count filter is enabled, make sure the raw count filter history is
 443:Generated_Source\PSoC4/cyCapsense_Filter.c **** *  initialized as well using one of these functions:
 444:Generated_Source\PSoC4/cyCapsense_Filter.c **** *  - cyCapsense_InitializeAllFilters().
 445:Generated_Source\PSoC4/cyCapsense_Filter.c **** *  - cyCapsense_InitializeWidgetFilter().
 446:Generated_Source\PSoC4/cyCapsense_Filter.c **** *
 447:Generated_Source\PSoC4/cyCapsense_Filter.c **** * \param widgetId
 448:Generated_Source\PSoC4/cyCapsense_Filter.c **** *  Specifies the ID number of a widget to initialize the baseline of all the sensors
 449:Generated_Source\PSoC4/cyCapsense_Filter.c **** *  in the widget.
 450:Generated_Source\PSoC4/cyCapsense_Filter.c **** *  A macro for the widget ID can be found in the
 451:Generated_Source\PSoC4/cyCapsense_Filter.c **** *  cyCapsense Configuration header file defined as
 452:Generated_Source\PSoC4/cyCapsense_Filter.c **** *  cyCapsense_<WidgetName>_WDGT_ID.
 453:Generated_Source\PSoC4/cyCapsense_Filter.c **** *
 454:Generated_Source\PSoC4/cyCapsense_Filter.c **** *******************************************************************************/
 455:Generated_Source\PSoC4/cyCapsense_Filter.c **** void cyCapsense_InitializeWidgetBaseline(uint32 widgetId)
 456:Generated_Source\PSoC4/cyCapsense_Filter.c **** {
 457:Generated_Source\PSoC4/cyCapsense_Filter.c ****     uint32 sensorId;
 458:Generated_Source\PSoC4/cyCapsense_Filter.c ****     uint32 sensorsNumber;
 459:Generated_Source\PSoC4/cyCapsense_Filter.c **** 
 460:Generated_Source\PSoC4/cyCapsense_Filter.c ****     cyCapsense_FLASH_WD_STRUCT const *ptrWidget = &cyCapsense_dsFlash.wdgtArray[widgetId];
 461:Generated_Source\PSoC4/cyCapsense_Filter.c **** 
 462:Generated_Source\PSoC4/cyCapsense_Filter.c ****     /* Find total amount of sensors in specified widget */
 463:Generated_Source\PSoC4/cyCapsense_Filter.c ****     sensorsNumber = cyCapsense_GET_SNS_CNT_BY_PTR(ptrWidget);
 464:Generated_Source\PSoC4/cyCapsense_Filter.c **** 
 465:Generated_Source\PSoC4/cyCapsense_Filter.c ****     for(sensorId = sensorsNumber; sensorId-- > 0u;)
 466:Generated_Source\PSoC4/cyCapsense_Filter.c ****     {
 467:Generated_Source\PSoC4/cyCapsense_Filter.c ****         cyCapsense_InitializeSensorBaseline(widgetId, sensorId);
 468:Generated_Source\PSoC4/cyCapsense_Filter.c ****     }
 469:Generated_Source\PSoC4/cyCapsense_Filter.c **** }
 470:Generated_Source\PSoC4/cyCapsense_Filter.c **** 
 471:Generated_Source\PSoC4/cyCapsense_Filter.c **** 
 472:Generated_Source\PSoC4/cyCapsense_Filter.c **** /*******************************************************************************
 473:Generated_Source\PSoC4/cyCapsense_Filter.c **** * Function Name: cyCapsense_InitializeSensorBaseline
 474:Generated_Source\PSoC4/cyCapsense_Filter.c **** ****************************************************************************//**
 475:Generated_Source\PSoC4/cyCapsense_Filter.c **** *
 476:Generated_Source\PSoC4/cyCapsense_Filter.c **** * \brief
 477:Generated_Source\PSoC4/cyCapsense_Filter.c **** *  Initializes (or re-initializes) the baseline of a sensor in a widget specified
 478:Generated_Source\PSoC4/cyCapsense_Filter.c **** *  by the input parameters.
 479:Generated_Source\PSoC4/cyCapsense_Filter.c **** *
 480:Generated_Source\PSoC4/cyCapsense_Filter.c **** * \details
 481:Generated_Source\PSoC4/cyCapsense_Filter.c **** *  Initializes (or re-initializes) the baseline for a specified sensor within
 482:Generated_Source\PSoC4/cyCapsense_Filter.c **** *  a specified widget.
 483:Generated_Source\PSoC4/cyCapsense_Filter.c **** *
 484:Generated_Source\PSoC4/cyCapsense_Filter.c **** * \param widgetId
 485:Generated_Source\PSoC4/cyCapsense_Filter.c **** *  Specifies the ID number of a widget to initialize the baseline of the sensor
 486:Generated_Source\PSoC4/cyCapsense_Filter.c **** *  in the widget.
ARM GAS  C:\Users\turan\AppData\Local\Temp\ccfzf2rj.s 			page 10


 487:Generated_Source\PSoC4/cyCapsense_Filter.c **** *  A macro for the widget ID can be found in the
 488:Generated_Source\PSoC4/cyCapsense_Filter.c **** *  cyCapsense Configuration header file defined as
 489:Generated_Source\PSoC4/cyCapsense_Filter.c **** *  cyCapsense_<WidgetName>_WDGT_ID.
 490:Generated_Source\PSoC4/cyCapsense_Filter.c **** *
 491:Generated_Source\PSoC4/cyCapsense_Filter.c **** * \param sensorId
 492:Generated_Source\PSoC4/cyCapsense_Filter.c **** *  Specifies the ID number of the sensor within the widget to initialize its
 493:Generated_Source\PSoC4/cyCapsense_Filter.c **** *  baseline.
 494:Generated_Source\PSoC4/cyCapsense_Filter.c **** *  A macro for the sensor ID within a specified widget can be found in the
 495:Generated_Source\PSoC4/cyCapsense_Filter.c **** *  cyCapsense Configuration header file defined as
 496:Generated_Source\PSoC4/cyCapsense_Filter.c **** *  cyCapsense_<WidgetName>_SNS<SensorNumber>_ID.
 497:Generated_Source\PSoC4/cyCapsense_Filter.c **** *
 498:Generated_Source\PSoC4/cyCapsense_Filter.c **** *******************************************************************************/
 499:Generated_Source\PSoC4/cyCapsense_Filter.c **** void cyCapsense_InitializeSensorBaseline(uint32 widgetId, uint32 sensorId)
 500:Generated_Source\PSoC4/cyCapsense_Filter.c **** {
 501:Generated_Source\PSoC4/cyCapsense_Filter.c ****     cyCapsense_RAM_SNS_STRUCT *ptrSensor = NULL;
 502:Generated_Source\PSoC4/cyCapsense_Filter.c ****     cyCapsense_FLASH_WD_STRUCT const *ptrWidget = NULL;
 503:Generated_Source\PSoC4/cyCapsense_Filter.c ****     ptrWidget = &cyCapsense_dsFlash.wdgtArray[widgetId];
 504:Generated_Source\PSoC4/cyCapsense_Filter.c **** 
 505:Generated_Source\PSoC4/cyCapsense_Filter.c ****     /* Find pointer to specified sensor object */
 506:Generated_Source\PSoC4/cyCapsense_Filter.c ****     ptrSensor = ptrWidget->ptr2SnsRam;
 507:Generated_Source\PSoC4/cyCapsense_Filter.c ****     ptrSensor = &ptrSensor[sensorId];
 508:Generated_Source\PSoC4/cyCapsense_Filter.c **** 
 509:Generated_Source\PSoC4/cyCapsense_Filter.c ****     cyCapsense_FtInitializeBaseline(ptrSensor, (uint32)ptrWidget->wdgtType);
 510:Generated_Source\PSoC4/cyCapsense_Filter.c **** }
 511:Generated_Source\PSoC4/cyCapsense_Filter.c **** 
 512:Generated_Source\PSoC4/cyCapsense_Filter.c **** 
 513:Generated_Source\PSoC4/cyCapsense_Filter.c **** /*******************************************************************************
 514:Generated_Source\PSoC4/cyCapsense_Filter.c **** * Function Name: cyCapsense_FtInitializeBaseline
 515:Generated_Source\PSoC4/cyCapsense_Filter.c **** ****************************************************************************//**
 516:Generated_Source\PSoC4/cyCapsense_Filter.c **** *
 517:Generated_Source\PSoC4/cyCapsense_Filter.c **** * \brief
 518:Generated_Source\PSoC4/cyCapsense_Filter.c **** *  Initializes the baseline history for a sensor indicated by an input
 519:Generated_Source\PSoC4/cyCapsense_Filter.c **** *  parameter.
 520:Generated_Source\PSoC4/cyCapsense_Filter.c **** *
 521:Generated_Source\PSoC4/cyCapsense_Filter.c **** * \details
 522:Generated_Source\PSoC4/cyCapsense_Filter.c **** *  Initializes the baseline history for a sensor indicated by an input
 523:Generated_Source\PSoC4/cyCapsense_Filter.c **** *  parameter.
 524:Generated_Source\PSoC4/cyCapsense_Filter.c **** *
 525:Generated_Source\PSoC4/cyCapsense_Filter.c **** * \param *ptrSensor
 526:Generated_Source\PSoC4/cyCapsense_Filter.c **** *  The pointer to the sensor RAM object.
 527:Generated_Source\PSoC4/cyCapsense_Filter.c **** *
 528:Generated_Source\PSoC4/cyCapsense_Filter.c **** * \param wdType
 529:Generated_Source\PSoC4/cyCapsense_Filter.c **** *  Specifies the type of a widget.
 530:Generated_Source\PSoC4/cyCapsense_Filter.c **** *
 531:Generated_Source\PSoC4/cyCapsense_Filter.c **** *******************************************************************************/
 532:Generated_Source\PSoC4/cyCapsense_Filter.c **** void cyCapsense_FtInitializeBaseline(cyCapsense_RAM_SNS_STRUCT *ptrSensor, uint32 wdType)
 533:Generated_Source\PSoC4/cyCapsense_Filter.c **** {
 534:Generated_Source\PSoC4/cyCapsense_Filter.c ****     uint32 freqChannel;
 535:Generated_Source\PSoC4/cyCapsense_Filter.c **** 
 536:Generated_Source\PSoC4/cyCapsense_Filter.c ****     /* Apply baseline initialization to every channel in sensor */
 537:Generated_Source\PSoC4/cyCapsense_Filter.c ****     for(freqChannel = cyCapsense_NUM_SCAN_FREQS; freqChannel-- > 0u;)
 538:Generated_Source\PSoC4/cyCapsense_Filter.c ****     {
 539:Generated_Source\PSoC4/cyCapsense_Filter.c ****         cyCapsense_FtInitializeBaselineChannel(ptrSensor, wdType, freqChannel);
 540:Generated_Source\PSoC4/cyCapsense_Filter.c ****     }
 541:Generated_Source\PSoC4/cyCapsense_Filter.c **** }
 542:Generated_Source\PSoC4/cyCapsense_Filter.c **** 
 543:Generated_Source\PSoC4/cyCapsense_Filter.c **** 
ARM GAS  C:\Users\turan\AppData\Local\Temp\ccfzf2rj.s 			page 11


 544:Generated_Source\PSoC4/cyCapsense_Filter.c **** /*******************************************************************************
 545:Generated_Source\PSoC4/cyCapsense_Filter.c **** * Function Name: cyCapsense_FtInitializeBaselineChannel
 546:Generated_Source\PSoC4/cyCapsense_Filter.c **** ****************************************************************************//**
 547:Generated_Source\PSoC4/cyCapsense_Filter.c **** *
 548:Generated_Source\PSoC4/cyCapsense_Filter.c **** * \brief
 549:Generated_Source\PSoC4/cyCapsense_Filter.c **** *  Initializes the baseline history for a sensor indicated by an input
 550:Generated_Source\PSoC4/cyCapsense_Filter.c **** *  parameter.
 551:Generated_Source\PSoC4/cyCapsense_Filter.c **** *
 552:Generated_Source\PSoC4/cyCapsense_Filter.c **** * \details
 553:Generated_Source\PSoC4/cyCapsense_Filter.c **** *  Initializes the baseline history for a sensor indicated by an input
 554:Generated_Source\PSoC4/cyCapsense_Filter.c **** *  parameter.
 555:Generated_Source\PSoC4/cyCapsense_Filter.c **** *
 556:Generated_Source\PSoC4/cyCapsense_Filter.c **** * \param *ptrSensor
 557:Generated_Source\PSoC4/cyCapsense_Filter.c **** *  The pointer to the sensor RAM object.
 558:Generated_Source\PSoC4/cyCapsense_Filter.c **** *
 559:Generated_Source\PSoC4/cyCapsense_Filter.c **** * \param wdType
 560:Generated_Source\PSoC4/cyCapsense_Filter.c **** *  Specifies the type of a widget.
 561:Generated_Source\PSoC4/cyCapsense_Filter.c **** *
 562:Generated_Source\PSoC4/cyCapsense_Filter.c **** * \param channel
 563:Generated_Source\PSoC4/cyCapsense_Filter.c **** *  Specifies the number of the channel to be initialized.
 564:Generated_Source\PSoC4/cyCapsense_Filter.c **** *
 565:Generated_Source\PSoC4/cyCapsense_Filter.c **** *******************************************************************************/
 566:Generated_Source\PSoC4/cyCapsense_Filter.c **** void cyCapsense_FtInitializeBaselineChannel(cyCapsense_RAM_SNS_STRUCT *ptrSensor, uint32 wdType, ui
 567:Generated_Source\PSoC4/cyCapsense_Filter.c **** {
  28              		.loc 1 567 0
  29              		.cfi_startproc
  30              		@ args = 0, pretend = 0, frame = 0
  31              		@ frame_needed = 0, uses_anonymous_args = 0
  32              		@ link register save eliminated.
  33              	.LVL0:
 568:Generated_Source\PSoC4/cyCapsense_Filter.c ****     #if (cyCapsense_BASELINE_TYPE == cyCapsense_IIR_BASELINE)
 569:Generated_Source\PSoC4/cyCapsense_Filter.c ****         if ((cyCapsense_WD_TYPE_ENUM)wdType != cyCapsense_WD_PROXIMITY_E)
  34              		.loc 1 569 0
  35 0000 FF23     		movs	r3, #255
  36 0002 1940     		ands	r1, r3
  37              	.LVL1:
  38 0004 0629     		cmp	r1, #6
  39 0006 02D0     		beq	.L2
 570:Generated_Source\PSoC4/cyCapsense_Filter.c ****         {
 571:Generated_Source\PSoC4/cyCapsense_Filter.c ****             #if (cyCapsense_REGULAR_SENSOR_EN)
 572:Generated_Source\PSoC4/cyCapsense_Filter.c ****                 #if (cyCapsense_REGULAR_IIR_BL_TYPE == cyCapsense_IIR_FILTER_PERFORMANCE)
 573:Generated_Source\PSoC4/cyCapsense_Filter.c ****                     ptrSensor->bslnExt[channel] = 0u;
  40              		.loc 1 573 0
  41 0008 8318     		adds	r3, r0, r2
  42 000a 0021     		movs	r1, #0
  43 000c 1971     		strb	r1, [r3, #4]
  44              	.L2:
 574:Generated_Source\PSoC4/cyCapsense_Filter.c ****                 #endif /* (cyCapsense_REGULAR_IIR_BL_TYPE == cyCapsense_IIR_FILTER_PERFORMANCE) */
 575:Generated_Source\PSoC4/cyCapsense_Filter.c ****             #endif /* (cyCapsense_REGULAR_SENSOR_EN) */
 576:Generated_Source\PSoC4/cyCapsense_Filter.c ****         }
 577:Generated_Source\PSoC4/cyCapsense_Filter.c ****         else
 578:Generated_Source\PSoC4/cyCapsense_Filter.c ****         {
 579:Generated_Source\PSoC4/cyCapsense_Filter.c ****             #if (cyCapsense_PROXIMITY_SENSOR_EN)
 580:Generated_Source\PSoC4/cyCapsense_Filter.c ****                 #if (cyCapsense_PROX_IIR_BL_TYPE == cyCapsense_IIR_FILTER_PERFORMANCE)
 581:Generated_Source\PSoC4/cyCapsense_Filter.c ****                     ptrSensor->bslnExt[channel] = 0u;
 582:Generated_Source\PSoC4/cyCapsense_Filter.c ****                 #endif /* (cyCapsense_PROX_IIR_BL_TYPE == cyCapsense_IIR_FILTER_PERFORMANCE) */
 583:Generated_Source\PSoC4/cyCapsense_Filter.c ****             #endif /* (cyCapsense_PROX_SENSOR_EN) */
ARM GAS  C:\Users\turan\AppData\Local\Temp\ccfzf2rj.s 			page 12


 584:Generated_Source\PSoC4/cyCapsense_Filter.c ****         }
 585:Generated_Source\PSoC4/cyCapsense_Filter.c ****     #else
 586:Generated_Source\PSoC4/cyCapsense_Filter.c ****         /* cyCapsense_BASELINE_TYPE == cyCapsense_BUCKET_BASELINE */
 587:Generated_Source\PSoC4/cyCapsense_Filter.c ****         ptrSensor->bslnExt[channel] = 0u;
 588:Generated_Source\PSoC4/cyCapsense_Filter.c ****     #endif /* (cyCapsense_BASELINE_TYPE == cyCapsense_IIR_BASELINE) */
 589:Generated_Source\PSoC4/cyCapsense_Filter.c **** 
 590:Generated_Source\PSoC4/cyCapsense_Filter.c ****     ptrSensor->bsln[channel] = ptrSensor->raw[channel];
  45              		.loc 1 590 0
  46 000e 5300     		lsls	r3, r2, #1
  47 0010 195A     		ldrh	r1, [r3, r0]
  48 0012 C318     		adds	r3, r0, r3
  49 0014 5980     		strh	r1, [r3, #2]
 591:Generated_Source\PSoC4/cyCapsense_Filter.c **** 
 592:Generated_Source\PSoC4/cyCapsense_Filter.c ****     #if (cyCapsense_ENABLE == cyCapsense_TST_BSLN_DUPLICATION_EN)
 593:Generated_Source\PSoC4/cyCapsense_Filter.c ****     /* Update baseline inversion of the channel in sensor */
 594:Generated_Source\PSoC4/cyCapsense_Filter.c ****         ptrSensor->bslnInv[channel] = ~(ptrSensor->bsln[channel]);
 595:Generated_Source\PSoC4/cyCapsense_Filter.c ****     #endif /* (cyCapsense_ENABLE == cyCapsense_TST_BSLN_DUPLICATION_EN) */
 596:Generated_Source\PSoC4/cyCapsense_Filter.c **** 
 597:Generated_Source\PSoC4/cyCapsense_Filter.c ****     ptrSensor->negBslnRstCnt[channel] = 0u;
  50              		.loc 1 597 0
  51 0016 8218     		adds	r2, r0, r2
  52              	.LVL2:
  53 0018 0023     		movs	r3, #0
  54 001a 1372     		strb	r3, [r2, #8]
 598:Generated_Source\PSoC4/cyCapsense_Filter.c **** }
  55              		.loc 1 598 0
  56              		@ sp needed
  57 001c 7047     		bx	lr
  58              		.cfi_endproc
  59              	.LFE10:
  60              		.size	cyCapsense_FtInitializeBaselineChannel, .-cyCapsense_FtInitializeBaselineChannel
  61 001e C046     		.section	.text.cyCapsense_FtInitializeBaseline,"ax",%progbits
  62              		.align	2
  63              		.global	cyCapsense_FtInitializeBaseline
  64              		.code	16
  65              		.thumb_func
  66              		.type	cyCapsense_FtInitializeBaseline, %function
  67              	cyCapsense_FtInitializeBaseline:
  68              	.LFB9:
 533:Generated_Source\PSoC4/cyCapsense_Filter.c ****     uint32 freqChannel;
  69              		.loc 1 533 0
  70              		.cfi_startproc
  71              		@ args = 0, pretend = 0, frame = 0
  72              		@ frame_needed = 0, uses_anonymous_args = 0
  73              	.LVL3:
  74 0000 70B5     		push	{r4, r5, r6, lr}
  75              		.cfi_def_cfa_offset 16
  76              		.cfi_offset 4, -16
  77              		.cfi_offset 5, -12
  78              		.cfi_offset 6, -8
  79              		.cfi_offset 14, -4
  80 0002 0600     		movs	r6, r0
  81 0004 0D00     		movs	r5, r1
  82              	.LVL4:
 537:Generated_Source\PSoC4/cyCapsense_Filter.c ****     {
  83              		.loc 1 537 0
  84 0006 0123     		movs	r3, #1
ARM GAS  C:\Users\turan\AppData\Local\Temp\ccfzf2rj.s 			page 13


  85 0008 05E0     		b	.L4
  86              	.LVL5:
  87              	.L5:
 539:Generated_Source\PSoC4/cyCapsense_Filter.c ****     }
  88              		.loc 1 539 0
  89 000a 2200     		movs	r2, r4
  90 000c 2900     		movs	r1, r5
  91 000e 3000     		movs	r0, r6
  92 0010 FFF7FEFF 		bl	cyCapsense_FtInitializeBaselineChannel
  93              	.LVL6:
 537:Generated_Source\PSoC4/cyCapsense_Filter.c ****     {
  94              		.loc 1 537 0
  95 0014 2300     		movs	r3, r4
  96              	.LVL7:
  97              	.L4:
 537:Generated_Source\PSoC4/cyCapsense_Filter.c ****     {
  98              		.loc 1 537 0 is_stmt 0 discriminator 1
  99 0016 5C1E     		subs	r4, r3, #1
 100              	.LVL8:
 101 0018 002B     		cmp	r3, #0
 102 001a F6D1     		bne	.L5
 541:Generated_Source\PSoC4/cyCapsense_Filter.c **** 
 103              		.loc 1 541 0 is_stmt 1
 104              		@ sp needed
 105              	.LVL9:
 106              	.LVL10:
 107              	.LVL11:
 108 001c 70BD     		pop	{r4, r5, r6, pc}
 109              		.cfi_endproc
 110              	.LFE9:
 111              		.size	cyCapsense_FtInitializeBaseline, .-cyCapsense_FtInitializeBaseline
 112 001e C046     		.section	.text.cyCapsense_InitializeSensorBaseline,"ax",%progbits
 113              		.align	2
 114              		.global	cyCapsense_InitializeSensorBaseline
 115              		.code	16
 116              		.thumb_func
 117              		.type	cyCapsense_InitializeSensorBaseline, %function
 118              	cyCapsense_InitializeSensorBaseline:
 119              	.LFB8:
 500:Generated_Source\PSoC4/cyCapsense_Filter.c ****     cyCapsense_RAM_SNS_STRUCT *ptrSensor = NULL;
 120              		.loc 1 500 0
 121              		.cfi_startproc
 122              		@ args = 0, pretend = 0, frame = 0
 123              		@ frame_needed = 0, uses_anonymous_args = 0
 124              	.LVL12:
 125 0000 10B5     		push	{r4, lr}
 126              		.cfi_def_cfa_offset 8
 127              		.cfi_offset 4, -8
 128              		.cfi_offset 14, -4
 129              	.LVL13:
 506:Generated_Source\PSoC4/cyCapsense_Filter.c ****     ptrSensor = &ptrSensor[sensorId];
 130              		.loc 1 506 0
 131 0002 4001     		lsls	r0, r0, #5
 132              	.LVL14:
 133 0004 054B     		ldr	r3, .L7
 134 0006 1B18     		adds	r3, r3, r0
 135              	.LVL15:
ARM GAS  C:\Users\turan\AppData\Local\Temp\ccfzf2rj.s 			page 14


 507:Generated_Source\PSoC4/cyCapsense_Filter.c **** 
 136              		.loc 1 507 0
 137 0008 8A00     		lsls	r2, r1, #2
 138 000a 5118     		adds	r1, r2, r1
 139              	.LVL16:
 140 000c 4800     		lsls	r0, r1, #1
 141 000e 9A68     		ldr	r2, [r3, #8]
 142 0010 9446     		mov	ip, r2
 143 0012 6044     		add	r0, r0, ip
 144              	.LVL17:
 509:Generated_Source\PSoC4/cyCapsense_Filter.c **** }
 145              		.loc 1 509 0
 146 0014 997E     		ldrb	r1, [r3, #26]
 147 0016 FFF7FEFF 		bl	cyCapsense_FtInitializeBaseline
 148              	.LVL18:
 510:Generated_Source\PSoC4/cyCapsense_Filter.c **** 
 149              		.loc 1 510 0
 150              		@ sp needed
 151 001a 10BD     		pop	{r4, pc}
 152              	.L8:
 153              		.align	2
 154              	.L7:
 155 001c 00000000 		.word	cyCapsense_dsFlash
 156              		.cfi_endproc
 157              	.LFE8:
 158              		.size	cyCapsense_InitializeSensorBaseline, .-cyCapsense_InitializeSensorBaseline
 159              		.section	.text.cyCapsense_InitializeWidgetBaseline,"ax",%progbits
 160              		.align	2
 161              		.global	cyCapsense_InitializeWidgetBaseline
 162              		.code	16
 163              		.thumb_func
 164              		.type	cyCapsense_InitializeWidgetBaseline, %function
 165              	cyCapsense_InitializeWidgetBaseline:
 166              	.LFB7:
 456:Generated_Source\PSoC4/cyCapsense_Filter.c ****     uint32 sensorId;
 167              		.loc 1 456 0
 168              		.cfi_startproc
 169              		@ args = 0, pretend = 0, frame = 0
 170              		@ frame_needed = 0, uses_anonymous_args = 0
 171              	.LVL19:
 172 0000 70B5     		push	{r4, r5, r6, lr}
 173              		.cfi_def_cfa_offset 16
 174              		.cfi_offset 4, -16
 175              		.cfi_offset 5, -12
 176              		.cfi_offset 6, -8
 177              		.cfi_offset 14, -4
 178 0002 0500     		movs	r5, r0
 179              	.LVL20:
 463:Generated_Source\PSoC4/cyCapsense_Filter.c **** 
 180              		.loc 1 463 0
 181 0004 4301     		lsls	r3, r0, #5
 182 0006 064A     		ldr	r2, .L12
 183 0008 D318     		adds	r3, r2, r3
 184              	.LVL21:
 185 000a 1B8B     		ldrh	r3, [r3, #24]
 186              	.LVL22:
 465:Generated_Source\PSoC4/cyCapsense_Filter.c ****     {
ARM GAS  C:\Users\turan\AppData\Local\Temp\ccfzf2rj.s 			page 15


 187              		.loc 1 465 0
 188 000c 04E0     		b	.L10
 189              	.LVL23:
 190              	.L11:
 467:Generated_Source\PSoC4/cyCapsense_Filter.c ****     }
 191              		.loc 1 467 0
 192 000e 2100     		movs	r1, r4
 193 0010 2800     		movs	r0, r5
 194 0012 FFF7FEFF 		bl	cyCapsense_InitializeSensorBaseline
 195              	.LVL24:
 465:Generated_Source\PSoC4/cyCapsense_Filter.c ****     {
 196              		.loc 1 465 0
 197 0016 2300     		movs	r3, r4
 198              	.LVL25:
 199              	.L10:
 465:Generated_Source\PSoC4/cyCapsense_Filter.c ****     {
 200              		.loc 1 465 0 is_stmt 0 discriminator 1
 201 0018 5C1E     		subs	r4, r3, #1
 202              	.LVL26:
 203 001a 002B     		cmp	r3, #0
 204 001c F7D1     		bne	.L11
 469:Generated_Source\PSoC4/cyCapsense_Filter.c **** 
 205              		.loc 1 469 0 is_stmt 1
 206              		@ sp needed
 207              	.LVL27:
 208              	.LVL28:
 209 001e 70BD     		pop	{r4, r5, r6, pc}
 210              	.L13:
 211              		.align	2
 212              	.L12:
 213 0020 00000000 		.word	cyCapsense_dsFlash
 214              		.cfi_endproc
 215              	.LFE7:
 216              		.size	cyCapsense_InitializeWidgetBaseline, .-cyCapsense_InitializeWidgetBaseline
 217              		.section	.text.cyCapsense_InitializeAllBaselines,"ax",%progbits
 218              		.align	2
 219              		.global	cyCapsense_InitializeAllBaselines
 220              		.code	16
 221              		.thumb_func
 222              		.type	cyCapsense_InitializeAllBaselines, %function
 223              	cyCapsense_InitializeAllBaselines:
 224              	.LFB6:
 420:Generated_Source\PSoC4/cyCapsense_Filter.c ****     uint32 widgetId;
 225              		.loc 1 420 0
 226              		.cfi_startproc
 227              		@ args = 0, pretend = 0, frame = 0
 228              		@ frame_needed = 0, uses_anonymous_args = 0
 229 0000 10B5     		push	{r4, lr}
 230              		.cfi_def_cfa_offset 8
 231              		.cfi_offset 4, -8
 232              		.cfi_offset 14, -4
 233              	.LVL29:
 423:Generated_Source\PSoC4/cyCapsense_Filter.c ****     {
 234              		.loc 1 423 0
 235 0002 0323     		movs	r3, #3
 236 0004 03E0     		b	.L15
 237              	.LVL30:
ARM GAS  C:\Users\turan\AppData\Local\Temp\ccfzf2rj.s 			page 16


 238              	.L16:
 425:Generated_Source\PSoC4/cyCapsense_Filter.c ****     }
 239              		.loc 1 425 0
 240 0006 2000     		movs	r0, r4
 241 0008 FFF7FEFF 		bl	cyCapsense_InitializeWidgetBaseline
 242              	.LVL31:
 423:Generated_Source\PSoC4/cyCapsense_Filter.c ****     {
 243              		.loc 1 423 0
 244 000c 2300     		movs	r3, r4
 245              	.LVL32:
 246              	.L15:
 423:Generated_Source\PSoC4/cyCapsense_Filter.c ****     {
 247              		.loc 1 423 0 is_stmt 0 discriminator 1
 248 000e 5C1E     		subs	r4, r3, #1
 249              	.LVL33:
 250 0010 002B     		cmp	r3, #0
 251 0012 F8D1     		bne	.L16
 427:Generated_Source\PSoC4/cyCapsense_Filter.c **** 
 252              		.loc 1 427 0 is_stmt 1
 253              		@ sp needed
 254              	.LVL34:
 255 0014 10BD     		pop	{r4, pc}
 256              		.cfi_endproc
 257              	.LFE6:
 258              		.size	cyCapsense_InitializeAllBaselines, .-cyCapsense_InitializeAllBaselines
 259 0016 C046     		.section	.text.cyCapsense_InitializeAverageInternal,"ax",%progbits
 260              		.align	2
 261              		.global	cyCapsense_InitializeAverageInternal
 262              		.code	16
 263              		.thumb_func
 264              		.type	cyCapsense_InitializeAverageInternal, %function
 265              	cyCapsense_InitializeAverageInternal:
 266              	.LFB15:
 599:Generated_Source\PSoC4/cyCapsense_Filter.c **** 
 600:Generated_Source\PSoC4/cyCapsense_Filter.c **** #if ((cyCapsense_ENABLE == cyCapsense_RC_FILTER_EN) || \
 601:Generated_Source\PSoC4/cyCapsense_Filter.c ****      (0u != (cyCapsense_CSD_AUTOTUNE & cyCapsense_CSD_SS_TH_EN)))
 602:Generated_Source\PSoC4/cyCapsense_Filter.c **** /*******************************************************************************
 603:Generated_Source\PSoC4/cyCapsense_Filter.c **** * Function Name: cyCapsense_InitializeAllFilters
 604:Generated_Source\PSoC4/cyCapsense_Filter.c **** ****************************************************************************//**
 605:Generated_Source\PSoC4/cyCapsense_Filter.c **** *
 606:Generated_Source\PSoC4/cyCapsense_Filter.c **** * \brief
 607:Generated_Source\PSoC4/cyCapsense_Filter.c **** *  Initializes (or re-initializes) the raw count filter history of all the
 608:Generated_Source\PSoC4/cyCapsense_Filter.c **** *  sensors of all the widgets.
 609:Generated_Source\PSoC4/cyCapsense_Filter.c **** *
 610:Generated_Source\PSoC4/cyCapsense_Filter.c **** * \details
 611:Generated_Source\PSoC4/cyCapsense_Filter.c **** *  Initializes the raw count filter history for all the sensors of all the
 612:Generated_Source\PSoC4/cyCapsense_Filter.c **** *  widgets. Also, this function can be used to re-initialize baselines.
 613:Generated_Source\PSoC4/cyCapsense_Filter.c **** *  cyCapsense_Start() calls this API as part of cyCapsense
 614:Generated_Source\PSoC4/cyCapsense_Filter.c **** *  operation initialization.
 615:Generated_Source\PSoC4/cyCapsense_Filter.c **** *
 616:Generated_Source\PSoC4/cyCapsense_Filter.c **** *******************************************************************************/
 617:Generated_Source\PSoC4/cyCapsense_Filter.c **** void cyCapsense_InitializeAllFilters(void)
 618:Generated_Source\PSoC4/cyCapsense_Filter.c **** {
 619:Generated_Source\PSoC4/cyCapsense_Filter.c ****     uint32 widgetId;
 620:Generated_Source\PSoC4/cyCapsense_Filter.c **** 
 621:Generated_Source\PSoC4/cyCapsense_Filter.c ****     for(widgetId = cyCapsense_TOTAL_WIDGETS; widgetId-- > 0u;)
 622:Generated_Source\PSoC4/cyCapsense_Filter.c ****     {
ARM GAS  C:\Users\turan\AppData\Local\Temp\ccfzf2rj.s 			page 17


 623:Generated_Source\PSoC4/cyCapsense_Filter.c ****         cyCapsense_InitializeWidgetFilter(widgetId);
 624:Generated_Source\PSoC4/cyCapsense_Filter.c ****     }
 625:Generated_Source\PSoC4/cyCapsense_Filter.c **** }
 626:Generated_Source\PSoC4/cyCapsense_Filter.c **** 
 627:Generated_Source\PSoC4/cyCapsense_Filter.c **** /*******************************************************************************
 628:Generated_Source\PSoC4/cyCapsense_Filter.c **** * Function Name: cyCapsense_InitializeWidgetFilter
 629:Generated_Source\PSoC4/cyCapsense_Filter.c **** ****************************************************************************//**
 630:Generated_Source\PSoC4/cyCapsense_Filter.c **** *
 631:Generated_Source\PSoC4/cyCapsense_Filter.c **** * \brief
 632:Generated_Source\PSoC4/cyCapsense_Filter.c **** *  Initializes (or re-initializes) the raw count filter history of all the sensors
 633:Generated_Source\PSoC4/cyCapsense_Filter.c **** *  in a widget specified by the input parameter.
 634:Generated_Source\PSoC4/cyCapsense_Filter.c **** *
 635:Generated_Source\PSoC4/cyCapsense_Filter.c **** * \details
 636:Generated_Source\PSoC4/cyCapsense_Filter.c **** *  Initializes (or re-initializes) the raw count filter history of all the sensors
 637:Generated_Source\PSoC4/cyCapsense_Filter.c **** *  in a widget specified by the input parameter.
 638:Generated_Source\PSoC4/cyCapsense_Filter.c **** *
 639:Generated_Source\PSoC4/cyCapsense_Filter.c **** * \param widgetId
 640:Generated_Source\PSoC4/cyCapsense_Filter.c **** *  Specifies the ID number of a widget to initialize the filter history of all
 641:Generated_Source\PSoC4/cyCapsense_Filter.c **** *  the sensors in the widget.
 642:Generated_Source\PSoC4/cyCapsense_Filter.c **** *  A macro for the widget ID can be found in the
 643:Generated_Source\PSoC4/cyCapsense_Filter.c **** *  cyCapsense Configuration header file defined as
 644:Generated_Source\PSoC4/cyCapsense_Filter.c **** *  cyCapsense_<WidgetName>_WDGT_ID.
 645:Generated_Source\PSoC4/cyCapsense_Filter.c **** *
 646:Generated_Source\PSoC4/cyCapsense_Filter.c **** *******************************************************************************/
 647:Generated_Source\PSoC4/cyCapsense_Filter.c **** void cyCapsense_InitializeWidgetFilter(uint32 widgetId)
 648:Generated_Source\PSoC4/cyCapsense_Filter.c **** {
 649:Generated_Source\PSoC4/cyCapsense_Filter.c ****     uint32 sensorId;
 650:Generated_Source\PSoC4/cyCapsense_Filter.c ****     uint32 sensorsNumber;
 651:Generated_Source\PSoC4/cyCapsense_Filter.c **** 
 652:Generated_Source\PSoC4/cyCapsense_Filter.c ****     cyCapsense_FLASH_WD_STRUCT const *ptrWidget;
 653:Generated_Source\PSoC4/cyCapsense_Filter.c ****     cyCapsense_RAM_SNS_STRUCT *ptrSensor = NULL;
 654:Generated_Source\PSoC4/cyCapsense_Filter.c ****     #if (cyCapsense_ENABLE == cyCapsense_RC_FILTER_EN)
 655:Generated_Source\PSoC4/cyCapsense_Filter.c ****         cyCapsense_PTR_FILTER_VARIANT ptrFilterHistObj;
 656:Generated_Source\PSoC4/cyCapsense_Filter.c ****     #endif
 657:Generated_Source\PSoC4/cyCapsense_Filter.c **** 
 658:Generated_Source\PSoC4/cyCapsense_Filter.c ****     #if (0u != (cyCapsense_CSD_AUTOTUNE & cyCapsense_CSD_SS_TH_EN))
 659:Generated_Source\PSoC4/cyCapsense_Filter.c ****         cyCapsense_RAM_WD_BASE_STRUCT *ptrWidgetRam;
 660:Generated_Source\PSoC4/cyCapsense_Filter.c ****         SMARTSENSE_CSD_NOISE_ENVELOPE_STRUCT *ptrNoiseEnvelope = NULL;
 661:Generated_Source\PSoC4/cyCapsense_Filter.c ****     #endif /* (0u != (cyCapsense_CSD_AUTOTUNE & cyCapsense_CSD_SS_TH_EN)) */
 662:Generated_Source\PSoC4/cyCapsense_Filter.c **** 
 663:Generated_Source\PSoC4/cyCapsense_Filter.c ****     ptrWidget = &cyCapsense_dsFlash.wdgtArray[widgetId];
 664:Generated_Source\PSoC4/cyCapsense_Filter.c **** 
 665:Generated_Source\PSoC4/cyCapsense_Filter.c ****     #if (0u != (cyCapsense_CSD_AUTOTUNE & cyCapsense_CSD_SS_TH_EN))
 666:Generated_Source\PSoC4/cyCapsense_Filter.c ****         ptrWidgetRam = ptrWidget->ptr2WdgtRam;
 667:Generated_Source\PSoC4/cyCapsense_Filter.c ****     #endif /* (0u != (cyCapsense_CSD_AUTOTUNE & cyCapsense_CSD_SS_TH_EN)) */
 668:Generated_Source\PSoC4/cyCapsense_Filter.c **** 
 669:Generated_Source\PSoC4/cyCapsense_Filter.c ****     /* Find total amount of sensors in specified widget */
 670:Generated_Source\PSoC4/cyCapsense_Filter.c ****     sensorsNumber = cyCapsense_GET_SNS_CNT_BY_PTR(ptrWidget);
 671:Generated_Source\PSoC4/cyCapsense_Filter.c **** 
 672:Generated_Source\PSoC4/cyCapsense_Filter.c ****     for (sensorId = sensorsNumber; sensorId-- > 0u;)
 673:Generated_Source\PSoC4/cyCapsense_Filter.c ****     {
 674:Generated_Source\PSoC4/cyCapsense_Filter.c ****         /* Find pointer to specified sensor object */
 675:Generated_Source\PSoC4/cyCapsense_Filter.c ****         ptrSensor = ptrWidget->ptr2SnsRam;
 676:Generated_Source\PSoC4/cyCapsense_Filter.c ****         ptrSensor = &ptrSensor[sensorId];
 677:Generated_Source\PSoC4/cyCapsense_Filter.c **** 
 678:Generated_Source\PSoC4/cyCapsense_Filter.c ****         #if (cyCapsense_ENABLE == cyCapsense_RC_FILTER_EN)
 679:Generated_Source\PSoC4/cyCapsense_Filter.c ****             /* Find pointer to to specified filter sensor object */
ARM GAS  C:\Users\turan\AppData\Local\Temp\ccfzf2rj.s 			page 18


 680:Generated_Source\PSoC4/cyCapsense_Filter.c ****             ptrFilterHistObj.ptr = ptrWidget->ptr2FltrHistory;
 681:Generated_Source\PSoC4/cyCapsense_Filter.c ****         #endif
 682:Generated_Source\PSoC4/cyCapsense_Filter.c **** 
 683:Generated_Source\PSoC4/cyCapsense_Filter.c ****         #if (0u != (cyCapsense_CSD_AUTOTUNE & cyCapsense_CSD_SS_TH_EN))
 684:Generated_Source\PSoC4/cyCapsense_Filter.c ****             /* Find pointer to specified noise envelope sensor object */
 685:Generated_Source\PSoC4/cyCapsense_Filter.c ****             ptrNoiseEnvelope = ptrWidget->ptr2NoiseEnvlp;
 686:Generated_Source\PSoC4/cyCapsense_Filter.c ****             ptrNoiseEnvelope = &ptrNoiseEnvelope[sensorId];
 687:Generated_Source\PSoC4/cyCapsense_Filter.c ****         #endif /* (0u != (cyCapsense_CSD_AUTOTUNE & cyCapsense_CSD_SS_TH_EN)) */
 688:Generated_Source\PSoC4/cyCapsense_Filter.c **** 
 689:Generated_Source\PSoC4/cyCapsense_Filter.c ****         if ((cyCapsense_WD_TYPE_ENUM)ptrWidget->wdgtType != cyCapsense_WD_PROXIMITY_E)
 690:Generated_Source\PSoC4/cyCapsense_Filter.c ****         {
 691:Generated_Source\PSoC4/cyCapsense_Filter.c ****             #if (0u != cyCapsense_REGULAR_RC_ALP_FILTER_EN)
 692:Generated_Source\PSoC4/cyCapsense_Filter.c ****                 ptrFilterHistObj.ptrAlp = &ptrFilterHistObj.ptrAlp[sensorId];
 693:Generated_Source\PSoC4/cyCapsense_Filter.c ****             #elif (0u != cyCapsense_REGULAR_RC_FILTER_EN)
 694:Generated_Source\PSoC4/cyCapsense_Filter.c ****                 ptrFilterHistObj.ptrRegular = &ptrFilterHistObj.ptrRegular[sensorId];
 695:Generated_Source\PSoC4/cyCapsense_Filter.c ****             #endif
 696:Generated_Source\PSoC4/cyCapsense_Filter.c ****         }
 697:Generated_Source\PSoC4/cyCapsense_Filter.c ****         else
 698:Generated_Source\PSoC4/cyCapsense_Filter.c ****         {
 699:Generated_Source\PSoC4/cyCapsense_Filter.c ****             #if (0u != cyCapsense_PROX_RC_ALP_FILTER_EN)
 700:Generated_Source\PSoC4/cyCapsense_Filter.c ****                 ptrFilterHistObj.ptrAlp = &ptrFilterHistObj.ptrAlp[sensorId];
 701:Generated_Source\PSoC4/cyCapsense_Filter.c ****             #elif (0u != cyCapsense_PROX_RC_FILTER_EN)
 702:Generated_Source\PSoC4/cyCapsense_Filter.c ****                 ptrFilterHistObj.ptrProx = &ptrFilterHistObj.ptrProx[sensorId];
 703:Generated_Source\PSoC4/cyCapsense_Filter.c ****             #endif /* #if (0u != cyCapsense_PROX_RC_FILTER_EN) */
 704:Generated_Source\PSoC4/cyCapsense_Filter.c ****         }
 705:Generated_Source\PSoC4/cyCapsense_Filter.c **** 
 706:Generated_Source\PSoC4/cyCapsense_Filter.c ****         #if (cyCapsense_REGULAR_RC_IIR_FILTER_EN || cyCapsense_PROX_RC_IIR_FILTER_EN)
 707:Generated_Source\PSoC4/cyCapsense_Filter.c ****             cyCapsense_InitializeIIRInternal(ptrFilterHistObj, ptrSensor, (uint32)ptrWidget->wdgtTy
 708:Generated_Source\PSoC4/cyCapsense_Filter.c ****         #endif /* (cyCapsense_REGULAR_RC_IIR_FILTER_EN || cyCapsense_PROX_RC_IIR_FILTER_EN) */
 709:Generated_Source\PSoC4/cyCapsense_Filter.c **** 
 710:Generated_Source\PSoC4/cyCapsense_Filter.c ****         #if (cyCapsense_REGULAR_RC_MEDIAN_FILTER_EN || cyCapsense_PROX_RC_MEDIAN_FILTER_EN)
 711:Generated_Source\PSoC4/cyCapsense_Filter.c ****             cyCapsense_InitializeMedianInternal(ptrFilterHistObj, ptrSensor, (uint32)ptrWidget->wdg
 712:Generated_Source\PSoC4/cyCapsense_Filter.c ****         #endif /* (cyCapsense_REGULAR_RC_MEDIAN_FILTER_EN || cyCapsense_PROX_RC_MEDIAN_FILTER_EN) *
 713:Generated_Source\PSoC4/cyCapsense_Filter.c **** 
 714:Generated_Source\PSoC4/cyCapsense_Filter.c ****         #if (cyCapsense_REGULAR_RC_AVERAGE_FILTER_EN || cyCapsense_PROX_RC_AVERAGE_FILTER_EN)
 715:Generated_Source\PSoC4/cyCapsense_Filter.c ****             cyCapsense_InitializeAverageInternal(ptrFilterHistObj, ptrSensor, (uint32)ptrWidget->wd
 716:Generated_Source\PSoC4/cyCapsense_Filter.c ****         #endif /* (cyCapsense_REGULAR_RC_AVERAGE_FILTER_EN || cyCapsense_PROX_RC_AVERAGE_FILTER_EN)
 717:Generated_Source\PSoC4/cyCapsense_Filter.c **** 
 718:Generated_Source\PSoC4/cyCapsense_Filter.c ****         #if (cyCapsense_ALP_FILTER_EN)
 719:Generated_Source\PSoC4/cyCapsense_Filter.c ****             cyCapsense_InitializeALPInternal(ptrFilterHistObj, ptrSensor, (uint32)ptrWidget->wdgtTy
 720:Generated_Source\PSoC4/cyCapsense_Filter.c ****         #endif
 721:Generated_Source\PSoC4/cyCapsense_Filter.c **** 
 722:Generated_Source\PSoC4/cyCapsense_Filter.c ****         #if (0u != (cyCapsense_CSD_AUTOTUNE & cyCapsense_CSD_SS_TH_EN))
 723:Generated_Source\PSoC4/cyCapsense_Filter.c ****             if (cyCapsense_SENSE_METHOD_CSD_E ==
 724:Generated_Source\PSoC4/cyCapsense_Filter.c ****                 cyCapsense_GET_SENSE_METHOD(&cyCapsense_dsFlash.wdgtArray[widgetId]))
 725:Generated_Source\PSoC4/cyCapsense_Filter.c ****             {
 726:Generated_Source\PSoC4/cyCapsense_Filter.c ****                 SmartSense_InitializeNoiseEnvelope(ptrSensor->raw[0u], ptrWidgetRam->sigPFC, ptrNoi
 727:Generated_Source\PSoC4/cyCapsense_Filter.c ****             }
 728:Generated_Source\PSoC4/cyCapsense_Filter.c ****         #endif /* (0u != (cyCapsense_CSD_AUTOTUNE & cyCapsense_CSD_SS_TH_EN)) */
 729:Generated_Source\PSoC4/cyCapsense_Filter.c ****     }
 730:Generated_Source\PSoC4/cyCapsense_Filter.c **** }
 731:Generated_Source\PSoC4/cyCapsense_Filter.c **** #endif /* ((cyCapsense_ENABLE == cyCapsense_RC_FILTER_EN) || \
 732:Generated_Source\PSoC4/cyCapsense_Filter.c ****            (0u != (cyCapsense_CSD_AUTOTUNE & cyCapsense_CSD_SS_TH_EN))) */
 733:Generated_Source\PSoC4/cyCapsense_Filter.c **** 
 734:Generated_Source\PSoC4/cyCapsense_Filter.c **** #if (cyCapsense_REGULAR_RC_IIR_FILTER_EN || cyCapsense_PROX_RC_IIR_FILTER_EN)
 735:Generated_Source\PSoC4/cyCapsense_Filter.c **** /*******************************************************************************
 736:Generated_Source\PSoC4/cyCapsense_Filter.c **** * Function Name: cyCapsense_InitializeIIR
ARM GAS  C:\Users\turan\AppData\Local\Temp\ccfzf2rj.s 			page 19


 737:Generated_Source\PSoC4/cyCapsense_Filter.c **** ****************************************************************************//**
 738:Generated_Source\PSoC4/cyCapsense_Filter.c **** *
 739:Generated_Source\PSoC4/cyCapsense_Filter.c **** * \brief
 740:Generated_Source\PSoC4/cyCapsense_Filter.c **** *  Initialize the IIR filter history.
 741:Generated_Source\PSoC4/cyCapsense_Filter.c **** *
 742:Generated_Source\PSoC4/cyCapsense_Filter.c **** * \details
 743:Generated_Source\PSoC4/cyCapsense_Filter.c **** *  Initialize the IIR filter history.
 744:Generated_Source\PSoC4/cyCapsense_Filter.c **** *
 745:Generated_Source\PSoC4/cyCapsense_Filter.c **** * \param widgetId
 746:Generated_Source\PSoC4/cyCapsense_Filter.c **** *  Specifies the ID number of the widget.
 747:Generated_Source\PSoC4/cyCapsense_Filter.c **** *
 748:Generated_Source\PSoC4/cyCapsense_Filter.c **** * \param sensorId
 749:Generated_Source\PSoC4/cyCapsense_Filter.c **** *  Specifies the ID number of the sensor in the widget.
 750:Generated_Source\PSoC4/cyCapsense_Filter.c **** *
 751:Generated_Source\PSoC4/cyCapsense_Filter.c **** *******************************************************************************/
 752:Generated_Source\PSoC4/cyCapsense_Filter.c **** void cyCapsense_InitializeIIR(uint32 widgetId, uint32 sensorId)
 753:Generated_Source\PSoC4/cyCapsense_Filter.c **** {
 754:Generated_Source\PSoC4/cyCapsense_Filter.c ****     cyCapsense_FLASH_WD_STRUCT const *ptrWidget = &cyCapsense_dsFlash.wdgtArray[widgetId];
 755:Generated_Source\PSoC4/cyCapsense_Filter.c ****     cyCapsense_RAM_SNS_STRUCT *ptrSensor = NULL;
 756:Generated_Source\PSoC4/cyCapsense_Filter.c ****     cyCapsense_PTR_FILTER_VARIANT ptrFilterHistObj;
 757:Generated_Source\PSoC4/cyCapsense_Filter.c **** 
 758:Generated_Source\PSoC4/cyCapsense_Filter.c ****     /* Find pointer to specified sensor object */
 759:Generated_Source\PSoC4/cyCapsense_Filter.c ****     ptrSensor = ptrWidget->ptr2SnsRam;
 760:Generated_Source\PSoC4/cyCapsense_Filter.c ****     ptrSensor = &ptrSensor[sensorId];
 761:Generated_Source\PSoC4/cyCapsense_Filter.c **** 
 762:Generated_Source\PSoC4/cyCapsense_Filter.c ****     /* Find pointer to specified filter sensor object */
 763:Generated_Source\PSoC4/cyCapsense_Filter.c ****     ptrFilterHistObj.ptr = ptrWidget->ptr2FltrHistory;
 764:Generated_Source\PSoC4/cyCapsense_Filter.c **** 
 765:Generated_Source\PSoC4/cyCapsense_Filter.c ****     if ((cyCapsense_WD_TYPE_ENUM)ptrWidget->wdgtType != cyCapsense_WD_PROXIMITY_E)
 766:Generated_Source\PSoC4/cyCapsense_Filter.c ****     {
 767:Generated_Source\PSoC4/cyCapsense_Filter.c ****         #if (cyCapsense_REGULAR_SENSOR_EN)
 768:Generated_Source\PSoC4/cyCapsense_Filter.c ****             ptrFilterHistObj.ptrRegular = &ptrFilterHistObj.ptrRegular[sensorId];
 769:Generated_Source\PSoC4/cyCapsense_Filter.c ****         #endif /* (cyCapsense_REGULAR_SENSOR_EN) */
 770:Generated_Source\PSoC4/cyCapsense_Filter.c ****     }
 771:Generated_Source\PSoC4/cyCapsense_Filter.c ****     else
 772:Generated_Source\PSoC4/cyCapsense_Filter.c ****     {
 773:Generated_Source\PSoC4/cyCapsense_Filter.c ****         #if (cyCapsense_PROXIMITY_SENSOR_EN)
 774:Generated_Source\PSoC4/cyCapsense_Filter.c ****             ptrFilterHistObj.ptrProx = &ptrFilterHistObj.ptrProx[sensorId];
 775:Generated_Source\PSoC4/cyCapsense_Filter.c ****         #endif /* (cyCapsense_PROXIMITY_SENSOR_EN) */
 776:Generated_Source\PSoC4/cyCapsense_Filter.c ****     }
 777:Generated_Source\PSoC4/cyCapsense_Filter.c **** 
 778:Generated_Source\PSoC4/cyCapsense_Filter.c ****     cyCapsense_InitializeIIRInternal(ptrFilterHistObj, ptrSensor, (uint32)ptrWidget->wdgtType);
 779:Generated_Source\PSoC4/cyCapsense_Filter.c **** }
 780:Generated_Source\PSoC4/cyCapsense_Filter.c **** 
 781:Generated_Source\PSoC4/cyCapsense_Filter.c **** 
 782:Generated_Source\PSoC4/cyCapsense_Filter.c **** /*******************************************************************************
 783:Generated_Source\PSoC4/cyCapsense_Filter.c **** * Function Name: cyCapsense_RunIIR
 784:Generated_Source\PSoC4/cyCapsense_Filter.c **** ****************************************************************************//**
 785:Generated_Source\PSoC4/cyCapsense_Filter.c **** *
 786:Generated_Source\PSoC4/cyCapsense_Filter.c **** * \brief
 787:Generated_Source\PSoC4/cyCapsense_Filter.c **** *  Executes the IIR filter algorithm on a sensor indicated by an input
 788:Generated_Source\PSoC4/cyCapsense_Filter.c **** *  parameter.
 789:Generated_Source\PSoC4/cyCapsense_Filter.c **** *
 790:Generated_Source\PSoC4/cyCapsense_Filter.c **** * \details
 791:Generated_Source\PSoC4/cyCapsense_Filter.c **** *  Executes the IIR filter algorithm on a sensor indicated by an input
 792:Generated_Source\PSoC4/cyCapsense_Filter.c **** *  parameter.
 793:Generated_Source\PSoC4/cyCapsense_Filter.c **** *
ARM GAS  C:\Users\turan\AppData\Local\Temp\ccfzf2rj.s 			page 20


 794:Generated_Source\PSoC4/cyCapsense_Filter.c **** * \param widgetId
 795:Generated_Source\PSoC4/cyCapsense_Filter.c **** *  Specifies the ID number of the widget.
 796:Generated_Source\PSoC4/cyCapsense_Filter.c **** *
 797:Generated_Source\PSoC4/cyCapsense_Filter.c **** * \param sensorId
 798:Generated_Source\PSoC4/cyCapsense_Filter.c **** *  Specifies the ID number of the sensor in the widget.
 799:Generated_Source\PSoC4/cyCapsense_Filter.c **** *
 800:Generated_Source\PSoC4/cyCapsense_Filter.c **** *******************************************************************************/
 801:Generated_Source\PSoC4/cyCapsense_Filter.c **** void cyCapsense_RunIIR(uint32 widgetId, uint32 sensorId)
 802:Generated_Source\PSoC4/cyCapsense_Filter.c **** {
 803:Generated_Source\PSoC4/cyCapsense_Filter.c ****     cyCapsense_FLASH_WD_STRUCT const *ptrWidget = &cyCapsense_dsFlash.wdgtArray[widgetId];
 804:Generated_Source\PSoC4/cyCapsense_Filter.c ****     cyCapsense_RAM_SNS_STRUCT *ptrSensor = NULL;
 805:Generated_Source\PSoC4/cyCapsense_Filter.c ****     cyCapsense_PTR_FILTER_VARIANT ptrFilterHistObj;
 806:Generated_Source\PSoC4/cyCapsense_Filter.c **** 
 807:Generated_Source\PSoC4/cyCapsense_Filter.c ****     /* Find pointer to specified sensor object */
 808:Generated_Source\PSoC4/cyCapsense_Filter.c ****     ptrSensor = ptrWidget->ptr2SnsRam;
 809:Generated_Source\PSoC4/cyCapsense_Filter.c ****     ptrSensor = &ptrSensor[sensorId];
 810:Generated_Source\PSoC4/cyCapsense_Filter.c **** 
 811:Generated_Source\PSoC4/cyCapsense_Filter.c ****     /* Find pointer to specified filter sensor object */
 812:Generated_Source\PSoC4/cyCapsense_Filter.c ****     ptrFilterHistObj.ptr = ptrWidget->ptr2FltrHistory;
 813:Generated_Source\PSoC4/cyCapsense_Filter.c **** 
 814:Generated_Source\PSoC4/cyCapsense_Filter.c ****     if ((cyCapsense_WD_TYPE_ENUM)ptrWidget->wdgtType != cyCapsense_WD_PROXIMITY_E)
 815:Generated_Source\PSoC4/cyCapsense_Filter.c ****     {
 816:Generated_Source\PSoC4/cyCapsense_Filter.c ****         #if (cyCapsense_REGULAR_SENSOR_EN)
 817:Generated_Source\PSoC4/cyCapsense_Filter.c ****             ptrFilterHistObj.ptrRegular = &ptrFilterHistObj.ptrRegular[sensorId];
 818:Generated_Source\PSoC4/cyCapsense_Filter.c ****         #endif /* (cyCapsense_REGULAR_SENSOR_EN) */
 819:Generated_Source\PSoC4/cyCapsense_Filter.c ****     }
 820:Generated_Source\PSoC4/cyCapsense_Filter.c ****     else
 821:Generated_Source\PSoC4/cyCapsense_Filter.c ****     {
 822:Generated_Source\PSoC4/cyCapsense_Filter.c ****         #if (cyCapsense_PROXIMITY_SENSOR_EN)
 823:Generated_Source\PSoC4/cyCapsense_Filter.c ****             ptrFilterHistObj.ptrProx = &ptrFilterHistObj.ptrProx[sensorId];
 824:Generated_Source\PSoC4/cyCapsense_Filter.c ****         #endif /* (cyCapsense_PROXIMITY_SENSOR_EN) */
 825:Generated_Source\PSoC4/cyCapsense_Filter.c ****     }
 826:Generated_Source\PSoC4/cyCapsense_Filter.c **** 
 827:Generated_Source\PSoC4/cyCapsense_Filter.c ****     cyCapsense_RunIIRInternal(ptrFilterHistObj, ptrSensor, (uint32)ptrWidget->wdgtType);
 828:Generated_Source\PSoC4/cyCapsense_Filter.c **** }
 829:Generated_Source\PSoC4/cyCapsense_Filter.c **** 
 830:Generated_Source\PSoC4/cyCapsense_Filter.c **** /*******************************************************************************
 831:Generated_Source\PSoC4/cyCapsense_Filter.c **** * Function Name: cyCapsense_InitializeIIRInternal
 832:Generated_Source\PSoC4/cyCapsense_Filter.c **** ****************************************************************************//**
 833:Generated_Source\PSoC4/cyCapsense_Filter.c **** *
 834:Generated_Source\PSoC4/cyCapsense_Filter.c **** * \brief
 835:Generated_Source\PSoC4/cyCapsense_Filter.c **** *  Initializes the IIR filter history.
 836:Generated_Source\PSoC4/cyCapsense_Filter.c **** *
 837:Generated_Source\PSoC4/cyCapsense_Filter.c **** * \details
 838:Generated_Source\PSoC4/cyCapsense_Filter.c **** *  Initializes the IIR filter history.
 839:Generated_Source\PSoC4/cyCapsense_Filter.c **** *
 840:Generated_Source\PSoC4/cyCapsense_Filter.c **** * \param ptrFilterHistObj
 841:Generated_Source\PSoC4/cyCapsense_Filter.c **** *  The pointer to the filter RAM object of the sensor.
 842:Generated_Source\PSoC4/cyCapsense_Filter.c **** *
 843:Generated_Source\PSoC4/cyCapsense_Filter.c **** * \param ptrSensorObj
 844:Generated_Source\PSoC4/cyCapsense_Filter.c **** *  The pointer to the sensor RAM object of the sensor.
 845:Generated_Source\PSoC4/cyCapsense_Filter.c **** *
 846:Generated_Source\PSoC4/cyCapsense_Filter.c **** * \param wdType
 847:Generated_Source\PSoC4/cyCapsense_Filter.c **** *  Specifies the type of a widget.
 848:Generated_Source\PSoC4/cyCapsense_Filter.c **** *
 849:Generated_Source\PSoC4/cyCapsense_Filter.c **** *******************************************************************************/
 850:Generated_Source\PSoC4/cyCapsense_Filter.c **** void cyCapsense_InitializeIIRInternal(cyCapsense_PTR_FILTER_VARIANT ptrFilterHistObj,
ARM GAS  C:\Users\turan\AppData\Local\Temp\ccfzf2rj.s 			page 21


 851:Generated_Source\PSoC4/cyCapsense_Filter.c ****                                             cyCapsense_RAM_SNS_STRUCT *ptrSensorObj, uint32 wdType)
 852:Generated_Source\PSoC4/cyCapsense_Filter.c **** {
 853:Generated_Source\PSoC4/cyCapsense_Filter.c ****     uint32 freqChannel;
 854:Generated_Source\PSoC4/cyCapsense_Filter.c **** 
 855:Generated_Source\PSoC4/cyCapsense_Filter.c ****     for(freqChannel = cyCapsense_NUM_SCAN_FREQS; freqChannel-- > 0u;)
 856:Generated_Source\PSoC4/cyCapsense_Filter.c ****     {
 857:Generated_Source\PSoC4/cyCapsense_Filter.c ****         if ((cyCapsense_WD_TYPE_ENUM)wdType != cyCapsense_WD_PROXIMITY_E)
 858:Generated_Source\PSoC4/cyCapsense_Filter.c ****         {
 859:Generated_Source\PSoC4/cyCapsense_Filter.c ****             #if (cyCapsense_REGULAR_SENSOR_EN && cyCapsense_REGULAR_RC_IIR_FILTER_EN)
 860:Generated_Source\PSoC4/cyCapsense_Filter.c ****                 #if (cyCapsense_REGULAR_IIR_RC_TYPE == cyCapsense_IIR_FILTER_PERFORMANCE)
 861:Generated_Source\PSoC4/cyCapsense_Filter.c ****                     ptrFilterHistObj.ptrRegular->regularChannel[freqChannel].iirHistory = ptrSensor
 862:Generated_Source\PSoC4/cyCapsense_Filter.c ****                     ptrFilterHistObj.ptrRegular->regularChannel[freqChannel].iirHistoryLow = 0u;
 863:Generated_Source\PSoC4/cyCapsense_Filter.c ****                 #else
 864:Generated_Source\PSoC4/cyCapsense_Filter.c ****                     ptrFilterHistObj.ptrRegular->regularChannel[freqChannel].iirHistory = ptrSensor
 865:Generated_Source\PSoC4/cyCapsense_Filter.c ****                 #endif /* (cyCapsense_REGULAR_IIR_RC_TYPE == cyCapsense_IIR_FILTER_PERFORMANCE) */
 866:Generated_Source\PSoC4/cyCapsense_Filter.c ****             #endif /* (cyCapsense_REGULAR_SENSOR_EN) */
 867:Generated_Source\PSoC4/cyCapsense_Filter.c ****         }
 868:Generated_Source\PSoC4/cyCapsense_Filter.c ****         else
 869:Generated_Source\PSoC4/cyCapsense_Filter.c ****         {
 870:Generated_Source\PSoC4/cyCapsense_Filter.c ****             #if (cyCapsense_PROXIMITY_SENSOR_EN && cyCapsense_PROX_RC_IIR_FILTER_EN)
 871:Generated_Source\PSoC4/cyCapsense_Filter.c ****                 #if (cyCapsense_PROX_IIR_RC_TYPE == cyCapsense_IIR_FILTER_PERFORMANCE)
 872:Generated_Source\PSoC4/cyCapsense_Filter.c ****                     ptrFilterHistObj.ptrProx->proxChannel[freqChannel].iirHistory = ptrSensorObj->r
 873:Generated_Source\PSoC4/cyCapsense_Filter.c ****                     ptrFilterHistObj.ptrProx->proxChannel[freqChannel].iirHistoryLow = 0u;
 874:Generated_Source\PSoC4/cyCapsense_Filter.c ****                 #else
 875:Generated_Source\PSoC4/cyCapsense_Filter.c ****                     ptrFilterHistObj.ptrProx->proxChannel[freqChannel].iirHistory = ptrSensorObj->r
 876:Generated_Source\PSoC4/cyCapsense_Filter.c ****                 #endif /* (cyCapsense_PROX_IIR_RC_TYPE == cyCapsense_IIR_FILTER_PERFORMANCE) */
 877:Generated_Source\PSoC4/cyCapsense_Filter.c ****             #endif /* (cyCapsense_PROX_SENSOR_EN) */
 878:Generated_Source\PSoC4/cyCapsense_Filter.c ****         }
 879:Generated_Source\PSoC4/cyCapsense_Filter.c ****     }
 880:Generated_Source\PSoC4/cyCapsense_Filter.c **** }
 881:Generated_Source\PSoC4/cyCapsense_Filter.c **** 
 882:Generated_Source\PSoC4/cyCapsense_Filter.c **** 
 883:Generated_Source\PSoC4/cyCapsense_Filter.c **** /*******************************************************************************
 884:Generated_Source\PSoC4/cyCapsense_Filter.c **** * Function Name: cyCapsense_RunIIRInternal
 885:Generated_Source\PSoC4/cyCapsense_Filter.c **** ****************************************************************************//**
 886:Generated_Source\PSoC4/cyCapsense_Filter.c **** *
 887:Generated_Source\PSoC4/cyCapsense_Filter.c **** * \brief
 888:Generated_Source\PSoC4/cyCapsense_Filter.c **** *  Run the IIR filter.
 889:Generated_Source\PSoC4/cyCapsense_Filter.c **** *
 890:Generated_Source\PSoC4/cyCapsense_Filter.c **** * \details
 891:Generated_Source\PSoC4/cyCapsense_Filter.c **** *  Run the IIR filter.
 892:Generated_Source\PSoC4/cyCapsense_Filter.c **** *
 893:Generated_Source\PSoC4/cyCapsense_Filter.c **** * \param ptrFilterHistObj
 894:Generated_Source\PSoC4/cyCapsense_Filter.c **** *  The pointer to the filter RAM object of the sensor.
 895:Generated_Source\PSoC4/cyCapsense_Filter.c **** *
 896:Generated_Source\PSoC4/cyCapsense_Filter.c **** * \param ptrSensorObj
 897:Generated_Source\PSoC4/cyCapsense_Filter.c **** *  The pointer to the sensor RAM object of the sensor.
 898:Generated_Source\PSoC4/cyCapsense_Filter.c **** *
 899:Generated_Source\PSoC4/cyCapsense_Filter.c **** * \param wdType
 900:Generated_Source\PSoC4/cyCapsense_Filter.c **** *  Specifies the type of a widget.
 901:Generated_Source\PSoC4/cyCapsense_Filter.c **** *
 902:Generated_Source\PSoC4/cyCapsense_Filter.c **** *******************************************************************************/
 903:Generated_Source\PSoC4/cyCapsense_Filter.c **** void cyCapsense_RunIIRInternal(cyCapsense_PTR_FILTER_VARIANT ptrFilterHistObj,
 904:Generated_Source\PSoC4/cyCapsense_Filter.c ****                                      cyCapsense_RAM_SNS_STRUCT *ptrSensorObj, uint32 wdType)
 905:Generated_Source\PSoC4/cyCapsense_Filter.c **** {
 906:Generated_Source\PSoC4/cyCapsense_Filter.c ****     uint32 freqChannel;
 907:Generated_Source\PSoC4/cyCapsense_Filter.c ****     uint32 temp;
ARM GAS  C:\Users\turan\AppData\Local\Temp\ccfzf2rj.s 			page 22


 908:Generated_Source\PSoC4/cyCapsense_Filter.c **** 
 909:Generated_Source\PSoC4/cyCapsense_Filter.c ****     for(freqChannel = cyCapsense_NUM_SCAN_FREQS; freqChannel-- > 0u;)
 910:Generated_Source\PSoC4/cyCapsense_Filter.c ****     {
 911:Generated_Source\PSoC4/cyCapsense_Filter.c ****         if ((cyCapsense_WD_TYPE_ENUM)wdType != cyCapsense_WD_PROXIMITY_E)
 912:Generated_Source\PSoC4/cyCapsense_Filter.c ****         {
 913:Generated_Source\PSoC4/cyCapsense_Filter.c ****             #if (cyCapsense_REGULAR_SENSOR_EN && cyCapsense_REGULAR_RC_IIR_FILTER_EN)
 914:Generated_Source\PSoC4/cyCapsense_Filter.c ****                 #if (cyCapsense_REGULAR_IIR_RC_TYPE == cyCapsense_IIR_FILTER_PERFORMANCE)
 915:Generated_Source\PSoC4/cyCapsense_Filter.c ****                     temp = ((uint32)ptrFilterHistObj.ptrRegular->regularChannel[freqChannel].iirHis
 916:Generated_Source\PSoC4/cyCapsense_Filter.c ****                     temp |= ptrFilterHistObj.ptrRegular->regularChannel[freqChannel].iirHistoryLow;
 917:Generated_Source\PSoC4/cyCapsense_Filter.c ****                     temp = cyCapsense_FtIIR1stOrder((uint32)ptrSensorObj->raw[freqChannel],
 918:Generated_Source\PSoC4/cyCapsense_Filter.c ****                                                         temp,
 919:Generated_Source\PSoC4/cyCapsense_Filter.c ****                                                         cyCapsense_REGULAR_IIR_RC_N,
 920:Generated_Source\PSoC4/cyCapsense_Filter.c ****                                                         cyCapsense_REGULAR_IIR_RC_SHIFT);
 921:Generated_Source\PSoC4/cyCapsense_Filter.c ****                     ptrFilterHistObj.ptrRegular->regularChannel[freqChannel].iirHistory = LO16(temp
 922:Generated_Source\PSoC4/cyCapsense_Filter.c ****                     ptrFilterHistObj.ptrRegular->regularChannel[freqChannel].iirHistoryLow = LO8(te
 923:Generated_Source\PSoC4/cyCapsense_Filter.c ****                     ptrSensorObj->raw[freqChannel] = LO16(temp >>cyCapsense_REGULAR_IIR_RC_SHIFT);
 924:Generated_Source\PSoC4/cyCapsense_Filter.c ****                 #else
 925:Generated_Source\PSoC4/cyCapsense_Filter.c ****                     temp =cyCapsense_FtIIR1stOrder((uint32)ptrSensorObj->raw[freqChannel],
 926:Generated_Source\PSoC4/cyCapsense_Filter.c ****                                                         (uint32)ptrFilterHistObj.ptrRegular->regula
 927:Generated_Source\PSoC4/cyCapsense_Filter.c ****                                                         cyCapsense_REGULAR_IIR_RC_N,
 928:Generated_Source\PSoC4/cyCapsense_Filter.c ****                                                         cyCapsense_REGULAR_IIR_RC_SHIFT);
 929:Generated_Source\PSoC4/cyCapsense_Filter.c ****                     ptrFilterHistObj.ptrRegular->regularChannel[freqChannel].iirHistory = LO16(temp
 930:Generated_Source\PSoC4/cyCapsense_Filter.c ****                     ptrSensorObj->raw[freqChannel] = LO16(temp >>cyCapsense_REGULAR_IIR_RC_SHIFT);
 931:Generated_Source\PSoC4/cyCapsense_Filter.c ****                 #endif /* (cyCapsense_REGULAR_IIR_RC_TYPE == cyCapsense_IIR_FILTER_PERFORMANCE) */
 932:Generated_Source\PSoC4/cyCapsense_Filter.c ****             #endif /* (cyCapsense_REGULAR_SENSOR_EN) */
 933:Generated_Source\PSoC4/cyCapsense_Filter.c ****         }
 934:Generated_Source\PSoC4/cyCapsense_Filter.c ****         else
 935:Generated_Source\PSoC4/cyCapsense_Filter.c ****         {
 936:Generated_Source\PSoC4/cyCapsense_Filter.c ****             #if (cyCapsense_PROXIMITY_SENSOR_EN && cyCapsense_PROX_RC_IIR_FILTER_EN)
 937:Generated_Source\PSoC4/cyCapsense_Filter.c ****                 #if (cyCapsense_PROX_IIR_RC_TYPE == cyCapsense_IIR_FILTER_PERFORMANCE)
 938:Generated_Source\PSoC4/cyCapsense_Filter.c ****                     temp =  ptrFilterHistObj.ptrProx->proxChannel[freqChannel].iirHistory << cyCaps
 939:Generated_Source\PSoC4/cyCapsense_Filter.c ****                     temp |= ptrFilterHistObj.ptrProx->proxChannel[freqChannel].iirHistoryLow;
 940:Generated_Source\PSoC4/cyCapsense_Filter.c ****                     temp =cyCapsense_FtIIR1stOrder((uint32)ptrSensorObj->raw[freqChannel],
 941:Generated_Source\PSoC4/cyCapsense_Filter.c ****                                                         temp,
 942:Generated_Source\PSoC4/cyCapsense_Filter.c ****                                                         cyCapsense_PROX_IIR_RC_N,
 943:Generated_Source\PSoC4/cyCapsense_Filter.c ****                                                         cyCapsense_PROX_IIR_RC_SHIFT);
 944:Generated_Source\PSoC4/cyCapsense_Filter.c ****                     ptrFilterHistObj.ptrProx->proxChannel[freqChannel].iirHistory = LO16(temp >>cyC
 945:Generated_Source\PSoC4/cyCapsense_Filter.c ****                     ptrFilterHistObj.ptrProx->proxChannel[freqChannel].iirHistoryLow = LO8(temp);
 946:Generated_Source\PSoC4/cyCapsense_Filter.c ****                     ptrSensorObj->raw[freqChannel] = LO16(temp >>cyCapsense_PROX_IIR_RC_SHIFT);
 947:Generated_Source\PSoC4/cyCapsense_Filter.c ****                 #else
 948:Generated_Source\PSoC4/cyCapsense_Filter.c ****                     temp =cyCapsense_FtIIR1stOrder((uint32)ptrSensorObj->raw[freqChannel],
 949:Generated_Source\PSoC4/cyCapsense_Filter.c ****                                                         (uint32)ptrFilterHistObj.ptrProx->proxChann
 950:Generated_Source\PSoC4/cyCapsense_Filter.c ****                                                         cyCapsense_PROX_IIR_RC_N,
 951:Generated_Source\PSoC4/cyCapsense_Filter.c ****                                                         cyCapsense_PROX_IIR_RC_SHIFT);
 952:Generated_Source\PSoC4/cyCapsense_Filter.c ****                     ptrFilterHistObj.ptrProx->proxChannel[freqChannel].iirHistory = LO16(temp);
 953:Generated_Source\PSoC4/cyCapsense_Filter.c ****                     ptrSensorObj->raw[freqChannel] = LO16(temp >>cyCapsense_PROX_IIR_RC_SHIFT);
 954:Generated_Source\PSoC4/cyCapsense_Filter.c ****                 #endif /* (cyCapsense_PROX_IIR_RC_TYPE == cyCapsense_IIR_FILTER_PERFORMANCE) */
 955:Generated_Source\PSoC4/cyCapsense_Filter.c ****             #endif /* (cyCapsense_PROX_SENSOR_EN) */
 956:Generated_Source\PSoC4/cyCapsense_Filter.c ****         }
 957:Generated_Source\PSoC4/cyCapsense_Filter.c ****     }
 958:Generated_Source\PSoC4/cyCapsense_Filter.c **** }
 959:Generated_Source\PSoC4/cyCapsense_Filter.c **** #endif /* #if (cyCapsense_REGULAR_RC_IIR_FILTER_EN || cyCapsense_PROX_RC_IIR_FILTER_EN) */
 960:Generated_Source\PSoC4/cyCapsense_Filter.c **** 
 961:Generated_Source\PSoC4/cyCapsense_Filter.c **** 
 962:Generated_Source\PSoC4/cyCapsense_Filter.c **** #if (cyCapsense_REGULAR_RC_MEDIAN_FILTER_EN || cyCapsense_PROX_RC_MEDIAN_FILTER_EN)
 963:Generated_Source\PSoC4/cyCapsense_Filter.c **** 
 964:Generated_Source\PSoC4/cyCapsense_Filter.c **** /*******************************************************************************
ARM GAS  C:\Users\turan\AppData\Local\Temp\ccfzf2rj.s 			page 23


 965:Generated_Source\PSoC4/cyCapsense_Filter.c **** * Function Name: cyCapsense_InitializeMedian
 966:Generated_Source\PSoC4/cyCapsense_Filter.c **** ****************************************************************************//**
 967:Generated_Source\PSoC4/cyCapsense_Filter.c **** *
 968:Generated_Source\PSoC4/cyCapsense_Filter.c **** * \brief
 969:Generated_Source\PSoC4/cyCapsense_Filter.c **** *  Initializes the Median filter history.
 970:Generated_Source\PSoC4/cyCapsense_Filter.c **** *
 971:Generated_Source\PSoC4/cyCapsense_Filter.c **** * \details
 972:Generated_Source\PSoC4/cyCapsense_Filter.c **** *  Initializes the Median filter history.
 973:Generated_Source\PSoC4/cyCapsense_Filter.c **** *
 974:Generated_Source\PSoC4/cyCapsense_Filter.c **** * \param widgetId
 975:Generated_Source\PSoC4/cyCapsense_Filter.c **** *  Specifies the ID number of the widget.
 976:Generated_Source\PSoC4/cyCapsense_Filter.c **** *
 977:Generated_Source\PSoC4/cyCapsense_Filter.c **** * \param sensorId
 978:Generated_Source\PSoC4/cyCapsense_Filter.c **** *  Specifies the ID number of the sensor in the widget.
 979:Generated_Source\PSoC4/cyCapsense_Filter.c **** *
 980:Generated_Source\PSoC4/cyCapsense_Filter.c **** *******************************************************************************/
 981:Generated_Source\PSoC4/cyCapsense_Filter.c **** void cyCapsense_InitializeMedian(uint32 widgetId, uint32 sensorId)
 982:Generated_Source\PSoC4/cyCapsense_Filter.c **** {
 983:Generated_Source\PSoC4/cyCapsense_Filter.c ****     cyCapsense_FLASH_WD_STRUCT const *ptrWidget = &cyCapsense_dsFlash.wdgtArray[widgetId];
 984:Generated_Source\PSoC4/cyCapsense_Filter.c ****     cyCapsense_RAM_SNS_STRUCT *ptrSensor = NULL;
 985:Generated_Source\PSoC4/cyCapsense_Filter.c ****     cyCapsense_PTR_FILTER_VARIANT ptrFilterHistObj;
 986:Generated_Source\PSoC4/cyCapsense_Filter.c **** 
 987:Generated_Source\PSoC4/cyCapsense_Filter.c ****     /* Find pointer to specified sensor object */
 988:Generated_Source\PSoC4/cyCapsense_Filter.c ****     ptrSensor = ptrWidget->ptr2SnsRam;
 989:Generated_Source\PSoC4/cyCapsense_Filter.c ****     ptrSensor = &ptrSensor[sensorId];
 990:Generated_Source\PSoC4/cyCapsense_Filter.c **** 
 991:Generated_Source\PSoC4/cyCapsense_Filter.c ****     /* Find pointer to specified filter sensor object */
 992:Generated_Source\PSoC4/cyCapsense_Filter.c ****     ptrFilterHistObj.ptr = ptrWidget->ptr2FltrHistory;
 993:Generated_Source\PSoC4/cyCapsense_Filter.c **** 
 994:Generated_Source\PSoC4/cyCapsense_Filter.c ****     if ((cyCapsense_WD_TYPE_ENUM)ptrWidget->wdgtType != cyCapsense_WD_PROXIMITY_E)
 995:Generated_Source\PSoC4/cyCapsense_Filter.c ****     {
 996:Generated_Source\PSoC4/cyCapsense_Filter.c ****         #if (cyCapsense_REGULAR_SENSOR_EN)
 997:Generated_Source\PSoC4/cyCapsense_Filter.c ****             ptrFilterHistObj.ptrRegular = &ptrFilterHistObj.ptrRegular[sensorId];
 998:Generated_Source\PSoC4/cyCapsense_Filter.c ****         #endif /* (cyCapsense_REGULAR_SENSOR_EN) */
 999:Generated_Source\PSoC4/cyCapsense_Filter.c ****     }
1000:Generated_Source\PSoC4/cyCapsense_Filter.c ****     else
1001:Generated_Source\PSoC4/cyCapsense_Filter.c ****     {
1002:Generated_Source\PSoC4/cyCapsense_Filter.c ****         #if (cyCapsense_PROXIMITY_SENSOR_EN)
1003:Generated_Source\PSoC4/cyCapsense_Filter.c ****             ptrFilterHistObj.ptrProx = &ptrFilterHistObj.ptrProx[sensorId];
1004:Generated_Source\PSoC4/cyCapsense_Filter.c ****         #endif /* (cyCapsense_PROXIMITY_SENSOR_EN) */
1005:Generated_Source\PSoC4/cyCapsense_Filter.c ****     }
1006:Generated_Source\PSoC4/cyCapsense_Filter.c **** 
1007:Generated_Source\PSoC4/cyCapsense_Filter.c ****     cyCapsense_InitializeMedianInternal(ptrFilterHistObj, ptrSensor, (uint32)ptrWidget->wdgtType);
1008:Generated_Source\PSoC4/cyCapsense_Filter.c **** }
1009:Generated_Source\PSoC4/cyCapsense_Filter.c **** 
1010:Generated_Source\PSoC4/cyCapsense_Filter.c **** 
1011:Generated_Source\PSoC4/cyCapsense_Filter.c **** /*******************************************************************************
1012:Generated_Source\PSoC4/cyCapsense_Filter.c **** * Function Name: cyCapsense_RunMedian
1013:Generated_Source\PSoC4/cyCapsense_Filter.c **** ****************************************************************************//**
1014:Generated_Source\PSoC4/cyCapsense_Filter.c **** *
1015:Generated_Source\PSoC4/cyCapsense_Filter.c **** * \brief
1016:Generated_Source\PSoC4/cyCapsense_Filter.c **** *  Executes the Median filter algorithm on a sensor indicated by an input
1017:Generated_Source\PSoC4/cyCapsense_Filter.c **** *  parameter.
1018:Generated_Source\PSoC4/cyCapsense_Filter.c **** *
1019:Generated_Source\PSoC4/cyCapsense_Filter.c **** * \details
1020:Generated_Source\PSoC4/cyCapsense_Filter.c **** *  Executes the Median filter algorithm on a sensor indicated by an input
1021:Generated_Source\PSoC4/cyCapsense_Filter.c **** *  parameter.
ARM GAS  C:\Users\turan\AppData\Local\Temp\ccfzf2rj.s 			page 24


1022:Generated_Source\PSoC4/cyCapsense_Filter.c **** *
1023:Generated_Source\PSoC4/cyCapsense_Filter.c **** * \param widgetId
1024:Generated_Source\PSoC4/cyCapsense_Filter.c **** *  Specifies the ID number of the widget.
1025:Generated_Source\PSoC4/cyCapsense_Filter.c **** *
1026:Generated_Source\PSoC4/cyCapsense_Filter.c **** * \param sensorId
1027:Generated_Source\PSoC4/cyCapsense_Filter.c **** *  Specifies the ID number of the sensor in the widget.
1028:Generated_Source\PSoC4/cyCapsense_Filter.c **** *
1029:Generated_Source\PSoC4/cyCapsense_Filter.c **** *******************************************************************************/
1030:Generated_Source\PSoC4/cyCapsense_Filter.c **** void cyCapsense_RunMedian(uint32 widgetId, uint32 sensorId)
1031:Generated_Source\PSoC4/cyCapsense_Filter.c **** {
1032:Generated_Source\PSoC4/cyCapsense_Filter.c ****     cyCapsense_FLASH_WD_STRUCT const *ptrWidget = &cyCapsense_dsFlash.wdgtArray[widgetId];
1033:Generated_Source\PSoC4/cyCapsense_Filter.c ****     cyCapsense_RAM_SNS_STRUCT *ptrSensor = NULL;
1034:Generated_Source\PSoC4/cyCapsense_Filter.c ****     cyCapsense_PTR_FILTER_VARIANT ptrFilterHistObj;
1035:Generated_Source\PSoC4/cyCapsense_Filter.c **** 
1036:Generated_Source\PSoC4/cyCapsense_Filter.c ****     /* Find pointer to specified sensor object */
1037:Generated_Source\PSoC4/cyCapsense_Filter.c ****     ptrSensor = ptrWidget->ptr2SnsRam;
1038:Generated_Source\PSoC4/cyCapsense_Filter.c ****     ptrSensor = &ptrSensor[sensorId];
1039:Generated_Source\PSoC4/cyCapsense_Filter.c **** 
1040:Generated_Source\PSoC4/cyCapsense_Filter.c ****     /* Find pointer to specified filter sensor object */
1041:Generated_Source\PSoC4/cyCapsense_Filter.c ****     ptrFilterHistObj.ptr = ptrWidget->ptr2FltrHistory;
1042:Generated_Source\PSoC4/cyCapsense_Filter.c **** 
1043:Generated_Source\PSoC4/cyCapsense_Filter.c ****     if ((cyCapsense_WD_TYPE_ENUM)ptrWidget->wdgtType != cyCapsense_WD_PROXIMITY_E)
1044:Generated_Source\PSoC4/cyCapsense_Filter.c ****     {
1045:Generated_Source\PSoC4/cyCapsense_Filter.c ****         #if (cyCapsense_REGULAR_SENSOR_EN)
1046:Generated_Source\PSoC4/cyCapsense_Filter.c ****             ptrFilterHistObj.ptrRegular = &ptrFilterHistObj.ptrRegular[sensorId];
1047:Generated_Source\PSoC4/cyCapsense_Filter.c ****         #endif /* (cyCapsense_REGULAR_SENSOR_EN) */
1048:Generated_Source\PSoC4/cyCapsense_Filter.c ****     }
1049:Generated_Source\PSoC4/cyCapsense_Filter.c ****     else
1050:Generated_Source\PSoC4/cyCapsense_Filter.c ****     {
1051:Generated_Source\PSoC4/cyCapsense_Filter.c ****         #if (cyCapsense_PROXIMITY_SENSOR_EN)
1052:Generated_Source\PSoC4/cyCapsense_Filter.c ****             ptrFilterHistObj.ptrProx = &ptrFilterHistObj.ptrProx[sensorId];
1053:Generated_Source\PSoC4/cyCapsense_Filter.c ****         #endif /* (cyCapsense_PROXIMITY_SENSOR_EN) */
1054:Generated_Source\PSoC4/cyCapsense_Filter.c ****     }
1055:Generated_Source\PSoC4/cyCapsense_Filter.c **** 
1056:Generated_Source\PSoC4/cyCapsense_Filter.c ****     cyCapsense_RunMedianInternal(ptrFilterHistObj, ptrSensor, (uint32)ptrWidget->wdgtType);
1057:Generated_Source\PSoC4/cyCapsense_Filter.c **** }
1058:Generated_Source\PSoC4/cyCapsense_Filter.c **** 
1059:Generated_Source\PSoC4/cyCapsense_Filter.c **** 
1060:Generated_Source\PSoC4/cyCapsense_Filter.c **** /*******************************************************************************
1061:Generated_Source\PSoC4/cyCapsense_Filter.c **** * Function Name: cyCapsense_InitializeMedianInternal
1062:Generated_Source\PSoC4/cyCapsense_Filter.c **** ****************************************************************************//**
1063:Generated_Source\PSoC4/cyCapsense_Filter.c **** *
1064:Generated_Source\PSoC4/cyCapsense_Filter.c **** * \brief
1065:Generated_Source\PSoC4/cyCapsense_Filter.c **** *  Initializes the Median filter.
1066:Generated_Source\PSoC4/cyCapsense_Filter.c **** *
1067:Generated_Source\PSoC4/cyCapsense_Filter.c **** * \details
1068:Generated_Source\PSoC4/cyCapsense_Filter.c **** *  Initializes the Median filter.
1069:Generated_Source\PSoC4/cyCapsense_Filter.c **** *
1070:Generated_Source\PSoC4/cyCapsense_Filter.c **** * \param ptrFilterHistObj
1071:Generated_Source\PSoC4/cyCapsense_Filter.c **** *  The pointer to the filter RAM object of the sensor.
1072:Generated_Source\PSoC4/cyCapsense_Filter.c **** *
1073:Generated_Source\PSoC4/cyCapsense_Filter.c **** * \param ptrSensorObj
1074:Generated_Source\PSoC4/cyCapsense_Filter.c **** *  The pointer to the sensor RAM object of the sensor.
1075:Generated_Source\PSoC4/cyCapsense_Filter.c **** *
1076:Generated_Source\PSoC4/cyCapsense_Filter.c **** * \param wdType
1077:Generated_Source\PSoC4/cyCapsense_Filter.c **** *  Specifies the type of a widget.
1078:Generated_Source\PSoC4/cyCapsense_Filter.c **** *
ARM GAS  C:\Users\turan\AppData\Local\Temp\ccfzf2rj.s 			page 25


1079:Generated_Source\PSoC4/cyCapsense_Filter.c **** *******************************************************************************/
1080:Generated_Source\PSoC4/cyCapsense_Filter.c **** void cyCapsense_InitializeMedianInternal(cyCapsense_PTR_FILTER_VARIANT ptrFilterHistObj,
1081:Generated_Source\PSoC4/cyCapsense_Filter.c ****                                                cyCapsense_RAM_SNS_STRUCT *ptrSensorObj, uint32 wdTy
1082:Generated_Source\PSoC4/cyCapsense_Filter.c **** {
1083:Generated_Source\PSoC4/cyCapsense_Filter.c ****     uint32 freqChannel;
1084:Generated_Source\PSoC4/cyCapsense_Filter.c **** 
1085:Generated_Source\PSoC4/cyCapsense_Filter.c ****     for(freqChannel = cyCapsense_NUM_SCAN_FREQS; freqChannel-- > 0u;)
1086:Generated_Source\PSoC4/cyCapsense_Filter.c ****     {
1087:Generated_Source\PSoC4/cyCapsense_Filter.c ****         if ((cyCapsense_WD_TYPE_ENUM)wdType != cyCapsense_WD_PROXIMITY_E)
1088:Generated_Source\PSoC4/cyCapsense_Filter.c ****         {
1089:Generated_Source\PSoC4/cyCapsense_Filter.c ****             #if (cyCapsense_REGULAR_SENSOR_EN && cyCapsense_REGULAR_RC_MEDIAN_FILTER_EN)
1090:Generated_Source\PSoC4/cyCapsense_Filter.c ****                 ptrFilterHistObj.ptrRegular->regularChannel[freqChannel].medHistory[0u] = ptrSensor
1091:Generated_Source\PSoC4/cyCapsense_Filter.c ****                 ptrFilterHistObj.ptrRegular->regularChannel[freqChannel].medHistory[1u] = ptrSensor
1092:Generated_Source\PSoC4/cyCapsense_Filter.c ****             #endif /* (cyCapsense_REGULAR_SENSOR_EN) */
1093:Generated_Source\PSoC4/cyCapsense_Filter.c ****         }
1094:Generated_Source\PSoC4/cyCapsense_Filter.c ****         else
1095:Generated_Source\PSoC4/cyCapsense_Filter.c ****         {
1096:Generated_Source\PSoC4/cyCapsense_Filter.c ****             #if (cyCapsense_PROXIMITY_SENSOR_EN && cyCapsense_PROX_RC_MEDIAN_FILTER_EN)
1097:Generated_Source\PSoC4/cyCapsense_Filter.c ****                 ptrFilterHistObj.ptrProx->proxChannel[freqChannel].medHistory[0u] = ptrSensorObj->r
1098:Generated_Source\PSoC4/cyCapsense_Filter.c ****                 ptrFilterHistObj.ptrProx->proxChannel[freqChannel].medHistory[1u] = ptrSensorObj->r
1099:Generated_Source\PSoC4/cyCapsense_Filter.c ****             #endif /* (cyCapsense_PROXIMITY_SENSOR_EN) */
1100:Generated_Source\PSoC4/cyCapsense_Filter.c ****         }
1101:Generated_Source\PSoC4/cyCapsense_Filter.c ****     }
1102:Generated_Source\PSoC4/cyCapsense_Filter.c **** }
1103:Generated_Source\PSoC4/cyCapsense_Filter.c **** 
1104:Generated_Source\PSoC4/cyCapsense_Filter.c **** 
1105:Generated_Source\PSoC4/cyCapsense_Filter.c **** /*******************************************************************************
1106:Generated_Source\PSoC4/cyCapsense_Filter.c **** * Function Name: cyCapsense_RunMedianInternal
1107:Generated_Source\PSoC4/cyCapsense_Filter.c **** ****************************************************************************//**
1108:Generated_Source\PSoC4/cyCapsense_Filter.c **** *
1109:Generated_Source\PSoC4/cyCapsense_Filter.c **** * \brief
1110:Generated_Source\PSoC4/cyCapsense_Filter.c **** *  Runs the Median filter.
1111:Generated_Source\PSoC4/cyCapsense_Filter.c **** *
1112:Generated_Source\PSoC4/cyCapsense_Filter.c **** * \details
1113:Generated_Source\PSoC4/cyCapsense_Filter.c **** *  Runs the Median filter.
1114:Generated_Source\PSoC4/cyCapsense_Filter.c **** *
1115:Generated_Source\PSoC4/cyCapsense_Filter.c **** * \param ptrFilterHistObj
1116:Generated_Source\PSoC4/cyCapsense_Filter.c **** *  The pointer to the filter RAM object of the sensor.
1117:Generated_Source\PSoC4/cyCapsense_Filter.c **** *
1118:Generated_Source\PSoC4/cyCapsense_Filter.c **** * \param ptrSensorObj
1119:Generated_Source\PSoC4/cyCapsense_Filter.c **** *  The pointer to the sensor RAM object of the sensor.
1120:Generated_Source\PSoC4/cyCapsense_Filter.c **** *
1121:Generated_Source\PSoC4/cyCapsense_Filter.c **** * \param wdType
1122:Generated_Source\PSoC4/cyCapsense_Filter.c **** *  Specifies the type of a widget.
1123:Generated_Source\PSoC4/cyCapsense_Filter.c **** *
1124:Generated_Source\PSoC4/cyCapsense_Filter.c **** *******************************************************************************/
1125:Generated_Source\PSoC4/cyCapsense_Filter.c **** void cyCapsense_RunMedianInternal(cyCapsense_PTR_FILTER_VARIANT ptrFilterHistObj,
1126:Generated_Source\PSoC4/cyCapsense_Filter.c ****                                         cyCapsense_RAM_SNS_STRUCT *ptrSensorObj, uint32 wdType)
1127:Generated_Source\PSoC4/cyCapsense_Filter.c **** {
1128:Generated_Source\PSoC4/cyCapsense_Filter.c ****     uint32 freqChannel;
1129:Generated_Source\PSoC4/cyCapsense_Filter.c **** 
1130:Generated_Source\PSoC4/cyCapsense_Filter.c ****     #if ((cyCapsense_REGULAR_SENSOR_EN && cyCapsense_REGULAR_RC_MEDIAN_FILTER_EN) || \
1131:Generated_Source\PSoC4/cyCapsense_Filter.c ****          (cyCapsense_PROXIMITY_SENSOR_EN && cyCapsense_PROX_RC_MEDIAN_FILTER_EN))
1132:Generated_Source\PSoC4/cyCapsense_Filter.c ****         uint32 temp;
1133:Generated_Source\PSoC4/cyCapsense_Filter.c ****     #endif
1134:Generated_Source\PSoC4/cyCapsense_Filter.c **** 
1135:Generated_Source\PSoC4/cyCapsense_Filter.c ****     for(freqChannel = cyCapsense_NUM_SCAN_FREQS; freqChannel-- > 0u;)
ARM GAS  C:\Users\turan\AppData\Local\Temp\ccfzf2rj.s 			page 26


1136:Generated_Source\PSoC4/cyCapsense_Filter.c ****     {
1137:Generated_Source\PSoC4/cyCapsense_Filter.c ****         if ((cyCapsense_WD_TYPE_ENUM)wdType != cyCapsense_WD_PROXIMITY_E)
1138:Generated_Source\PSoC4/cyCapsense_Filter.c ****         {
1139:Generated_Source\PSoC4/cyCapsense_Filter.c ****             #if (cyCapsense_REGULAR_SENSOR_EN && cyCapsense_REGULAR_RC_MEDIAN_FILTER_EN)
1140:Generated_Source\PSoC4/cyCapsense_Filter.c ****                 temp = cyCapsense_FtMedian((uint32)ptrSensorObj->raw[freqChannel],\
1141:Generated_Source\PSoC4/cyCapsense_Filter.c ****                                                  (uint32)ptrFilterHistObj.ptrRegular->regularChanne
1142:Generated_Source\PSoC4/cyCapsense_Filter.c ****                                                  (uint32)ptrFilterHistObj.ptrRegular->regularChanne
1143:Generated_Source\PSoC4/cyCapsense_Filter.c ****                 ptrFilterHistObj.ptrRegular->regularChannel[freqChannel].medHistory[1u] = \
1144:Generated_Source\PSoC4/cyCapsense_Filter.c ****                 ptrFilterHistObj.ptrRegular->regularChannel[freqChannel].medHistory[0u];
1145:Generated_Source\PSoC4/cyCapsense_Filter.c ****                 ptrFilterHistObj.ptrRegular->regularChannel[freqChannel].medHistory[0u] = ptrSensor
1146:Generated_Source\PSoC4/cyCapsense_Filter.c ****                 ptrSensorObj->raw[freqChannel] = LO16(temp);
1147:Generated_Source\PSoC4/cyCapsense_Filter.c ****             #endif /* (cyCapsense_REGULAR_SENSOR_EN) */
1148:Generated_Source\PSoC4/cyCapsense_Filter.c ****         }
1149:Generated_Source\PSoC4/cyCapsense_Filter.c ****         else
1150:Generated_Source\PSoC4/cyCapsense_Filter.c ****         {
1151:Generated_Source\PSoC4/cyCapsense_Filter.c ****             #if (cyCapsense_PROXIMITY_SENSOR_EN && cyCapsense_PROX_RC_MEDIAN_FILTER_EN)
1152:Generated_Source\PSoC4/cyCapsense_Filter.c ****                 temp = cyCapsense_FtMedian((uint32)ptrSensorObj->raw[freqChannel],\
1153:Generated_Source\PSoC4/cyCapsense_Filter.c ****                                                  (uint32)ptrFilterHistObj.ptrProx->proxChannel[freq
1154:Generated_Source\PSoC4/cyCapsense_Filter.c ****                                                  (uint32)ptrFilterHistObj.ptrProx->proxChannel[freq
1155:Generated_Source\PSoC4/cyCapsense_Filter.c ****                 ptrFilterHistObj.ptrProx->proxChannel[freqChannel].medHistory[1u] = \
1156:Generated_Source\PSoC4/cyCapsense_Filter.c ****                 ptrFilterHistObj.ptrProx->proxChannel[freqChannel].medHistory[0u];
1157:Generated_Source\PSoC4/cyCapsense_Filter.c ****                 ptrFilterHistObj.ptrProx->proxChannel[freqChannel].medHistory[0u] = ptrSensorObj->r
1158:Generated_Source\PSoC4/cyCapsense_Filter.c ****                 ptrSensorObj->raw[freqChannel] = LO16(temp);
1159:Generated_Source\PSoC4/cyCapsense_Filter.c ****             #endif /* (cyCapsense_PROXIMITY_SENSOR_EN) */
1160:Generated_Source\PSoC4/cyCapsense_Filter.c ****         }
1161:Generated_Source\PSoC4/cyCapsense_Filter.c ****     }
1162:Generated_Source\PSoC4/cyCapsense_Filter.c **** }
1163:Generated_Source\PSoC4/cyCapsense_Filter.c **** #endif /* (cyCapsense_REGULAR_RC_MEDIAN_FILTER_EN || cyCapsense_PROX_RC_MEDIAN_FILTER_EN) */
1164:Generated_Source\PSoC4/cyCapsense_Filter.c **** 
1165:Generated_Source\PSoC4/cyCapsense_Filter.c **** 
1166:Generated_Source\PSoC4/cyCapsense_Filter.c **** #if (cyCapsense_REGULAR_RC_AVERAGE_FILTER_EN || cyCapsense_PROX_RC_AVERAGE_FILTER_EN)
1167:Generated_Source\PSoC4/cyCapsense_Filter.c **** 
1168:Generated_Source\PSoC4/cyCapsense_Filter.c **** /*******************************************************************************
1169:Generated_Source\PSoC4/cyCapsense_Filter.c **** * Function Name: cyCapsense_InitializeAverage
1170:Generated_Source\PSoC4/cyCapsense_Filter.c **** ****************************************************************************//**
1171:Generated_Source\PSoC4/cyCapsense_Filter.c **** *
1172:Generated_Source\PSoC4/cyCapsense_Filter.c **** * \brief
1173:Generated_Source\PSoC4/cyCapsense_Filter.c **** *  Initializes the average filter history.
1174:Generated_Source\PSoC4/cyCapsense_Filter.c **** *
1175:Generated_Source\PSoC4/cyCapsense_Filter.c **** * \details
1176:Generated_Source\PSoC4/cyCapsense_Filter.c **** *  Initializes the average filter history.
1177:Generated_Source\PSoC4/cyCapsense_Filter.c **** *
1178:Generated_Source\PSoC4/cyCapsense_Filter.c **** * \param widgetId
1179:Generated_Source\PSoC4/cyCapsense_Filter.c **** *  Specifies the ID number of the widget.
1180:Generated_Source\PSoC4/cyCapsense_Filter.c **** *
1181:Generated_Source\PSoC4/cyCapsense_Filter.c **** * \param sensorId
1182:Generated_Source\PSoC4/cyCapsense_Filter.c **** *  Specifies the ID number of the sensor in the widget.
1183:Generated_Source\PSoC4/cyCapsense_Filter.c **** *
1184:Generated_Source\PSoC4/cyCapsense_Filter.c **** *******************************************************************************/
1185:Generated_Source\PSoC4/cyCapsense_Filter.c **** void cyCapsense_InitializeAverage(uint32 widgetId, uint32 sensorId)
1186:Generated_Source\PSoC4/cyCapsense_Filter.c **** {
1187:Generated_Source\PSoC4/cyCapsense_Filter.c ****     cyCapsense_FLASH_WD_STRUCT const *ptrWidget = &cyCapsense_dsFlash.wdgtArray[widgetId];
1188:Generated_Source\PSoC4/cyCapsense_Filter.c ****     cyCapsense_RAM_SNS_STRUCT *ptrSensor = NULL;
1189:Generated_Source\PSoC4/cyCapsense_Filter.c ****     cyCapsense_PTR_FILTER_VARIANT ptrFilterHistObj;
1190:Generated_Source\PSoC4/cyCapsense_Filter.c **** 
1191:Generated_Source\PSoC4/cyCapsense_Filter.c ****     /* Find pointer to specified sensor object */
1192:Generated_Source\PSoC4/cyCapsense_Filter.c ****     ptrSensor = ptrWidget->ptr2SnsRam;
ARM GAS  C:\Users\turan\AppData\Local\Temp\ccfzf2rj.s 			page 27


1193:Generated_Source\PSoC4/cyCapsense_Filter.c ****     ptrSensor = &ptrSensor[sensorId];
1194:Generated_Source\PSoC4/cyCapsense_Filter.c **** 
1195:Generated_Source\PSoC4/cyCapsense_Filter.c ****     /* Find pointer to specified filter sensor object */
1196:Generated_Source\PSoC4/cyCapsense_Filter.c ****     ptrFilterHistObj.ptr = ptrWidget->ptr2FltrHistory;
1197:Generated_Source\PSoC4/cyCapsense_Filter.c **** 
1198:Generated_Source\PSoC4/cyCapsense_Filter.c ****     if ((cyCapsense_WD_TYPE_ENUM)ptrWidget->wdgtType != cyCapsense_WD_PROXIMITY_E)
1199:Generated_Source\PSoC4/cyCapsense_Filter.c ****     {
1200:Generated_Source\PSoC4/cyCapsense_Filter.c ****         #if (cyCapsense_REGULAR_SENSOR_EN)
1201:Generated_Source\PSoC4/cyCapsense_Filter.c ****             ptrFilterHistObj.ptrRegular = &ptrFilterHistObj.ptrRegular[sensorId];
1202:Generated_Source\PSoC4/cyCapsense_Filter.c ****         #endif /* (cyCapsense_REGULAR_SENSOR_EN) */
1203:Generated_Source\PSoC4/cyCapsense_Filter.c ****     }
1204:Generated_Source\PSoC4/cyCapsense_Filter.c ****     else
1205:Generated_Source\PSoC4/cyCapsense_Filter.c ****     {
1206:Generated_Source\PSoC4/cyCapsense_Filter.c ****         #if (cyCapsense_PROXIMITY_SENSOR_EN)
1207:Generated_Source\PSoC4/cyCapsense_Filter.c ****             ptrFilterHistObj.ptrProx = &ptrFilterHistObj.ptrProx[sensorId];
1208:Generated_Source\PSoC4/cyCapsense_Filter.c ****         #endif /* (cyCapsense_PROXIMITY_SENSOR_EN) */
1209:Generated_Source\PSoC4/cyCapsense_Filter.c ****     }
1210:Generated_Source\PSoC4/cyCapsense_Filter.c **** 
1211:Generated_Source\PSoC4/cyCapsense_Filter.c ****     cyCapsense_InitializeAverageInternal(ptrFilterHistObj, ptrSensor, (uint32)ptrWidget->wdgtType);
1212:Generated_Source\PSoC4/cyCapsense_Filter.c **** }
1213:Generated_Source\PSoC4/cyCapsense_Filter.c **** 
1214:Generated_Source\PSoC4/cyCapsense_Filter.c **** 
1215:Generated_Source\PSoC4/cyCapsense_Filter.c **** /*******************************************************************************
1216:Generated_Source\PSoC4/cyCapsense_Filter.c **** * Function Name: cyCapsense_RunAverage
1217:Generated_Source\PSoC4/cyCapsense_Filter.c **** ****************************************************************************//**
1218:Generated_Source\PSoC4/cyCapsense_Filter.c **** *
1219:Generated_Source\PSoC4/cyCapsense_Filter.c **** * \brief
1220:Generated_Source\PSoC4/cyCapsense_Filter.c **** *  Executes the average filter algorithm on a sensor indicated by an input
1221:Generated_Source\PSoC4/cyCapsense_Filter.c **** *  parameter.
1222:Generated_Source\PSoC4/cyCapsense_Filter.c **** *
1223:Generated_Source\PSoC4/cyCapsense_Filter.c **** * \details
1224:Generated_Source\PSoC4/cyCapsense_Filter.c **** *  Executes the average filter algorithm on a sensor indicated by an input
1225:Generated_Source\PSoC4/cyCapsense_Filter.c **** *  parameter.
1226:Generated_Source\PSoC4/cyCapsense_Filter.c **** *
1227:Generated_Source\PSoC4/cyCapsense_Filter.c **** * \param widgetId
1228:Generated_Source\PSoC4/cyCapsense_Filter.c **** *  Specifies the ID number of the widget.
1229:Generated_Source\PSoC4/cyCapsense_Filter.c **** *
1230:Generated_Source\PSoC4/cyCapsense_Filter.c **** * \param sensorId
1231:Generated_Source\PSoC4/cyCapsense_Filter.c **** *  Specifies the ID number of the sensor in the widget.
1232:Generated_Source\PSoC4/cyCapsense_Filter.c **** *
1233:Generated_Source\PSoC4/cyCapsense_Filter.c **** *******************************************************************************/
1234:Generated_Source\PSoC4/cyCapsense_Filter.c **** void cyCapsense_RunAverage(uint32 widgetId, uint32 sensorId)
1235:Generated_Source\PSoC4/cyCapsense_Filter.c **** {
1236:Generated_Source\PSoC4/cyCapsense_Filter.c ****     cyCapsense_FLASH_WD_STRUCT const *ptrWidget = &cyCapsense_dsFlash.wdgtArray[widgetId];
1237:Generated_Source\PSoC4/cyCapsense_Filter.c ****     cyCapsense_RAM_SNS_STRUCT *ptrSensor = NULL;
1238:Generated_Source\PSoC4/cyCapsense_Filter.c ****     cyCapsense_PTR_FILTER_VARIANT ptrFilterHistObj;
1239:Generated_Source\PSoC4/cyCapsense_Filter.c **** 
1240:Generated_Source\PSoC4/cyCapsense_Filter.c ****     /* Find pointer to specified sensor object */
1241:Generated_Source\PSoC4/cyCapsense_Filter.c ****     ptrSensor = ptrWidget->ptr2SnsRam;
1242:Generated_Source\PSoC4/cyCapsense_Filter.c ****     ptrSensor = &ptrSensor[sensorId];
1243:Generated_Source\PSoC4/cyCapsense_Filter.c **** 
1244:Generated_Source\PSoC4/cyCapsense_Filter.c ****     /* Find pointer to specified filter sensor object */
1245:Generated_Source\PSoC4/cyCapsense_Filter.c ****     ptrFilterHistObj.ptr = ptrWidget->ptr2FltrHistory;
1246:Generated_Source\PSoC4/cyCapsense_Filter.c **** 
1247:Generated_Source\PSoC4/cyCapsense_Filter.c ****     if ((cyCapsense_WD_TYPE_ENUM)ptrWidget->wdgtType != cyCapsense_WD_PROXIMITY_E)
1248:Generated_Source\PSoC4/cyCapsense_Filter.c ****     {
1249:Generated_Source\PSoC4/cyCapsense_Filter.c ****         #if (cyCapsense_REGULAR_SENSOR_EN)
ARM GAS  C:\Users\turan\AppData\Local\Temp\ccfzf2rj.s 			page 28


1250:Generated_Source\PSoC4/cyCapsense_Filter.c ****             ptrFilterHistObj.ptrRegular = &ptrFilterHistObj.ptrRegular[sensorId];
1251:Generated_Source\PSoC4/cyCapsense_Filter.c ****         #endif /* (cyCapsense_REGULAR_SENSOR_EN) */
1252:Generated_Source\PSoC4/cyCapsense_Filter.c ****     }
1253:Generated_Source\PSoC4/cyCapsense_Filter.c ****     else
1254:Generated_Source\PSoC4/cyCapsense_Filter.c ****     {
1255:Generated_Source\PSoC4/cyCapsense_Filter.c ****         #if (cyCapsense_PROXIMITY_SENSOR_EN)
1256:Generated_Source\PSoC4/cyCapsense_Filter.c ****             ptrFilterHistObj.ptrProx = &ptrFilterHistObj.ptrProx[sensorId];
1257:Generated_Source\PSoC4/cyCapsense_Filter.c ****         #endif /* (cyCapsense_PROXIMITY_SENSOR_EN) */
1258:Generated_Source\PSoC4/cyCapsense_Filter.c ****     }
1259:Generated_Source\PSoC4/cyCapsense_Filter.c **** 
1260:Generated_Source\PSoC4/cyCapsense_Filter.c ****     cyCapsense_RunAverageInternal(ptrFilterHistObj, ptrSensor, (uint32)ptrWidget->wdgtType);
1261:Generated_Source\PSoC4/cyCapsense_Filter.c **** }
1262:Generated_Source\PSoC4/cyCapsense_Filter.c **** 
1263:Generated_Source\PSoC4/cyCapsense_Filter.c **** 
1264:Generated_Source\PSoC4/cyCapsense_Filter.c **** /*******************************************************************************
1265:Generated_Source\PSoC4/cyCapsense_Filter.c **** * Function Name: cyCapsense_InitializeAverageInternal
1266:Generated_Source\PSoC4/cyCapsense_Filter.c **** ****************************************************************************//**
1267:Generated_Source\PSoC4/cyCapsense_Filter.c **** *
1268:Generated_Source\PSoC4/cyCapsense_Filter.c **** * \brief
1269:Generated_Source\PSoC4/cyCapsense_Filter.c **** *  Initializes the average filter.
1270:Generated_Source\PSoC4/cyCapsense_Filter.c **** *
1271:Generated_Source\PSoC4/cyCapsense_Filter.c **** * \details
1272:Generated_Source\PSoC4/cyCapsense_Filter.c **** *  Initializes the average filter.
1273:Generated_Source\PSoC4/cyCapsense_Filter.c **** *
1274:Generated_Source\PSoC4/cyCapsense_Filter.c **** * \param ptrFilterHistObj
1275:Generated_Source\PSoC4/cyCapsense_Filter.c **** *  The pointer to the filter RAM object of the sensor.
1276:Generated_Source\PSoC4/cyCapsense_Filter.c **** *
1277:Generated_Source\PSoC4/cyCapsense_Filter.c **** * \param ptrSensorObj
1278:Generated_Source\PSoC4/cyCapsense_Filter.c **** *  The pointer to the sensor RAM object of the sensor.
1279:Generated_Source\PSoC4/cyCapsense_Filter.c **** *
1280:Generated_Source\PSoC4/cyCapsense_Filter.c **** * \param wdType
1281:Generated_Source\PSoC4/cyCapsense_Filter.c **** *  Specifies the type of a widget.
1282:Generated_Source\PSoC4/cyCapsense_Filter.c **** *
1283:Generated_Source\PSoC4/cyCapsense_Filter.c **** *******************************************************************************/
1284:Generated_Source\PSoC4/cyCapsense_Filter.c **** void cyCapsense_InitializeAverageInternal(cyCapsense_PTR_FILTER_VARIANT ptrFilterHistObj,\
1285:Generated_Source\PSoC4/cyCapsense_Filter.c ****                                                   cyCapsense_RAM_SNS_STRUCT *ptrSensorObj, uint32 w
1286:Generated_Source\PSoC4/cyCapsense_Filter.c **** {
 267              		.loc 1 1286 0
 268              		.cfi_startproc
 269              		@ args = 0, pretend = 0, frame = 0
 270              		@ frame_needed = 0, uses_anonymous_args = 0
 271              	.LVL35:
 272 0000 F0B5     		push	{r4, r5, r6, r7, lr}
 273              		.cfi_def_cfa_offset 20
 274              		.cfi_offset 4, -20
 275              		.cfi_offset 5, -16
 276              		.cfi_offset 6, -12
 277              		.cfi_offset 7, -8
 278              		.cfi_offset 14, -4
 279              	.LVL36:
1287:Generated_Source\PSoC4/cyCapsense_Filter.c ****     uint32 freqChannel;
1288:Generated_Source\PSoC4/cyCapsense_Filter.c **** 
1289:Generated_Source\PSoC4/cyCapsense_Filter.c ****     for(freqChannel = cyCapsense_NUM_SCAN_FREQS; freqChannel-- > 0u;)
 280              		.loc 1 1289 0
 281 0002 0123     		movs	r3, #1
 282 0004 0EE0     		b	.L18
 283              	.LVL37:
ARM GAS  C:\Users\turan\AppData\Local\Temp\ccfzf2rj.s 			page 29


 284              	.L20:
1290:Generated_Source\PSoC4/cyCapsense_Filter.c ****     {
1291:Generated_Source\PSoC4/cyCapsense_Filter.c ****         if ((cyCapsense_WD_TYPE_ENUM)wdType != cyCapsense_WD_PROXIMITY_E)
 285              		.loc 1 1291 0
 286 0006 FF23     		movs	r3, #255
 287 0008 1340     		ands	r3, r2
 288 000a 062B     		cmp	r3, #6
 289 000c 09D0     		beq	.L19
1292:Generated_Source\PSoC4/cyCapsense_Filter.c ****         {
1293:Generated_Source\PSoC4/cyCapsense_Filter.c ****             #if (cyCapsense_REGULAR_SENSOR_EN && cyCapsense_REGULAR_RC_AVERAGE_FILTER_EN)
1294:Generated_Source\PSoC4/cyCapsense_Filter.c ****                 ptrFilterHistObj.ptrRegular->regularChannel[freqChannel].avgHistory[0] = ptrSensorO
 290              		.loc 1 1294 0
 291 000e 6500     		lsls	r5, r4, #1
 292 0010 6F5A     		ldrh	r7, [r5, r1]
 293 0012 2E19     		adds	r6, r5, r4
 294 0014 7300     		lsls	r3, r6, #1
 295 0016 1F52     		strh	r7, [r3, r0]
1295:Generated_Source\PSoC4/cyCapsense_Filter.c ****                 #if (cyCapsense_REGULAR_AVERAGE_LEN == cyCapsense_AVERAGE_FILTER_LEN_4)
1296:Generated_Source\PSoC4/cyCapsense_Filter.c ****                     ptrFilterHistObj.ptrRegular->regularChannel[freqChannel].avgHistory[1u] = ptrSe
 296              		.loc 1 1296 0
 297 0018 6F5A     		ldrh	r7, [r5, r1]
 298 001a C318     		adds	r3, r0, r3
 299 001c 5F80     		strh	r7, [r3, #2]
1297:Generated_Source\PSoC4/cyCapsense_Filter.c ****                     ptrFilterHistObj.ptrRegular->regularChannel[freqChannel].avgHistory[2u] = ptrSe
 300              		.loc 1 1297 0
 301 001e 6D5A     		ldrh	r5, [r5, r1]
 302 0020 9D80     		strh	r5, [r3, #4]
 303              	.L19:
1286:Generated_Source\PSoC4/cyCapsense_Filter.c ****     uint32 freqChannel;
 304              		.loc 1 1286 0 discriminator 1
 305 0022 2300     		movs	r3, r4
 306              	.LVL38:
 307              	.L18:
1289:Generated_Source\PSoC4/cyCapsense_Filter.c ****     {
 308              		.loc 1 1289 0 discriminator 1
 309 0024 5C1E     		subs	r4, r3, #1
 310              	.LVL39:
 311 0026 002B     		cmp	r3, #0
 312 0028 EDD1     		bne	.L20
1298:Generated_Source\PSoC4/cyCapsense_Filter.c ****                 #endif /* cyCapsense_REGULAR_AVERAGE_LEN == cyCapsense_AVERAGE_FILTER_LEN_4 */
1299:Generated_Source\PSoC4/cyCapsense_Filter.c ****             #endif /* (cyCapsense_REGULAR_SENSOR_EN) */
1300:Generated_Source\PSoC4/cyCapsense_Filter.c ****         }
1301:Generated_Source\PSoC4/cyCapsense_Filter.c ****         else
1302:Generated_Source\PSoC4/cyCapsense_Filter.c ****         {
1303:Generated_Source\PSoC4/cyCapsense_Filter.c ****             #if (cyCapsense_PROXIMITY_SENSOR_EN && cyCapsense_PROX_RC_AVERAGE_FILTER_EN)
1304:Generated_Source\PSoC4/cyCapsense_Filter.c ****                 ptrFilterHistObj.ptrProx->proxChannel[freqChannel].avgHistory[0] = ptrSensorObj->ra
1305:Generated_Source\PSoC4/cyCapsense_Filter.c ****                     #if (cyCapsense_PROX_AVERAGE_LEN == cyCapsense_AVERAGE_FILTER_LEN_4)
1306:Generated_Source\PSoC4/cyCapsense_Filter.c ****                         ptrFilterHistObj.ptrProx->proxChannel[freqChannel].avgHistory[1u] = ptrSens
1307:Generated_Source\PSoC4/cyCapsense_Filter.c ****                         ptrFilterHistObj.ptrProx->proxChannel[freqChannel].avgHistory[2u] = ptrSens
1308:Generated_Source\PSoC4/cyCapsense_Filter.c ****                     #endif /* cyCapsense_REGULAR_AVERAGE_LEN == cyCapsense_AVERAGE_FILTER_LEN_4 */
1309:Generated_Source\PSoC4/cyCapsense_Filter.c ****             #endif /* (cyCapsense_PROXIMITY_SENSOR_EN) */
1310:Generated_Source\PSoC4/cyCapsense_Filter.c ****         }
1311:Generated_Source\PSoC4/cyCapsense_Filter.c ****     }
1312:Generated_Source\PSoC4/cyCapsense_Filter.c **** }
 313              		.loc 1 1312 0
 314              		@ sp needed
 315              	.LVL40:
ARM GAS  C:\Users\turan\AppData\Local\Temp\ccfzf2rj.s 			page 30


 316 002a F0BD     		pop	{r4, r5, r6, r7, pc}
 317              		.cfi_endproc
 318              	.LFE15:
 319              		.size	cyCapsense_InitializeAverageInternal, .-cyCapsense_InitializeAverageInternal
 320              		.section	.text.cyCapsense_InitializeWidgetFilter,"ax",%progbits
 321              		.align	2
 322              		.global	cyCapsense_InitializeWidgetFilter
 323              		.code	16
 324              		.thumb_func
 325              		.type	cyCapsense_InitializeWidgetFilter, %function
 326              	cyCapsense_InitializeWidgetFilter:
 327              	.LFB12:
 648:Generated_Source\PSoC4/cyCapsense_Filter.c ****     uint32 sensorId;
 328              		.loc 1 648 0
 329              		.cfi_startproc
 330              		@ args = 0, pretend = 0, frame = 0
 331              		@ frame_needed = 0, uses_anonymous_args = 0
 332              	.LVL41:
 333 0000 F8B5     		push	{r3, r4, r5, r6, r7, lr}
 334              		.cfi_def_cfa_offset 24
 335              		.cfi_offset 3, -24
 336              		.cfi_offset 4, -20
 337              		.cfi_offset 5, -16
 338              		.cfi_offset 6, -12
 339              		.cfi_offset 7, -8
 340              		.cfi_offset 14, -4
 341 0002 4F46     		mov	r7, r9
 342 0004 4646     		mov	r6, r8
 343 0006 C0B4     		push	{r6, r7}
 344              		.cfi_def_cfa_offset 32
 345              		.cfi_offset 8, -32
 346              		.cfi_offset 9, -28
 347 0008 0500     		movs	r5, r0
 348              	.LVL42:
 666:Generated_Source\PSoC4/cyCapsense_Filter.c ****     #endif /* (0u != (cyCapsense_CSD_AUTOTUNE & cyCapsense_CSD_SS_TH_EN)) */
 349              		.loc 1 666 0
 350 000a 4301     		lsls	r3, r0, #5
 351 000c 174A     		ldr	r2, .L25
 352 000e D318     		adds	r3, r2, r3
 353              	.LVL43:
 354 0010 5A68     		ldr	r2, [r3, #4]
 355 0012 9146     		mov	r9, r2
 356              	.LVL44:
 670:Generated_Source\PSoC4/cyCapsense_Filter.c **** 
 357              		.loc 1 670 0
 358 0014 1B8B     		ldrh	r3, [r3, #24]
 359              	.LVL45:
 672:Generated_Source\PSoC4/cyCapsense_Filter.c ****     {
 360              		.loc 1 672 0
 361 0016 21E0     		b	.L22
 362              	.LVL46:
 363              	.L24:
 675:Generated_Source\PSoC4/cyCapsense_Filter.c ****         ptrSensor = &ptrSensor[sensorId];
 364              		.loc 1 675 0
 365 0018 6A01     		lsls	r2, r5, #5
 366 001a 144B     		ldr	r3, .L25
 367 001c 9B18     		adds	r3, r3, r2
ARM GAS  C:\Users\turan\AppData\Local\Temp\ccfzf2rj.s 			page 31


 368              	.LVL47:
 676:Generated_Source\PSoC4/cyCapsense_Filter.c **** 
 369              		.loc 1 676 0
 370 001e A200     		lsls	r2, r4, #2
 371 0020 1219     		adds	r2, r2, r4
 372 0022 5700     		lsls	r7, r2, #1
 373 0024 9A68     		ldr	r2, [r3, #8]
 374 0026 9446     		mov	ip, r2
 375 0028 6744     		add	r7, r7, ip
 376              	.LVL48:
 680:Generated_Source\PSoC4/cyCapsense_Filter.c ****         #endif
 377              		.loc 1 680 0
 378 002a DE68     		ldr	r6, [r3, #12]
 379 002c 3000     		movs	r0, r6
 380              	.LVL49:
 686:Generated_Source\PSoC4/cyCapsense_Filter.c ****         #endif /* (0u != (cyCapsense_CSD_AUTOTUNE & cyCapsense_CSD_SS_TH_EN)) */
 381              		.loc 1 686 0
 382 002e 6100     		lsls	r1, r4, #1
 383 0030 0919     		adds	r1, r1, r4
 384 0032 8A00     		lsls	r2, r1, #2
 385 0034 D969     		ldr	r1, [r3, #28]
 386 0036 8846     		mov	r8, r1
 387 0038 9044     		add	r8, r8, r2
 388              	.LVL50:
 689:Generated_Source\PSoC4/cyCapsense_Filter.c ****         {
 389              		.loc 1 689 0
 390 003a 9A7E     		ldrb	r2, [r3, #26]
 391 003c 062A     		cmp	r2, #6
 392 003e 03D0     		beq	.L23
 694:Generated_Source\PSoC4/cyCapsense_Filter.c ****             #endif
 393              		.loc 1 694 0
 394 0040 6300     		lsls	r3, r4, #1
 395 0042 1B19     		adds	r3, r3, r4
 396 0044 5800     		lsls	r0, r3, #1
 397 0046 3018     		adds	r0, r6, r0
 398              	.L23:
 715:Generated_Source\PSoC4/cyCapsense_Filter.c ****         #endif /* (cyCapsense_REGULAR_RC_AVERAGE_FILTER_EN || cyCapsense_PROX_RC_AVERAGE_FILTER_EN)
 399              		.loc 1 715 0
 400 0048 3900     		movs	r1, r7
 401 004a FFF7FEFF 		bl	cyCapsense_InitializeAverageInternal
 402              	.LVL51:
 726:Generated_Source\PSoC4/cyCapsense_Filter.c ****             }
 403              		.loc 1 726 0
 404 004e 4B46     		mov	r3, r9
 405 0050 198A     		ldrh	r1, [r3, #16]
 406 0052 3888     		ldrh	r0, [r7]
 407 0054 4246     		mov	r2, r8
 408 0056 FFF7FEFF 		bl	SmartSense_InitializeNoiseEnvelope
 409              	.LVL52:
 672:Generated_Source\PSoC4/cyCapsense_Filter.c ****     {
 410              		.loc 1 672 0
 411 005a 2300     		movs	r3, r4
 412              	.LVL53:
 413              	.L22:
 672:Generated_Source\PSoC4/cyCapsense_Filter.c ****     {
 414              		.loc 1 672 0 is_stmt 0 discriminator 1
 415 005c 5C1E     		subs	r4, r3, #1
ARM GAS  C:\Users\turan\AppData\Local\Temp\ccfzf2rj.s 			page 32


 416              	.LVL54:
 417 005e 002B     		cmp	r3, #0
 418 0060 DAD1     		bne	.L24
 730:Generated_Source\PSoC4/cyCapsense_Filter.c **** #endif /* ((cyCapsense_ENABLE == cyCapsense_RC_FILTER_EN) || \
 419              		.loc 1 730 0 is_stmt 1
 420              		@ sp needed
 421              	.LVL55:
 422              	.LVL56:
 423              	.LVL57:
 424 0062 0CBC     		pop	{r2, r3}
 425 0064 9046     		mov	r8, r2
 426 0066 9946     		mov	r9, r3
 427 0068 F8BD     		pop	{r3, r4, r5, r6, r7, pc}
 428              	.L26:
 429 006a C046     		.align	2
 430              	.L25:
 431 006c 00000000 		.word	cyCapsense_dsFlash
 432              		.cfi_endproc
 433              	.LFE12:
 434              		.size	cyCapsense_InitializeWidgetFilter, .-cyCapsense_InitializeWidgetFilter
 435              		.section	.text.cyCapsense_InitializeAllFilters,"ax",%progbits
 436              		.align	2
 437              		.global	cyCapsense_InitializeAllFilters
 438              		.code	16
 439              		.thumb_func
 440              		.type	cyCapsense_InitializeAllFilters, %function
 441              	cyCapsense_InitializeAllFilters:
 442              	.LFB11:
 618:Generated_Source\PSoC4/cyCapsense_Filter.c ****     uint32 widgetId;
 443              		.loc 1 618 0
 444              		.cfi_startproc
 445              		@ args = 0, pretend = 0, frame = 0
 446              		@ frame_needed = 0, uses_anonymous_args = 0
 447 0000 10B5     		push	{r4, lr}
 448              		.cfi_def_cfa_offset 8
 449              		.cfi_offset 4, -8
 450              		.cfi_offset 14, -4
 451              	.LVL58:
 621:Generated_Source\PSoC4/cyCapsense_Filter.c ****     {
 452              		.loc 1 621 0
 453 0002 0323     		movs	r3, #3
 454 0004 03E0     		b	.L28
 455              	.LVL59:
 456              	.L29:
 623:Generated_Source\PSoC4/cyCapsense_Filter.c ****     }
 457              		.loc 1 623 0
 458 0006 2000     		movs	r0, r4
 459 0008 FFF7FEFF 		bl	cyCapsense_InitializeWidgetFilter
 460              	.LVL60:
 621:Generated_Source\PSoC4/cyCapsense_Filter.c ****     {
 461              		.loc 1 621 0
 462 000c 2300     		movs	r3, r4
 463              	.LVL61:
 464              	.L28:
 621:Generated_Source\PSoC4/cyCapsense_Filter.c ****     {
 465              		.loc 1 621 0 is_stmt 0 discriminator 1
 466 000e 5C1E     		subs	r4, r3, #1
ARM GAS  C:\Users\turan\AppData\Local\Temp\ccfzf2rj.s 			page 33


 467              	.LVL62:
 468 0010 002B     		cmp	r3, #0
 469 0012 F8D1     		bne	.L29
 625:Generated_Source\PSoC4/cyCapsense_Filter.c **** 
 470              		.loc 1 625 0 is_stmt 1
 471              		@ sp needed
 472              	.LVL63:
 473 0014 10BD     		pop	{r4, pc}
 474              		.cfi_endproc
 475              	.LFE11:
 476              		.size	cyCapsense_InitializeAllFilters, .-cyCapsense_InitializeAllFilters
 477 0016 C046     		.section	.text.cyCapsense_FtInitialize,"ax",%progbits
 478              		.align	2
 479              		.global	cyCapsense_FtInitialize
 480              		.code	16
 481              		.thumb_func
 482              		.type	cyCapsense_FtInitialize, %function
 483              	cyCapsense_FtInitialize:
 484              	.LFB1:
  63:Generated_Source\PSoC4/cyCapsense_Filter.c ****     #if ((cyCapsense_ENABLE == cyCapsense_RC_FILTER_EN) || \
 485              		.loc 1 63 0
 486              		.cfi_startproc
 487              		@ args = 0, pretend = 0, frame = 0
 488              		@ frame_needed = 0, uses_anonymous_args = 0
 489 0000 10B5     		push	{r4, lr}
 490              		.cfi_def_cfa_offset 8
 491              		.cfi_offset 4, -8
 492              		.cfi_offset 14, -4
  66:Generated_Source\PSoC4/cyCapsense_Filter.c ****     #endif /* ((cyCapsense_ENABLE == cyCapsense_RC_FILTER_EN) || \
 493              		.loc 1 66 0
 494 0002 FFF7FEFF 		bl	cyCapsense_InitializeAllFilters
 495              	.LVL64:
  69:Generated_Source\PSoC4/cyCapsense_Filter.c **** 
 496              		.loc 1 69 0
 497              		@ sp needed
 498 0006 10BD     		pop	{r4, pc}
 499              		.cfi_endproc
 500              	.LFE1:
 501              		.size	cyCapsense_FtInitialize, .-cyCapsense_FtInitialize
 502              		.section	.text.cyCapsense_InitializeAverage,"ax",%progbits
 503              		.align	2
 504              		.global	cyCapsense_InitializeAverage
 505              		.code	16
 506              		.thumb_func
 507              		.type	cyCapsense_InitializeAverage, %function
 508              	cyCapsense_InitializeAverage:
 509              	.LFB13:
1186:Generated_Source\PSoC4/cyCapsense_Filter.c ****     cyCapsense_FLASH_WD_STRUCT const *ptrWidget = &cyCapsense_dsFlash.wdgtArray[widgetId];
 510              		.loc 1 1186 0
 511              		.cfi_startproc
 512              		@ args = 0, pretend = 0, frame = 0
 513              		@ frame_needed = 0, uses_anonymous_args = 0
 514              	.LVL65:
 515 0000 70B5     		push	{r4, r5, r6, lr}
 516              		.cfi_def_cfa_offset 16
 517              		.cfi_offset 4, -16
 518              		.cfi_offset 5, -12
ARM GAS  C:\Users\turan\AppData\Local\Temp\ccfzf2rj.s 			page 34


 519              		.cfi_offset 6, -8
 520              		.cfi_offset 14, -4
 521 0002 0C00     		movs	r4, r1
 522              	.LVL66:
1192:Generated_Source\PSoC4/cyCapsense_Filter.c ****     ptrSensor = &ptrSensor[sensorId];
 523              		.loc 1 1192 0
 524 0004 4001     		lsls	r0, r0, #5
 525              	.LVL67:
 526 0006 0A4B     		ldr	r3, .L33
 527 0008 1B18     		adds	r3, r3, r0
 528              	.LVL68:
1193:Generated_Source\PSoC4/cyCapsense_Filter.c **** 
 529              		.loc 1 1193 0
 530 000a 8A00     		lsls	r2, r1, #2
 531 000c 5218     		adds	r2, r2, r1
 532 000e 5100     		lsls	r1, r2, #1
 533              	.LVL69:
 534 0010 9A68     		ldr	r2, [r3, #8]
 535 0012 9446     		mov	ip, r2
 536 0014 6144     		add	r1, r1, ip
 537              	.LVL70:
1196:Generated_Source\PSoC4/cyCapsense_Filter.c **** 
 538              		.loc 1 1196 0
 539 0016 DD68     		ldr	r5, [r3, #12]
 540 0018 2800     		movs	r0, r5
 541              	.LVL71:
1198:Generated_Source\PSoC4/cyCapsense_Filter.c ****     {
 542              		.loc 1 1198 0
 543 001a 9A7E     		ldrb	r2, [r3, #26]
 544 001c 062A     		cmp	r2, #6
 545 001e 03D0     		beq	.L32
1201:Generated_Source\PSoC4/cyCapsense_Filter.c ****         #endif /* (cyCapsense_REGULAR_SENSOR_EN) */
 546              		.loc 1 1201 0
 547 0020 6300     		lsls	r3, r4, #1
 548              	.LVL72:
 549 0022 1C19     		adds	r4, r3, r4
 550              	.LVL73:
 551 0024 6000     		lsls	r0, r4, #1
 552 0026 2818     		adds	r0, r5, r0
 553              	.L32:
1211:Generated_Source\PSoC4/cyCapsense_Filter.c **** }
 554              		.loc 1 1211 0
 555 0028 FFF7FEFF 		bl	cyCapsense_InitializeAverageInternal
 556              	.LVL74:
1212:Generated_Source\PSoC4/cyCapsense_Filter.c **** 
 557              		.loc 1 1212 0
 558              		@ sp needed
 559 002c 70BD     		pop	{r4, r5, r6, pc}
 560              	.L34:
 561 002e C046     		.align	2
 562              	.L33:
 563 0030 00000000 		.word	cyCapsense_dsFlash
 564              		.cfi_endproc
 565              	.LFE13:
 566              		.size	cyCapsense_InitializeAverage, .-cyCapsense_InitializeAverage
 567              		.section	.text.cyCapsense_RunAverageInternal,"ax",%progbits
 568              		.align	2
ARM GAS  C:\Users\turan\AppData\Local\Temp\ccfzf2rj.s 			page 35


 569              		.global	cyCapsense_RunAverageInternal
 570              		.code	16
 571              		.thumb_func
 572              		.type	cyCapsense_RunAverageInternal, %function
 573              	cyCapsense_RunAverageInternal:
 574              	.LFB16:
1313:Generated_Source\PSoC4/cyCapsense_Filter.c **** 
1314:Generated_Source\PSoC4/cyCapsense_Filter.c **** 
1315:Generated_Source\PSoC4/cyCapsense_Filter.c **** /*******************************************************************************
1316:Generated_Source\PSoC4/cyCapsense_Filter.c **** * Function Name: cyCapsense_RunAverageInternal
1317:Generated_Source\PSoC4/cyCapsense_Filter.c **** ****************************************************************************//**
1318:Generated_Source\PSoC4/cyCapsense_Filter.c **** *
1319:Generated_Source\PSoC4/cyCapsense_Filter.c **** * \brief
1320:Generated_Source\PSoC4/cyCapsense_Filter.c **** *  Runs the average filter.
1321:Generated_Source\PSoC4/cyCapsense_Filter.c **** *
1322:Generated_Source\PSoC4/cyCapsense_Filter.c **** * \details
1323:Generated_Source\PSoC4/cyCapsense_Filter.c **** *  Runs the average filter.
1324:Generated_Source\PSoC4/cyCapsense_Filter.c **** *
1325:Generated_Source\PSoC4/cyCapsense_Filter.c **** * \param ptrFilterHistObj
1326:Generated_Source\PSoC4/cyCapsense_Filter.c **** *  The pointer to the filter RAM object of the sensor.
1327:Generated_Source\PSoC4/cyCapsense_Filter.c **** *
1328:Generated_Source\PSoC4/cyCapsense_Filter.c **** * \param ptrSensorObj
1329:Generated_Source\PSoC4/cyCapsense_Filter.c **** *  The pointer to the sensor RAM object of the sensor.
1330:Generated_Source\PSoC4/cyCapsense_Filter.c **** *
1331:Generated_Source\PSoC4/cyCapsense_Filter.c **** * \param wdType
1332:Generated_Source\PSoC4/cyCapsense_Filter.c **** *  Specifies the type of a widget.
1333:Generated_Source\PSoC4/cyCapsense_Filter.c **** *
1334:Generated_Source\PSoC4/cyCapsense_Filter.c **** *******************************************************************************/
1335:Generated_Source\PSoC4/cyCapsense_Filter.c **** void cyCapsense_RunAverageInternal(cyCapsense_PTR_FILTER_VARIANT ptrFilterHistObj,\
1336:Generated_Source\PSoC4/cyCapsense_Filter.c ****                                            cyCapsense_RAM_SNS_STRUCT *ptrSensorObj, uint32 wdType)
1337:Generated_Source\PSoC4/cyCapsense_Filter.c **** {
 575              		.loc 1 1337 0
 576              		.cfi_startproc
 577              		@ args = 0, pretend = 0, frame = 0
 578              		@ frame_needed = 0, uses_anonymous_args = 0
 579              	.LVL75:
 580 0000 F0B5     		push	{r4, r5, r6, r7, lr}
 581              		.cfi_def_cfa_offset 20
 582              		.cfi_offset 4, -20
 583              		.cfi_offset 5, -16
 584              		.cfi_offset 6, -12
 585              		.cfi_offset 7, -8
 586              		.cfi_offset 14, -4
 587              	.LVL76:
1338:Generated_Source\PSoC4/cyCapsense_Filter.c ****     uint32 freqChannel;
1339:Generated_Source\PSoC4/cyCapsense_Filter.c ****     uint32 temp;
1340:Generated_Source\PSoC4/cyCapsense_Filter.c **** 
1341:Generated_Source\PSoC4/cyCapsense_Filter.c ****     for(freqChannel = cyCapsense_NUM_SCAN_FREQS; freqChannel-- > 0u;)
 588              		.loc 1 1341 0
 589 0002 0124     		movs	r4, #1
 590 0004 20E0     		b	.L36
 591              	.LVL77:
 592              	.L38:
1342:Generated_Source\PSoC4/cyCapsense_Filter.c ****     {
1343:Generated_Source\PSoC4/cyCapsense_Filter.c ****         if ((cyCapsense_WD_TYPE_ENUM)wdType != cyCapsense_WD_PROXIMITY_E)
 593              		.loc 1 1343 0
 594 0006 FF24     		movs	r4, #255
ARM GAS  C:\Users\turan\AppData\Local\Temp\ccfzf2rj.s 			page 36


 595 0008 1440     		ands	r4, r2
 596 000a 062C     		cmp	r4, #6
 597 000c 1BD0     		beq	.L37
1344:Generated_Source\PSoC4/cyCapsense_Filter.c ****         {
1345:Generated_Source\PSoC4/cyCapsense_Filter.c ****             #if (cyCapsense_REGULAR_SENSOR_EN && cyCapsense_REGULAR_RC_AVERAGE_FILTER_EN)
1346:Generated_Source\PSoC4/cyCapsense_Filter.c ****                 #if (cyCapsense_REGULAR_AVERAGE_LEN == cyCapsense_AVERAGE_FILTER_LEN_2)
1347:Generated_Source\PSoC4/cyCapsense_Filter.c ****                     temp = ((uint32)ptrSensorObj->raw[freqChannel] +
1348:Generated_Source\PSoC4/cyCapsense_Filter.c ****                             (uint32)ptrFilterHistObj.ptrRegular->regularChannel[freqChannel].avgHis
1349:Generated_Source\PSoC4/cyCapsense_Filter.c ****                     ptrFilterHistObj.ptrRegular->regularChannel[freqChannel].avgHistory[0] = ptrSen
1350:Generated_Source\PSoC4/cyCapsense_Filter.c ****                     ptrSensorObj->raw[freqChannel] = LO16(temp);
1351:Generated_Source\PSoC4/cyCapsense_Filter.c ****                 #else
1352:Generated_Source\PSoC4/cyCapsense_Filter.c ****                     temp = ((uint32)ptrSensorObj->raw[freqChannel] +
 598              		.loc 1 1352 0
 599 000e 5C00     		lsls	r4, r3, #1
 600 0010 665A     		ldrh	r6, [r4, r1]
1353:Generated_Source\PSoC4/cyCapsense_Filter.c ****                             (uint32)ptrFilterHistObj.ptrRegular->regularChannel[freqChannel].avgHis
 601              		.loc 1 1353 0
 602 0012 E718     		adds	r7, r4, r3
 603 0014 7D00     		lsls	r5, r7, #1
 604 0016 2D5A     		ldrh	r5, [r5, r0]
1352:Generated_Source\PSoC4/cyCapsense_Filter.c ****                             (uint32)ptrFilterHistObj.ptrRegular->regularChannel[freqChannel].avgHis
 605              		.loc 1 1352 0
 606 0018 7619     		adds	r6, r6, r5
1354:Generated_Source\PSoC4/cyCapsense_Filter.c ****                             (uint32)ptrFilterHistObj.ptrRegular->regularChannel[freqChannel].avgHis
 607              		.loc 1 1354 0
 608 001a E718     		adds	r7, r4, r3
 609 001c 7D00     		lsls	r5, r7, #1
 610 001e 4519     		adds	r5, r0, r5
 611 0020 6F88     		ldrh	r7, [r5, #2]
 612 0022 BC46     		mov	ip, r7
1353:Generated_Source\PSoC4/cyCapsense_Filter.c ****                             (uint32)ptrFilterHistObj.ptrRegular->regularChannel[freqChannel].avgHis
 613              		.loc 1 1353 0
 614 0024 6644     		add	r6, r6, ip
1355:Generated_Source\PSoC4/cyCapsense_Filter.c ****                             (uint32)ptrFilterHistObj.ptrRegular->regularChannel[freqChannel].avgHis
 615              		.loc 1 1355 0
 616 0026 AF88     		ldrh	r7, [r5, #4]
1354:Generated_Source\PSoC4/cyCapsense_Filter.c ****                             (uint32)ptrFilterHistObj.ptrRegular->regularChannel[freqChannel].avgHis
 617              		.loc 1 1354 0
 618 0028 F619     		adds	r6, r6, r7
1352:Generated_Source\PSoC4/cyCapsense_Filter.c ****                             (uint32)ptrFilterHistObj.ptrRegular->regularChannel[freqChannel].avgHis
 619              		.loc 1 1352 0
 620 002a B608     		lsrs	r6, r6, #2
 621              	.LVL78:
1356:Generated_Source\PSoC4/cyCapsense_Filter.c **** 
1357:Generated_Source\PSoC4/cyCapsense_Filter.c ****                     ptrFilterHistObj.ptrRegular->regularChannel[freqChannel].avgHistory[2u] =
 622              		.loc 1 1357 0
 623 002c 6746     		mov	r7, ip
 624 002e AF80     		strh	r7, [r5, #4]
1358:Generated_Source\PSoC4/cyCapsense_Filter.c ****                     ptrFilterHistObj.ptrRegular->regularChannel[freqChannel].avgHistory[1u];
1359:Generated_Source\PSoC4/cyCapsense_Filter.c ****                     ptrFilterHistObj.ptrRegular->regularChannel[freqChannel].avgHistory[1u] =
1360:Generated_Source\PSoC4/cyCapsense_Filter.c ****                     ptrFilterHistObj.ptrRegular->regularChannel[freqChannel].avgHistory[0];
 625              		.loc 1 1360 0
 626 0030 E718     		adds	r7, r4, r3
 627 0032 7F00     		lsls	r7, r7, #1
 628 0034 3F5A     		ldrh	r7, [r7, r0]
1359:Generated_Source\PSoC4/cyCapsense_Filter.c ****                     ptrFilterHistObj.ptrRegular->regularChannel[freqChannel].avgHistory[0];
 629              		.loc 1 1359 0
ARM GAS  C:\Users\turan\AppData\Local\Temp\ccfzf2rj.s 			page 37


 630 0036 6F80     		strh	r7, [r5, #2]
1361:Generated_Source\PSoC4/cyCapsense_Filter.c ****                     ptrFilterHistObj.ptrRegular->regularChannel[freqChannel].avgHistory[0] = ptrSen
 631              		.loc 1 1361 0
 632 0038 655A     		ldrh	r5, [r4, r1]
 633 003a AC46     		mov	ip, r5
 634 003c E718     		adds	r7, r4, r3
 635 003e 7D00     		lsls	r5, r7, #1
 636 0040 6746     		mov	r7, ip
 637 0042 2F52     		strh	r7, [r5, r0]
1362:Generated_Source\PSoC4/cyCapsense_Filter.c ****                     ptrSensorObj->raw[freqChannel] = LO16(temp);
 638              		.loc 1 1362 0
 639 0044 0E53     		strh	r6, [r1, r4]
 640              	.LVL79:
 641              	.L37:
1337:Generated_Source\PSoC4/cyCapsense_Filter.c ****     uint32 freqChannel;
 642              		.loc 1 1337 0 discriminator 1
 643 0046 1C00     		movs	r4, r3
 644              	.LVL80:
 645              	.L36:
1341:Generated_Source\PSoC4/cyCapsense_Filter.c ****     {
 646              		.loc 1 1341 0 discriminator 1
 647 0048 631E     		subs	r3, r4, #1
 648              	.LVL81:
 649 004a 002C     		cmp	r4, #0
 650 004c DBD1     		bne	.L38
1363:Generated_Source\PSoC4/cyCapsense_Filter.c ****                 #endif /* cyCapsense_REGULAR_AVERAGE_LEN == cyCapsense_AVERAGE_FILTER_LEN_4 */
1364:Generated_Source\PSoC4/cyCapsense_Filter.c ****             #endif /* (cyCapsense_REGULAR_SENSOR_EN) */
1365:Generated_Source\PSoC4/cyCapsense_Filter.c ****         }
1366:Generated_Source\PSoC4/cyCapsense_Filter.c ****         else
1367:Generated_Source\PSoC4/cyCapsense_Filter.c ****         {
1368:Generated_Source\PSoC4/cyCapsense_Filter.c ****             #if (cyCapsense_PROXIMITY_SENSOR_EN && cyCapsense_PROX_RC_AVERAGE_FILTER_EN)
1369:Generated_Source\PSoC4/cyCapsense_Filter.c ****                 #if (cyCapsense_PROX_AVERAGE_LEN == cyCapsense_AVERAGE_FILTER_LEN_2)
1370:Generated_Source\PSoC4/cyCapsense_Filter.c ****                     temp = ((uint32)ptrSensorObj->raw[freqChannel] +
1371:Generated_Source\PSoC4/cyCapsense_Filter.c ****                             (uint32)ptrFilterHistObj.ptrProx->proxChannel[freqChannel].avgHistory[0
1372:Generated_Source\PSoC4/cyCapsense_Filter.c ****                     ptrFilterHistObj.ptrProx->proxChannel[freqChannel].avgHistory[0] = ptrSensorObj
1373:Generated_Source\PSoC4/cyCapsense_Filter.c ****                     ptrSensorObj->raw[freqChannel] = LO16(temp);
1374:Generated_Source\PSoC4/cyCapsense_Filter.c ****                 #else
1375:Generated_Source\PSoC4/cyCapsense_Filter.c ****                     temp = ((uint32)ptrSensorObj->raw[freqChannel] +
1376:Generated_Source\PSoC4/cyCapsense_Filter.c ****                             (uint32)ptrFilterHistObj.ptrProx->proxChannel[freqChannel].avgHistory[0
1377:Generated_Source\PSoC4/cyCapsense_Filter.c ****                             (uint32)ptrFilterHistObj.ptrProx->proxChannel[freqChannel].avgHistory[1
1378:Generated_Source\PSoC4/cyCapsense_Filter.c ****                             (uint32)ptrFilterHistObj.ptrProx->proxChannel[freqChannel].avgHistory[2
1379:Generated_Source\PSoC4/cyCapsense_Filter.c **** 
1380:Generated_Source\PSoC4/cyCapsense_Filter.c ****                     ptrFilterHistObj.ptrProx->proxChannel[freqChannel].avgHistory[2u] =
1381:Generated_Source\PSoC4/cyCapsense_Filter.c ****                     ptrFilterHistObj.ptrProx->proxChannel[freqChannel].avgHistory[1u];
1382:Generated_Source\PSoC4/cyCapsense_Filter.c ****                     ptrFilterHistObj.ptrProx->proxChannel[freqChannel].avgHistory[1u] =
1383:Generated_Source\PSoC4/cyCapsense_Filter.c ****                     ptrFilterHistObj.ptrProx->proxChannel[freqChannel].avgHistory[0];
1384:Generated_Source\PSoC4/cyCapsense_Filter.c ****                     ptrFilterHistObj.ptrProx->proxChannel[freqChannel].avgHistory[0] = ptrSensorObj
1385:Generated_Source\PSoC4/cyCapsense_Filter.c ****                     ptrSensorObj->raw[freqChannel] = LO16(temp);
1386:Generated_Source\PSoC4/cyCapsense_Filter.c ****                 #endif /* cyCapsense_PROX_AVERAGE_LEN == cyCapsense_AVERAGE_FILTER_LEN_4 */
1387:Generated_Source\PSoC4/cyCapsense_Filter.c ****             #endif /* (cyCapsense_PROXIMITY_SENSOR_EN) */
1388:Generated_Source\PSoC4/cyCapsense_Filter.c ****         }
1389:Generated_Source\PSoC4/cyCapsense_Filter.c ****     }
1390:Generated_Source\PSoC4/cyCapsense_Filter.c **** }
 651              		.loc 1 1390 0
 652              		@ sp needed
 653 004e F0BD     		pop	{r4, r5, r6, r7, pc}
 654              		.cfi_endproc
ARM GAS  C:\Users\turan\AppData\Local\Temp\ccfzf2rj.s 			page 38


 655              	.LFE16:
 656              		.size	cyCapsense_RunAverageInternal, .-cyCapsense_RunAverageInternal
 657              		.section	.text.cyCapsense_RunAverage,"ax",%progbits
 658              		.align	2
 659              		.global	cyCapsense_RunAverage
 660              		.code	16
 661              		.thumb_func
 662              		.type	cyCapsense_RunAverage, %function
 663              	cyCapsense_RunAverage:
 664              	.LFB14:
1235:Generated_Source\PSoC4/cyCapsense_Filter.c ****     cyCapsense_FLASH_WD_STRUCT const *ptrWidget = &cyCapsense_dsFlash.wdgtArray[widgetId];
 665              		.loc 1 1235 0
 666              		.cfi_startproc
 667              		@ args = 0, pretend = 0, frame = 0
 668              		@ frame_needed = 0, uses_anonymous_args = 0
 669              	.LVL82:
 670 0000 70B5     		push	{r4, r5, r6, lr}
 671              		.cfi_def_cfa_offset 16
 672              		.cfi_offset 4, -16
 673              		.cfi_offset 5, -12
 674              		.cfi_offset 6, -8
 675              		.cfi_offset 14, -4
 676 0002 0C00     		movs	r4, r1
 677              	.LVL83:
1241:Generated_Source\PSoC4/cyCapsense_Filter.c ****     ptrSensor = &ptrSensor[sensorId];
 678              		.loc 1 1241 0
 679 0004 4001     		lsls	r0, r0, #5
 680              	.LVL84:
 681 0006 0A4B     		ldr	r3, .L41
 682 0008 1B18     		adds	r3, r3, r0
 683              	.LVL85:
1242:Generated_Source\PSoC4/cyCapsense_Filter.c **** 
 684              		.loc 1 1242 0
 685 000a 8A00     		lsls	r2, r1, #2
 686 000c 5218     		adds	r2, r2, r1
 687 000e 5100     		lsls	r1, r2, #1
 688              	.LVL86:
 689 0010 9A68     		ldr	r2, [r3, #8]
 690 0012 9446     		mov	ip, r2
 691 0014 6144     		add	r1, r1, ip
 692              	.LVL87:
1245:Generated_Source\PSoC4/cyCapsense_Filter.c **** 
 693              		.loc 1 1245 0
 694 0016 DD68     		ldr	r5, [r3, #12]
 695 0018 2800     		movs	r0, r5
 696              	.LVL88:
1247:Generated_Source\PSoC4/cyCapsense_Filter.c ****     {
 697              		.loc 1 1247 0
 698 001a 9A7E     		ldrb	r2, [r3, #26]
 699 001c 062A     		cmp	r2, #6
 700 001e 03D0     		beq	.L40
1250:Generated_Source\PSoC4/cyCapsense_Filter.c ****         #endif /* (cyCapsense_REGULAR_SENSOR_EN) */
 701              		.loc 1 1250 0
 702 0020 6300     		lsls	r3, r4, #1
 703              	.LVL89:
 704 0022 1C19     		adds	r4, r3, r4
 705              	.LVL90:
ARM GAS  C:\Users\turan\AppData\Local\Temp\ccfzf2rj.s 			page 39


 706 0024 6000     		lsls	r0, r4, #1
 707 0026 2818     		adds	r0, r5, r0
 708              	.L40:
1260:Generated_Source\PSoC4/cyCapsense_Filter.c **** }
 709              		.loc 1 1260 0
 710 0028 FFF7FEFF 		bl	cyCapsense_RunAverageInternal
 711              	.LVL91:
1261:Generated_Source\PSoC4/cyCapsense_Filter.c **** 
 712              		.loc 1 1261 0
 713              		@ sp needed
 714 002c 70BD     		pop	{r4, r5, r6, pc}
 715              	.L42:
 716 002e C046     		.align	2
 717              	.L41:
 718 0030 00000000 		.word	cyCapsense_dsFlash
 719              		.cfi_endproc
 720              	.LFE14:
 721              		.size	cyCapsense_RunAverage, .-cyCapsense_RunAverage
 722              		.section	.text.cyCapsense_FtRunEnabledFiltersInternal,"ax",%progbits
 723              		.align	2
 724              		.global	cyCapsense_FtRunEnabledFiltersInternal
 725              		.code	16
 726              		.thumb_func
 727              		.type	cyCapsense_FtRunEnabledFiltersInternal, %function
 728              	cyCapsense_FtRunEnabledFiltersInternal:
 729              	.LFB18:
1391:Generated_Source\PSoC4/cyCapsense_Filter.c **** #endif /* (cyCapsense_REGULAR_RC_AVERAGE_FILTER_EN || cyCapsense_PROX_RC_AVERAGE_FILTER_EN) */
1392:Generated_Source\PSoC4/cyCapsense_Filter.c **** 
1393:Generated_Source\PSoC4/cyCapsense_Filter.c **** #if (cyCapsense_ENABLE == cyCapsense_ALP_FILTER_EN)
1394:Generated_Source\PSoC4/cyCapsense_Filter.c **** /*******************************************************************************
1395:Generated_Source\PSoC4/cyCapsense_Filter.c **** * Function Name: cyCapsense_InitializeALP
1396:Generated_Source\PSoC4/cyCapsense_Filter.c **** ****************************************************************************//**
1397:Generated_Source\PSoC4/cyCapsense_Filter.c **** *
1398:Generated_Source\PSoC4/cyCapsense_Filter.c **** * \brief
1399:Generated_Source\PSoC4/cyCapsense_Filter.c **** *  Initializes the ALP filter history.
1400:Generated_Source\PSoC4/cyCapsense_Filter.c **** *
1401:Generated_Source\PSoC4/cyCapsense_Filter.c **** * \details
1402:Generated_Source\PSoC4/cyCapsense_Filter.c **** *  Initializes the ALP filter history.
1403:Generated_Source\PSoC4/cyCapsense_Filter.c **** *
1404:Generated_Source\PSoC4/cyCapsense_Filter.c **** * \param widgetId
1405:Generated_Source\PSoC4/cyCapsense_Filter.c **** *  Specifies the ID number of the widget.
1406:Generated_Source\PSoC4/cyCapsense_Filter.c **** *
1407:Generated_Source\PSoC4/cyCapsense_Filter.c **** * \param sensorId
1408:Generated_Source\PSoC4/cyCapsense_Filter.c **** *  Specifies the ID number of the sensor in the widget.
1409:Generated_Source\PSoC4/cyCapsense_Filter.c **** *
1410:Generated_Source\PSoC4/cyCapsense_Filter.c **** *******************************************************************************/
1411:Generated_Source\PSoC4/cyCapsense_Filter.c **** void cyCapsense_InitializeALP(uint32 widgetId, uint32 sensorId)
1412:Generated_Source\PSoC4/cyCapsense_Filter.c **** {
1413:Generated_Source\PSoC4/cyCapsense_Filter.c ****     cyCapsense_FLASH_WD_STRUCT const *ptrWidget = &cyCapsense_dsFlash.wdgtArray[widgetId];
1414:Generated_Source\PSoC4/cyCapsense_Filter.c ****     cyCapsense_RAM_SNS_STRUCT *ptrSensor = NULL;
1415:Generated_Source\PSoC4/cyCapsense_Filter.c ****     cyCapsense_PTR_FILTER_VARIANT ptrFilterHistObj;
1416:Generated_Source\PSoC4/cyCapsense_Filter.c **** 
1417:Generated_Source\PSoC4/cyCapsense_Filter.c ****     /* Find pointer to specified sensor object */
1418:Generated_Source\PSoC4/cyCapsense_Filter.c ****     ptrSensor = ptrWidget->ptr2SnsRam;
1419:Generated_Source\PSoC4/cyCapsense_Filter.c ****     ptrSensor = &ptrSensor[sensorId];
1420:Generated_Source\PSoC4/cyCapsense_Filter.c **** 
1421:Generated_Source\PSoC4/cyCapsense_Filter.c ****     /* Find pointer to specified filter sensor object */
ARM GAS  C:\Users\turan\AppData\Local\Temp\ccfzf2rj.s 			page 40


1422:Generated_Source\PSoC4/cyCapsense_Filter.c ****     ptrFilterHistObj.ptr = ptrWidget->ptr2FltrHistory;
1423:Generated_Source\PSoC4/cyCapsense_Filter.c ****     ptrFilterHistObj.ptrAlp = &ptrFilterHistObj.ptrAlp[sensorId];
1424:Generated_Source\PSoC4/cyCapsense_Filter.c ****     cyCapsense_InitializeALPInternal(ptrFilterHistObj, ptrSensor, (uint32)ptrWidget->wdgtType);
1425:Generated_Source\PSoC4/cyCapsense_Filter.c **** }
1426:Generated_Source\PSoC4/cyCapsense_Filter.c **** 
1427:Generated_Source\PSoC4/cyCapsense_Filter.c **** 
1428:Generated_Source\PSoC4/cyCapsense_Filter.c **** /*******************************************************************************
1429:Generated_Source\PSoC4/cyCapsense_Filter.c **** * Function Name: cyCapsense_RunALP
1430:Generated_Source\PSoC4/cyCapsense_Filter.c **** ****************************************************************************//**
1431:Generated_Source\PSoC4/cyCapsense_Filter.c **** *
1432:Generated_Source\PSoC4/cyCapsense_Filter.c **** * \brief
1433:Generated_Source\PSoC4/cyCapsense_Filter.c **** *  Executes the ALP filter algorithm on a sensor indicated by an input
1434:Generated_Source\PSoC4/cyCapsense_Filter.c **** *  parameter.
1435:Generated_Source\PSoC4/cyCapsense_Filter.c **** *
1436:Generated_Source\PSoC4/cyCapsense_Filter.c **** * \details
1437:Generated_Source\PSoC4/cyCapsense_Filter.c **** *  Executes the ALP filter algorithm on a sensor indicated by an input
1438:Generated_Source\PSoC4/cyCapsense_Filter.c **** *  parameter.
1439:Generated_Source\PSoC4/cyCapsense_Filter.c **** *
1440:Generated_Source\PSoC4/cyCapsense_Filter.c **** * \param widgetId
1441:Generated_Source\PSoC4/cyCapsense_Filter.c **** *  Specifies the ID number of the widget.
1442:Generated_Source\PSoC4/cyCapsense_Filter.c **** *
1443:Generated_Source\PSoC4/cyCapsense_Filter.c **** * \param sensorId
1444:Generated_Source\PSoC4/cyCapsense_Filter.c **** *  Specifies the ID number of the sensor in the widget.
1445:Generated_Source\PSoC4/cyCapsense_Filter.c **** *
1446:Generated_Source\PSoC4/cyCapsense_Filter.c **** *******************************************************************************/
1447:Generated_Source\PSoC4/cyCapsense_Filter.c **** void cyCapsense_RunALP(uint32 widgetId, uint32 sensorId)
1448:Generated_Source\PSoC4/cyCapsense_Filter.c **** {
1449:Generated_Source\PSoC4/cyCapsense_Filter.c ****     cyCapsense_FLASH_WD_STRUCT const *ptrWidget = &cyCapsense_dsFlash.wdgtArray[widgetId];
1450:Generated_Source\PSoC4/cyCapsense_Filter.c ****     cyCapsense_RAM_SNS_STRUCT *ptrSensor = NULL;
1451:Generated_Source\PSoC4/cyCapsense_Filter.c ****     cyCapsense_PTR_FILTER_VARIANT ptrFilterHistObj;
1452:Generated_Source\PSoC4/cyCapsense_Filter.c ****     ALP_FLTR_CONFIG_STRUCT alpFilterConfig;
1453:Generated_Source\PSoC4/cyCapsense_Filter.c ****     ALP_FLTR_CONFIG_STRUCT *ptrAlpFilterConfig = &alpFilterConfig;
1454:Generated_Source\PSoC4/cyCapsense_Filter.c ****     cyCapsense_RAM_WD_BASE_STRUCT *ptrRamWidget = ptrWidget->ptr2WdgtRam;
1455:Generated_Source\PSoC4/cyCapsense_Filter.c **** 
1456:Generated_Source\PSoC4/cyCapsense_Filter.c ****     /* Find pointer to specified sensor object */
1457:Generated_Source\PSoC4/cyCapsense_Filter.c ****     ptrSensor = ptrWidget->ptr2SnsRam;
1458:Generated_Source\PSoC4/cyCapsense_Filter.c ****     ptrSensor = &ptrSensor[sensorId];
1459:Generated_Source\PSoC4/cyCapsense_Filter.c **** 
1460:Generated_Source\PSoC4/cyCapsense_Filter.c ****     ptrAlpFilterConfig->configParam0 = ptrRamWidget->alpOnTh;
1461:Generated_Source\PSoC4/cyCapsense_Filter.c ****     ptrAlpFilterConfig->configParam1 = ptrRamWidget->alpOffTh;
1462:Generated_Source\PSoC4/cyCapsense_Filter.c ****     ptrAlpFilterConfig->configParam2 = ptrRamWidget->fingerTh;
1463:Generated_Source\PSoC4/cyCapsense_Filter.c ****     ptrAlpFilterConfig->configParam3 = ptrRamWidget->noiseTh;
1464:Generated_Source\PSoC4/cyCapsense_Filter.c ****     ptrAlpFilterConfig->configParam4 = ptrRamWidget->hysteresis;
1465:Generated_Source\PSoC4/cyCapsense_Filter.c **** 
1466:Generated_Source\PSoC4/cyCapsense_Filter.c ****     /* Find pointer to specified filter sensor object */
1467:Generated_Source\PSoC4/cyCapsense_Filter.c ****     ptrFilterHistObj.ptr = ptrWidget->ptr2FltrHistory;
1468:Generated_Source\PSoC4/cyCapsense_Filter.c ****     ptrFilterHistObj.ptrAlp = &ptrFilterHistObj.ptrAlp[sensorId];
1469:Generated_Source\PSoC4/cyCapsense_Filter.c **** 
1470:Generated_Source\PSoC4/cyCapsense_Filter.c ****     if ((cyCapsense_WD_TYPE_ENUM)ptrWidget->wdgtType != cyCapsense_WD_PROXIMITY_E)
1471:Generated_Source\PSoC4/cyCapsense_Filter.c ****     {
1472:Generated_Source\PSoC4/cyCapsense_Filter.c ****         #if (cyCapsense_REGULAR_SENSOR_EN)
1473:Generated_Source\PSoC4/cyCapsense_Filter.c ****             ptrAlpFilterConfig->configParam5 = cyCapsense_REGULAR_RC_ALP_FILTER_COEFF;
1474:Generated_Source\PSoC4/cyCapsense_Filter.c ****         #endif /* (cyCapsense_REGULAR_SENSOR_EN) */
1475:Generated_Source\PSoC4/cyCapsense_Filter.c ****     }
1476:Generated_Source\PSoC4/cyCapsense_Filter.c ****     else
1477:Generated_Source\PSoC4/cyCapsense_Filter.c ****     {
1478:Generated_Source\PSoC4/cyCapsense_Filter.c ****         #if (cyCapsense_PROXIMITY_SENSOR_EN)
ARM GAS  C:\Users\turan\AppData\Local\Temp\ccfzf2rj.s 			page 41


1479:Generated_Source\PSoC4/cyCapsense_Filter.c ****             ptrAlpFilterConfig->configParam5 = cyCapsense_PROX_RC_ALP_FILTER_COEFF;
1480:Generated_Source\PSoC4/cyCapsense_Filter.c ****         #endif /* (cyCapsense_PROXIMITY_SENSOR_EN) */
1481:Generated_Source\PSoC4/cyCapsense_Filter.c ****     }
1482:Generated_Source\PSoC4/cyCapsense_Filter.c ****     cyCapsense_RunALPInternal(ptrFilterHistObj, ptrAlpFilterConfig, ptrSensor, (uint32)ptrWidget->w
1483:Generated_Source\PSoC4/cyCapsense_Filter.c **** }
1484:Generated_Source\PSoC4/cyCapsense_Filter.c **** 
1485:Generated_Source\PSoC4/cyCapsense_Filter.c **** 
1486:Generated_Source\PSoC4/cyCapsense_Filter.c **** /*******************************************************************************
1487:Generated_Source\PSoC4/cyCapsense_Filter.c **** * Function Name: cyCapsense_InitializeALPInternal
1488:Generated_Source\PSoC4/cyCapsense_Filter.c **** ****************************************************************************//**
1489:Generated_Source\PSoC4/cyCapsense_Filter.c **** *
1490:Generated_Source\PSoC4/cyCapsense_Filter.c **** * \brief
1491:Generated_Source\PSoC4/cyCapsense_Filter.c **** *  Initializes the ALP filter.
1492:Generated_Source\PSoC4/cyCapsense_Filter.c **** *
1493:Generated_Source\PSoC4/cyCapsense_Filter.c **** * \details
1494:Generated_Source\PSoC4/cyCapsense_Filter.c **** *  Initializes the ALP filter.
1495:Generated_Source\PSoC4/cyCapsense_Filter.c **** *
1496:Generated_Source\PSoC4/cyCapsense_Filter.c **** * \param ptrFilterHistObj
1497:Generated_Source\PSoC4/cyCapsense_Filter.c **** *  The pointer to the filter RAM object of the sensor.
1498:Generated_Source\PSoC4/cyCapsense_Filter.c **** *
1499:Generated_Source\PSoC4/cyCapsense_Filter.c **** * \param ptrSensorObj
1500:Generated_Source\PSoC4/cyCapsense_Filter.c **** *  The pointer to the sensor RAM object of the sensor.
1501:Generated_Source\PSoC4/cyCapsense_Filter.c **** *
1502:Generated_Source\PSoC4/cyCapsense_Filter.c **** * \param wdType
1503:Generated_Source\PSoC4/cyCapsense_Filter.c **** *  Specifies the type of a widget.
1504:Generated_Source\PSoC4/cyCapsense_Filter.c **** *
1505:Generated_Source\PSoC4/cyCapsense_Filter.c **** *
1506:Generated_Source\PSoC4/cyCapsense_Filter.c **** *******************************************************************************/
1507:Generated_Source\PSoC4/cyCapsense_Filter.c **** void cyCapsense_InitializeALPInternal(cyCapsense_PTR_FILTER_VARIANT ptrFilterHistObj,
1508:Generated_Source\PSoC4/cyCapsense_Filter.c ****                                             cyCapsense_RAM_SNS_STRUCT *ptrSensorObj,
1509:Generated_Source\PSoC4/cyCapsense_Filter.c ****                                             uint32 wdType)
1510:Generated_Source\PSoC4/cyCapsense_Filter.c **** {
1511:Generated_Source\PSoC4/cyCapsense_Filter.c ****     uint32 freqChannel;
1512:Generated_Source\PSoC4/cyCapsense_Filter.c **** 
1513:Generated_Source\PSoC4/cyCapsense_Filter.c ****     for(freqChannel = cyCapsense_NUM_SCAN_FREQS; freqChannel-- > 0u;)
1514:Generated_Source\PSoC4/cyCapsense_Filter.c ****     {
1515:Generated_Source\PSoC4/cyCapsense_Filter.c ****         if ((cyCapsense_WD_TYPE_ENUM)wdType != cyCapsense_WD_PROXIMITY_E)
1516:Generated_Source\PSoC4/cyCapsense_Filter.c ****         {
1517:Generated_Source\PSoC4/cyCapsense_Filter.c ****             #if (cyCapsense_REGULAR_SENSOR_EN && cyCapsense_REGULAR_RC_ALP_FILTER_EN)
1518:Generated_Source\PSoC4/cyCapsense_Filter.c ****                 ALP_Initialize(&ptrFilterHistObj.ptrAlp->channel[freqChannel], &ptrSensorObj->raw[f
1519:Generated_Source\PSoC4/cyCapsense_Filter.c ****             #endif
1520:Generated_Source\PSoC4/cyCapsense_Filter.c ****         }
1521:Generated_Source\PSoC4/cyCapsense_Filter.c ****         else
1522:Generated_Source\PSoC4/cyCapsense_Filter.c ****         {
1523:Generated_Source\PSoC4/cyCapsense_Filter.c ****             #if (cyCapsense_PROXIMITY_SENSOR_EN && cyCapsense_PROX_RC_ALP_FILTER_EN)
1524:Generated_Source\PSoC4/cyCapsense_Filter.c ****                 ALP_Initialize(&ptrFilterHistObj.ptrAlp->channel[freqChannel], &ptrSensorObj->raw[f
1525:Generated_Source\PSoC4/cyCapsense_Filter.c ****             #endif
1526:Generated_Source\PSoC4/cyCapsense_Filter.c ****         }
1527:Generated_Source\PSoC4/cyCapsense_Filter.c ****     }
1528:Generated_Source\PSoC4/cyCapsense_Filter.c **** }
1529:Generated_Source\PSoC4/cyCapsense_Filter.c **** 
1530:Generated_Source\PSoC4/cyCapsense_Filter.c **** /*******************************************************************************
1531:Generated_Source\PSoC4/cyCapsense_Filter.c **** * Function Name: cyCapsense_ConfigRunALPInternal
1532:Generated_Source\PSoC4/cyCapsense_Filter.c **** ****************************************************************************//**
1533:Generated_Source\PSoC4/cyCapsense_Filter.c **** *
1534:Generated_Source\PSoC4/cyCapsense_Filter.c **** * \brief
1535:Generated_Source\PSoC4/cyCapsense_Filter.c **** *  Prepares ALP configuration structure and runs the filter.
ARM GAS  C:\Users\turan\AppData\Local\Temp\ccfzf2rj.s 			page 42


1536:Generated_Source\PSoC4/cyCapsense_Filter.c **** *
1537:Generated_Source\PSoC4/cyCapsense_Filter.c **** * \details
1538:Generated_Source\PSoC4/cyCapsense_Filter.c **** *  Prepares ALP configuration structure and runs the filter.
1539:Generated_Source\PSoC4/cyCapsense_Filter.c **** *
1540:Generated_Source\PSoC4/cyCapsense_Filter.c **** * \param ptrFilterHistObj
1541:Generated_Source\PSoC4/cyCapsense_Filter.c **** *  The pointer to the filter RAM object of the sensor.
1542:Generated_Source\PSoC4/cyCapsense_Filter.c **** *
1543:Generated_Source\PSoC4/cyCapsense_Filter.c **** * \param ptrRamWdgt
1544:Generated_Source\PSoC4/cyCapsense_Filter.c **** *  The pointer to the RAM widget object.
1545:Generated_Source\PSoC4/cyCapsense_Filter.c **** *
1546:Generated_Source\PSoC4/cyCapsense_Filter.c **** * \param ptrSensorObj
1547:Generated_Source\PSoC4/cyCapsense_Filter.c **** *  The pointer to the sensor RAM object of the sensor.
1548:Generated_Source\PSoC4/cyCapsense_Filter.c **** *
1549:Generated_Source\PSoC4/cyCapsense_Filter.c **** * \param wdType
1550:Generated_Source\PSoC4/cyCapsense_Filter.c **** *  Specifies the type of a widget.
1551:Generated_Source\PSoC4/cyCapsense_Filter.c **** *
1552:Generated_Source\PSoC4/cyCapsense_Filter.c **** *******************************************************************************/
1553:Generated_Source\PSoC4/cyCapsense_Filter.c **** void cyCapsense_ConfigRunALPInternal(cyCapsense_PTR_FILTER_VARIANT ptrFilterHistObj,
1554:Generated_Source\PSoC4/cyCapsense_Filter.c ****                                     cyCapsense_RAM_WD_BASE_STRUCT *ptrRamWdgt,
1555:Generated_Source\PSoC4/cyCapsense_Filter.c ****                                     cyCapsense_RAM_SNS_STRUCT *ptrSensorObj,
1556:Generated_Source\PSoC4/cyCapsense_Filter.c ****                                     uint32 wdType)
1557:Generated_Source\PSoC4/cyCapsense_Filter.c **** {
1558:Generated_Source\PSoC4/cyCapsense_Filter.c ****     ALP_FLTR_CONFIG_STRUCT alpFilterConfig;
1559:Generated_Source\PSoC4/cyCapsense_Filter.c **** 
1560:Generated_Source\PSoC4/cyCapsense_Filter.c ****     alpFilterConfig.configParam0 = ptrRamWdgt->alpOnTh;
1561:Generated_Source\PSoC4/cyCapsense_Filter.c ****     alpFilterConfig.configParam1 = ptrRamWdgt->alpOffTh;
1562:Generated_Source\PSoC4/cyCapsense_Filter.c ****     alpFilterConfig.configParam2 = ptrRamWdgt->fingerTh;
1563:Generated_Source\PSoC4/cyCapsense_Filter.c ****     alpFilterConfig.configParam3 = ptrRamWdgt->noiseTh;
1564:Generated_Source\PSoC4/cyCapsense_Filter.c ****     alpFilterConfig.configParam4 = ptrRamWdgt->hysteresis;
1565:Generated_Source\PSoC4/cyCapsense_Filter.c **** 
1566:Generated_Source\PSoC4/cyCapsense_Filter.c ****     cyCapsense_RunALPInternal(ptrFilterHistObj, &alpFilterConfig, ptrSensorObj, wdType);
1567:Generated_Source\PSoC4/cyCapsense_Filter.c **** }
1568:Generated_Source\PSoC4/cyCapsense_Filter.c **** 
1569:Generated_Source\PSoC4/cyCapsense_Filter.c **** /*******************************************************************************
1570:Generated_Source\PSoC4/cyCapsense_Filter.c **** * Function Name: cyCapsense_RunALPInternal
1571:Generated_Source\PSoC4/cyCapsense_Filter.c **** ****************************************************************************//**
1572:Generated_Source\PSoC4/cyCapsense_Filter.c **** *
1573:Generated_Source\PSoC4/cyCapsense_Filter.c **** * \brief
1574:Generated_Source\PSoC4/cyCapsense_Filter.c **** *  Runs the ALP filter.
1575:Generated_Source\PSoC4/cyCapsense_Filter.c **** *
1576:Generated_Source\PSoC4/cyCapsense_Filter.c **** * \details
1577:Generated_Source\PSoC4/cyCapsense_Filter.c **** *  Runs the ALP filter.
1578:Generated_Source\PSoC4/cyCapsense_Filter.c **** *
1579:Generated_Source\PSoC4/cyCapsense_Filter.c **** * \param ptrFilterHistObj
1580:Generated_Source\PSoC4/cyCapsense_Filter.c **** *  The pointer to the filter RAM object of the sensor.
1581:Generated_Source\PSoC4/cyCapsense_Filter.c **** *
1582:Generated_Source\PSoC4/cyCapsense_Filter.c **** * \param ptrAlpFilterConfig
1583:Generated_Source\PSoC4/cyCapsense_Filter.c **** *  The pointer to the filter configuration object of the sensor.
1584:Generated_Source\PSoC4/cyCapsense_Filter.c **** *
1585:Generated_Source\PSoC4/cyCapsense_Filter.c **** * \param ptrSensorObj
1586:Generated_Source\PSoC4/cyCapsense_Filter.c **** *  The pointer to the sensor RAM object of the sensor.
1587:Generated_Source\PSoC4/cyCapsense_Filter.c **** *
1588:Generated_Source\PSoC4/cyCapsense_Filter.c **** * \param wdType
1589:Generated_Source\PSoC4/cyCapsense_Filter.c **** *  Specifies the type of a widget.
1590:Generated_Source\PSoC4/cyCapsense_Filter.c **** *
1591:Generated_Source\PSoC4/cyCapsense_Filter.c **** *******************************************************************************/
1592:Generated_Source\PSoC4/cyCapsense_Filter.c **** void cyCapsense_RunALPInternal(cyCapsense_PTR_FILTER_VARIANT ptrFilterHistObj,
ARM GAS  C:\Users\turan\AppData\Local\Temp\ccfzf2rj.s 			page 43


1593:Generated_Source\PSoC4/cyCapsense_Filter.c ****                                     ALP_FLTR_CONFIG_STRUCT *ptrAlpFilterConfig,
1594:Generated_Source\PSoC4/cyCapsense_Filter.c ****                                     cyCapsense_RAM_SNS_STRUCT *ptrSensorObj,
1595:Generated_Source\PSoC4/cyCapsense_Filter.c ****                                     uint32 wdType)
1596:Generated_Source\PSoC4/cyCapsense_Filter.c **** {
1597:Generated_Source\PSoC4/cyCapsense_Filter.c ****     uint32 freqChannel;
1598:Generated_Source\PSoC4/cyCapsense_Filter.c **** 
1599:Generated_Source\PSoC4/cyCapsense_Filter.c ****     for(freqChannel = cyCapsense_NUM_SCAN_FREQS; freqChannel-- > 0u;)
1600:Generated_Source\PSoC4/cyCapsense_Filter.c ****     {
1601:Generated_Source\PSoC4/cyCapsense_Filter.c ****         if ((cyCapsense_WD_TYPE_ENUM)wdType != cyCapsense_WD_PROXIMITY_E)
1602:Generated_Source\PSoC4/cyCapsense_Filter.c ****         {
1603:Generated_Source\PSoC4/cyCapsense_Filter.c ****             #if (cyCapsense_REGULAR_SENSOR_EN && cyCapsense_REGULAR_RC_ALP_FILTER_EN)
1604:Generated_Source\PSoC4/cyCapsense_Filter.c ****                 ptrAlpFilterConfig->configParam5 = cyCapsense_REGULAR_RC_ALP_FILTER_COEFF;
1605:Generated_Source\PSoC4/cyCapsense_Filter.c ****                 ALP_Run(&ptrFilterHistObj.ptrAlp->channel[freqChannel], ptrAlpFilterConfig, &ptrSen
1606:Generated_Source\PSoC4/cyCapsense_Filter.c ****             #endif
1607:Generated_Source\PSoC4/cyCapsense_Filter.c ****         }
1608:Generated_Source\PSoC4/cyCapsense_Filter.c ****         else
1609:Generated_Source\PSoC4/cyCapsense_Filter.c ****         {
1610:Generated_Source\PSoC4/cyCapsense_Filter.c ****             #if (cyCapsense_PROXIMITY_SENSOR_EN && cyCapsense_PROX_RC_ALP_FILTER_EN)
1611:Generated_Source\PSoC4/cyCapsense_Filter.c ****                 ptrAlpFilterConfig->configParam5 = cyCapsense_PROX_RC_ALP_FILTER_COEFF;
1612:Generated_Source\PSoC4/cyCapsense_Filter.c ****                 ALP_Run(&ptrFilterHistObj.ptrAlp->channel[freqChannel], ptrAlpFilterConfig, &ptrSen
1613:Generated_Source\PSoC4/cyCapsense_Filter.c ****             #endif
1614:Generated_Source\PSoC4/cyCapsense_Filter.c ****         }
1615:Generated_Source\PSoC4/cyCapsense_Filter.c ****     }
1616:Generated_Source\PSoC4/cyCapsense_Filter.c **** }
1617:Generated_Source\PSoC4/cyCapsense_Filter.c **** #endif /* (cyCapsense_ENABLE == cyCapsense_ALP_FILTER_EN) */
1618:Generated_Source\PSoC4/cyCapsense_Filter.c **** 
1619:Generated_Source\PSoC4/cyCapsense_Filter.c **** #if (cyCapsense_ENABLE == cyCapsense_RC_FILTER_EN)
1620:Generated_Source\PSoC4/cyCapsense_Filter.c **** /*******************************************************************************
1621:Generated_Source\PSoC4/cyCapsense_Filter.c **** * Function Name: cyCapsense_FtRunEnabledFilters
1622:Generated_Source\PSoC4/cyCapsense_Filter.c **** ****************************************************************************//**
1623:Generated_Source\PSoC4/cyCapsense_Filter.c **** *
1624:Generated_Source\PSoC4/cyCapsense_Filter.c **** * \brief
1625:Generated_Source\PSoC4/cyCapsense_Filter.c **** *  Runs all enabled filters.
1626:Generated_Source\PSoC4/cyCapsense_Filter.c **** *
1627:Generated_Source\PSoC4/cyCapsense_Filter.c **** * \details
1628:Generated_Source\PSoC4/cyCapsense_Filter.c **** *  Runs all enabled filters.
1629:Generated_Source\PSoC4/cyCapsense_Filter.c **** *
1630:Generated_Source\PSoC4/cyCapsense_Filter.c **** * \param widgetId
1631:Generated_Source\PSoC4/cyCapsense_Filter.c **** *  Specifies the ID number of a widget to update the IIR filter history.
1632:Generated_Source\PSoC4/cyCapsense_Filter.c **** *
1633:Generated_Source\PSoC4/cyCapsense_Filter.c **** * \param sensorId
1634:Generated_Source\PSoC4/cyCapsense_Filter.c **** *  Specifies the ID number of a sensor in the widget to update the IIR
1635:Generated_Source\PSoC4/cyCapsense_Filter.c **** *  filter history.
1636:Generated_Source\PSoC4/cyCapsense_Filter.c **** *
1637:Generated_Source\PSoC4/cyCapsense_Filter.c **** *******************************************************************************/
1638:Generated_Source\PSoC4/cyCapsense_Filter.c **** void cyCapsense_FtRunEnabledFilters(uint32 widgetId, uint32 sensorId)
1639:Generated_Source\PSoC4/cyCapsense_Filter.c **** {
1640:Generated_Source\PSoC4/cyCapsense_Filter.c ****     cyCapsense_FLASH_WD_STRUCT const *ptrWidget = &cyCapsense_dsFlash.wdgtArray[widgetId];
1641:Generated_Source\PSoC4/cyCapsense_Filter.c ****     cyCapsense_RAM_SNS_STRUCT *ptrSensor = NULL;
1642:Generated_Source\PSoC4/cyCapsense_Filter.c ****     cyCapsense_PTR_FILTER_VARIANT ptrFilterHistObj;
1643:Generated_Source\PSoC4/cyCapsense_Filter.c **** 
1644:Generated_Source\PSoC4/cyCapsense_Filter.c ****     /* Find pointer to specified sensor object */
1645:Generated_Source\PSoC4/cyCapsense_Filter.c ****     ptrSensor = ptrWidget->ptr2SnsRam;
1646:Generated_Source\PSoC4/cyCapsense_Filter.c ****     ptrSensor = &ptrSensor[sensorId];
1647:Generated_Source\PSoC4/cyCapsense_Filter.c **** 
1648:Generated_Source\PSoC4/cyCapsense_Filter.c ****     /* Find pointer to specified filter sensor object */
1649:Generated_Source\PSoC4/cyCapsense_Filter.c ****     ptrFilterHistObj.ptr = ptrWidget->ptr2FltrHistory;
ARM GAS  C:\Users\turan\AppData\Local\Temp\ccfzf2rj.s 			page 44


1650:Generated_Source\PSoC4/cyCapsense_Filter.c **** 
1651:Generated_Source\PSoC4/cyCapsense_Filter.c ****     if ((cyCapsense_WD_TYPE_ENUM)ptrWidget->wdgtType != cyCapsense_WD_PROXIMITY_E)
1652:Generated_Source\PSoC4/cyCapsense_Filter.c ****     {
1653:Generated_Source\PSoC4/cyCapsense_Filter.c ****         #if (0u != cyCapsense_REGULAR_RC_ALP_FILTER_EN)
1654:Generated_Source\PSoC4/cyCapsense_Filter.c ****             ptrFilterHistObj.ptr = &ptrFilterHistObj.ptrAlp[sensorId];
1655:Generated_Source\PSoC4/cyCapsense_Filter.c ****         #elif (0u != cyCapsense_REGULAR_RC_FILTER_EN)
1656:Generated_Source\PSoC4/cyCapsense_Filter.c ****             ptrFilterHistObj.ptr = &ptrFilterHistObj.ptrRegular[sensorId];
1657:Generated_Source\PSoC4/cyCapsense_Filter.c ****         #endif
1658:Generated_Source\PSoC4/cyCapsense_Filter.c ****     }
1659:Generated_Source\PSoC4/cyCapsense_Filter.c ****     else
1660:Generated_Source\PSoC4/cyCapsense_Filter.c ****     {
1661:Generated_Source\PSoC4/cyCapsense_Filter.c ****         #if (0u != cyCapsense_PROX_RC_ALP_FILTER_EN)
1662:Generated_Source\PSoC4/cyCapsense_Filter.c ****             ptrFilterHistObj.ptr = &ptrFilterHistObj.ptrAlp[sensorId];
1663:Generated_Source\PSoC4/cyCapsense_Filter.c ****         #elif (0u != cyCapsense_PROX_RC_FILTER_EN)
1664:Generated_Source\PSoC4/cyCapsense_Filter.c ****             ptrFilterHistObj.ptr = &ptrFilterHistObj.ptrProx[sensorId];
1665:Generated_Source\PSoC4/cyCapsense_Filter.c ****         #endif
1666:Generated_Source\PSoC4/cyCapsense_Filter.c ****     }
1667:Generated_Source\PSoC4/cyCapsense_Filter.c **** 
1668:Generated_Source\PSoC4/cyCapsense_Filter.c ****     cyCapsense_FtRunEnabledFiltersInternal(ptrFilterHistObj, ptrSensor, (uint32)ptrWidget->wdgtType
1669:Generated_Source\PSoC4/cyCapsense_Filter.c ****     #if (cyCapsense_ALP_FILTER_EN)
1670:Generated_Source\PSoC4/cyCapsense_Filter.c ****         cyCapsense_ConfigRunALPInternal(ptrFilterHistObj, ptrWidget->ptr2WdgtRam, ptrSensor, (uint3
1671:Generated_Source\PSoC4/cyCapsense_Filter.c ****     #endif
1672:Generated_Source\PSoC4/cyCapsense_Filter.c **** }
1673:Generated_Source\PSoC4/cyCapsense_Filter.c **** 
1674:Generated_Source\PSoC4/cyCapsense_Filter.c **** 
1675:Generated_Source\PSoC4/cyCapsense_Filter.c **** /*******************************************************************************
1676:Generated_Source\PSoC4/cyCapsense_Filter.c **** * Function Name: cyCapsense_FtRunEnabledFiltersInternal
1677:Generated_Source\PSoC4/cyCapsense_Filter.c **** ****************************************************************************//**
1678:Generated_Source\PSoC4/cyCapsense_Filter.c **** *
1679:Generated_Source\PSoC4/cyCapsense_Filter.c **** * \brief
1680:Generated_Source\PSoC4/cyCapsense_Filter.c **** *  Runs all enabled filters.
1681:Generated_Source\PSoC4/cyCapsense_Filter.c **** *
1682:Generated_Source\PSoC4/cyCapsense_Filter.c **** * \details
1683:Generated_Source\PSoC4/cyCapsense_Filter.c **** *  Runs all enabled filters.
1684:Generated_Source\PSoC4/cyCapsense_Filter.c **** *
1685:Generated_Source\PSoC4/cyCapsense_Filter.c **** * \param ptrFilterHistObj
1686:Generated_Source\PSoC4/cyCapsense_Filter.c **** *  The pointer to the filter RAM object of the sensor.
1687:Generated_Source\PSoC4/cyCapsense_Filter.c **** *
1688:Generated_Source\PSoC4/cyCapsense_Filter.c **** * \param ptrSensorObj
1689:Generated_Source\PSoC4/cyCapsense_Filter.c **** *  The pointer to the sensor RAM object of the sensor.
1690:Generated_Source\PSoC4/cyCapsense_Filter.c **** *
1691:Generated_Source\PSoC4/cyCapsense_Filter.c **** * \param wdType
1692:Generated_Source\PSoC4/cyCapsense_Filter.c **** *  Specifies the type of a widget.
1693:Generated_Source\PSoC4/cyCapsense_Filter.c **** *
1694:Generated_Source\PSoC4/cyCapsense_Filter.c **** *******************************************************************************/
1695:Generated_Source\PSoC4/cyCapsense_Filter.c **** void cyCapsense_FtRunEnabledFiltersInternal(cyCapsense_PTR_FILTER_VARIANT ptrFilterHistObj,
1696:Generated_Source\PSoC4/cyCapsense_Filter.c ****                                                   cyCapsense_RAM_SNS_STRUCT *ptrSensorObj, uint32 w
1697:Generated_Source\PSoC4/cyCapsense_Filter.c **** {
 730              		.loc 1 1697 0
 731              		.cfi_startproc
 732              		@ args = 0, pretend = 0, frame = 0
 733              		@ frame_needed = 0, uses_anonymous_args = 0
 734              	.LVL92:
 735 0000 10B5     		push	{r4, lr}
 736              		.cfi_def_cfa_offset 8
 737              		.cfi_offset 4, -8
 738              		.cfi_offset 14, -4
ARM GAS  C:\Users\turan\AppData\Local\Temp\ccfzf2rj.s 			page 45


1698:Generated_Source\PSoC4/cyCapsense_Filter.c ****     #if (cyCapsense_REGULAR_RC_MEDIAN_FILTER_EN || cyCapsense_PROX_RC_MEDIAN_FILTER_EN)
1699:Generated_Source\PSoC4/cyCapsense_Filter.c ****         cyCapsense_RunMedianInternal(ptrFilterHistObj, ptrSensorObj, wdType);
1700:Generated_Source\PSoC4/cyCapsense_Filter.c ****     #endif /* (cyCapsense_REGULAR_RC_MEDIAN_FILTER_EN || cyCapsense_PROX_RC_MEDIAN_FILTER_EN) */
1701:Generated_Source\PSoC4/cyCapsense_Filter.c **** 
1702:Generated_Source\PSoC4/cyCapsense_Filter.c ****     #if (cyCapsense_REGULAR_RC_IIR_FILTER_EN || cyCapsense_PROX_RC_IIR_FILTER_EN)
1703:Generated_Source\PSoC4/cyCapsense_Filter.c ****         cyCapsense_RunIIRInternal(ptrFilterHistObj, ptrSensorObj, wdType);
1704:Generated_Source\PSoC4/cyCapsense_Filter.c ****     #endif /* (cyCapsense_REGULAR_RC_IIR_FILTER_EN || cyCapsense_PROX_RC_IIR_FILTER_EN) */
1705:Generated_Source\PSoC4/cyCapsense_Filter.c **** 
1706:Generated_Source\PSoC4/cyCapsense_Filter.c ****     #if (cyCapsense_REGULAR_RC_AVERAGE_FILTER_EN || cyCapsense_PROX_RC_AVERAGE_FILTER_EN)
1707:Generated_Source\PSoC4/cyCapsense_Filter.c ****         cyCapsense_RunAverageInternal(ptrFilterHistObj, ptrSensorObj, wdType);
 739              		.loc 1 1707 0
 740 0002 FFF7FEFF 		bl	cyCapsense_RunAverageInternal
 741              	.LVL93:
1708:Generated_Source\PSoC4/cyCapsense_Filter.c ****     #endif /* (cyCapsense_REGULAR_RC_AVERAGE_FILTER_EN || cyCapsense_PROX_RC_AVERAGE_FILTER_EN) */
1709:Generated_Source\PSoC4/cyCapsense_Filter.c **** }
 742              		.loc 1 1709 0
 743              		@ sp needed
 744 0006 10BD     		pop	{r4, pc}
 745              		.cfi_endproc
 746              	.LFE18:
 747              		.size	cyCapsense_FtRunEnabledFiltersInternal, .-cyCapsense_FtRunEnabledFiltersInternal
 748              		.section	.text.cyCapsense_FtRunEnabledFilters,"ax",%progbits
 749              		.align	2
 750              		.global	cyCapsense_FtRunEnabledFilters
 751              		.code	16
 752              		.thumb_func
 753              		.type	cyCapsense_FtRunEnabledFilters, %function
 754              	cyCapsense_FtRunEnabledFilters:
 755              	.LFB17:
1639:Generated_Source\PSoC4/cyCapsense_Filter.c ****     cyCapsense_FLASH_WD_STRUCT const *ptrWidget = &cyCapsense_dsFlash.wdgtArray[widgetId];
 756              		.loc 1 1639 0
 757              		.cfi_startproc
 758              		@ args = 0, pretend = 0, frame = 0
 759              		@ frame_needed = 0, uses_anonymous_args = 0
 760              	.LVL94:
 761 0000 70B5     		push	{r4, r5, r6, lr}
 762              		.cfi_def_cfa_offset 16
 763              		.cfi_offset 4, -16
 764              		.cfi_offset 5, -12
 765              		.cfi_offset 6, -8
 766              		.cfi_offset 14, -4
 767 0002 0C00     		movs	r4, r1
 768              	.LVL95:
1645:Generated_Source\PSoC4/cyCapsense_Filter.c ****     ptrSensor = &ptrSensor[sensorId];
 769              		.loc 1 1645 0
 770 0004 4001     		lsls	r0, r0, #5
 771              	.LVL96:
 772 0006 0A4B     		ldr	r3, .L46
 773 0008 1B18     		adds	r3, r3, r0
 774              	.LVL97:
1646:Generated_Source\PSoC4/cyCapsense_Filter.c **** 
 775              		.loc 1 1646 0
 776 000a 8A00     		lsls	r2, r1, #2
 777 000c 5218     		adds	r2, r2, r1
 778 000e 5100     		lsls	r1, r2, #1
 779              	.LVL98:
 780 0010 9A68     		ldr	r2, [r3, #8]
ARM GAS  C:\Users\turan\AppData\Local\Temp\ccfzf2rj.s 			page 46


 781 0012 9446     		mov	ip, r2
 782 0014 6144     		add	r1, r1, ip
 783              	.LVL99:
1649:Generated_Source\PSoC4/cyCapsense_Filter.c **** 
 784              		.loc 1 1649 0
 785 0016 DD68     		ldr	r5, [r3, #12]
 786 0018 2800     		movs	r0, r5
 787              	.LVL100:
1651:Generated_Source\PSoC4/cyCapsense_Filter.c ****     {
 788              		.loc 1 1651 0
 789 001a 9A7E     		ldrb	r2, [r3, #26]
 790 001c 062A     		cmp	r2, #6
 791 001e 03D0     		beq	.L45
1656:Generated_Source\PSoC4/cyCapsense_Filter.c ****         #endif
 792              		.loc 1 1656 0
 793 0020 6300     		lsls	r3, r4, #1
 794              	.LVL101:
 795 0022 1C19     		adds	r4, r3, r4
 796              	.LVL102:
 797 0024 6000     		lsls	r0, r4, #1
 798 0026 2818     		adds	r0, r5, r0
 799              	.L45:
1668:Generated_Source\PSoC4/cyCapsense_Filter.c ****     #if (cyCapsense_ALP_FILTER_EN)
 800              		.loc 1 1668 0
 801 0028 FFF7FEFF 		bl	cyCapsense_FtRunEnabledFiltersInternal
 802              	.LVL103:
1672:Generated_Source\PSoC4/cyCapsense_Filter.c **** 
 803              		.loc 1 1672 0
 804              		@ sp needed
 805 002c 70BD     		pop	{r4, r5, r6, pc}
 806              	.L47:
 807 002e C046     		.align	2
 808              	.L46:
 809 0030 00000000 		.word	cyCapsense_dsFlash
 810              		.cfi_endproc
 811              	.LFE17:
 812              		.size	cyCapsense_FtRunEnabledFilters, .-cyCapsense_FtRunEnabledFilters
 813              		.section	.text.cyCapsense_RunNoiseEnvelope,"ax",%progbits
 814              		.align	2
 815              		.global	cyCapsense_RunNoiseEnvelope
 816              		.code	16
 817              		.thumb_func
 818              		.type	cyCapsense_RunNoiseEnvelope, %function
 819              	cyCapsense_RunNoiseEnvelope:
 820              	.LFB19:
1710:Generated_Source\PSoC4/cyCapsense_Filter.c **** #endif /* (cyCapsense_ENABLE == cyCapsense_RC_FILTER_EN) */
1711:Generated_Source\PSoC4/cyCapsense_Filter.c **** 
1712:Generated_Source\PSoC4/cyCapsense_Filter.c **** 
1713:Generated_Source\PSoC4/cyCapsense_Filter.c **** #if (0u != (cyCapsense_CSD_AUTOTUNE & cyCapsense_CSD_SS_TH_EN))
1714:Generated_Source\PSoC4/cyCapsense_Filter.c **** /*******************************************************************************
1715:Generated_Source\PSoC4/cyCapsense_Filter.c **** * Function Name: cyCapsense_RunNoiseEnvelope
1716:Generated_Source\PSoC4/cyCapsense_Filter.c **** ****************************************************************************//**
1717:Generated_Source\PSoC4/cyCapsense_Filter.c **** *
1718:Generated_Source\PSoC4/cyCapsense_Filter.c **** * \brief
1719:Generated_Source\PSoC4/cyCapsense_Filter.c **** *  Executes the noise envelope  filter algorithm on a sensor indicated by
1720:Generated_Source\PSoC4/cyCapsense_Filter.c **** *  an input parameter to measure the pk-to-pk noise in the sensor raw count.
1721:Generated_Source\PSoC4/cyCapsense_Filter.c **** *
ARM GAS  C:\Users\turan\AppData\Local\Temp\ccfzf2rj.s 			page 47


1722:Generated_Source\PSoC4/cyCapsense_Filter.c **** * \details
1723:Generated_Source\PSoC4/cyCapsense_Filter.c **** *  Executes the noise envelope  filter algorithm on a sensor indicated by
1724:Generated_Source\PSoC4/cyCapsense_Filter.c **** *  an input parameter to measure the pk-to-pk noise in the sensor raw count.
1725:Generated_Source\PSoC4/cyCapsense_Filter.c **** *
1726:Generated_Source\PSoC4/cyCapsense_Filter.c **** * \param widgetId
1727:Generated_Source\PSoC4/cyCapsense_Filter.c **** *  Specifies the ID number of the widget.
1728:Generated_Source\PSoC4/cyCapsense_Filter.c **** *
1729:Generated_Source\PSoC4/cyCapsense_Filter.c **** * \param sensorId
1730:Generated_Source\PSoC4/cyCapsense_Filter.c **** *  Specifies the ID number of the sensor in the widget.
1731:Generated_Source\PSoC4/cyCapsense_Filter.c **** *
1732:Generated_Source\PSoC4/cyCapsense_Filter.c **** *******************************************************************************/
1733:Generated_Source\PSoC4/cyCapsense_Filter.c **** void cyCapsense_RunNoiseEnvelope(uint32 widgetId, uint32 sensorId)
1734:Generated_Source\PSoC4/cyCapsense_Filter.c **** {
 821              		.loc 1 1734 0
 822              		.cfi_startproc
 823              		@ args = 0, pretend = 0, frame = 0
 824              		@ frame_needed = 0, uses_anonymous_args = 0
 825              	.LVL104:
 826 0000 70B5     		push	{r4, r5, r6, lr}
 827              		.cfi_def_cfa_offset 16
 828              		.cfi_offset 4, -16
 829              		.cfi_offset 5, -12
 830              		.cfi_offset 6, -8
 831              		.cfi_offset 14, -4
 832              	.LVL105:
1735:Generated_Source\PSoC4/cyCapsense_Filter.c ****     cyCapsense_FLASH_WD_STRUCT const *ptrWidget = &cyCapsense_dsFlash.wdgtArray[widgetId];
1736:Generated_Source\PSoC4/cyCapsense_Filter.c ****     cyCapsense_RAM_WD_BASE_STRUCT *ptrWidgetRam = ptrWidget->ptr2WdgtRam;
 833              		.loc 1 1736 0
 834 0002 4001     		lsls	r0, r0, #5
 835              	.LVL106:
 836 0004 084B     		ldr	r3, .L49
 837 0006 1818     		adds	r0, r3, r0
 838              	.LVL107:
 839 0008 4668     		ldr	r6, [r0, #4]
 840              	.LVL108:
1737:Generated_Source\PSoC4/cyCapsense_Filter.c ****     cyCapsense_RAM_SNS_STRUCT *ptrSensor = NULL;
1738:Generated_Source\PSoC4/cyCapsense_Filter.c ****     SMARTSENSE_CSD_NOISE_ENVELOPE_STRUCT *ptrNoiseEnvelope = NULL;
1739:Generated_Source\PSoC4/cyCapsense_Filter.c **** 
1740:Generated_Source\PSoC4/cyCapsense_Filter.c ****     /* Find pointer to specified sensor object */
1741:Generated_Source\PSoC4/cyCapsense_Filter.c ****     ptrSensor = ptrWidget->ptr2SnsRam;
 841              		.loc 1 1741 0
 842 000a 8568     		ldr	r5, [r0, #8]
 843              	.LVL109:
1742:Generated_Source\PSoC4/cyCapsense_Filter.c ****     ptrSensor = &ptrSensor[sensorId];
 844              		.loc 1 1742 0
 845 000c 8B00     		lsls	r3, r1, #2
 846 000e 5B18     		adds	r3, r3, r1
 847 0010 5C00     		lsls	r4, r3, #1
 848              	.LVL110:
1743:Generated_Source\PSoC4/cyCapsense_Filter.c **** 
1744:Generated_Source\PSoC4/cyCapsense_Filter.c ****     /* Find pointer to specified filter sensor object */
1745:Generated_Source\PSoC4/cyCapsense_Filter.c ****     ptrNoiseEnvelope = ptrWidget->ptr2NoiseEnvlp;
 849              		.loc 1 1745 0
 850 0012 C369     		ldr	r3, [r0, #28]
 851              	.LVL111:
1746:Generated_Source\PSoC4/cyCapsense_Filter.c ****     ptrNoiseEnvelope = &ptrNoiseEnvelope[sensorId];
 852              		.loc 1 1746 0
ARM GAS  C:\Users\turan\AppData\Local\Temp\ccfzf2rj.s 			page 48


 853 0014 4A00     		lsls	r2, r1, #1
 854 0016 5118     		adds	r1, r2, r1
 855              	.LVL112:
 856 0018 8A00     		lsls	r2, r1, #2
 857 001a 9A18     		adds	r2, r3, r2
 858              	.LVL113:
1747:Generated_Source\PSoC4/cyCapsense_Filter.c **** 
1748:Generated_Source\PSoC4/cyCapsense_Filter.c ****     SmartSense_RunNoiseEnvelope(ptrSensor->raw[0u], ptrWidgetRam->sigPFC, ptrNoiseEnvelope);
 859              		.loc 1 1748 0
 860 001c 318A     		ldrh	r1, [r6, #16]
 861 001e 285B     		ldrh	r0, [r5, r4]
 862              	.LVL114:
 863 0020 FFF7FEFF 		bl	SmartSense_RunNoiseEnvelope
 864              	.LVL115:
1749:Generated_Source\PSoC4/cyCapsense_Filter.c **** }
 865              		.loc 1 1749 0
 866              		@ sp needed
 867              	.LVL116:
 868              	.LVL117:
 869              	.LVL118:
 870 0024 70BD     		pop	{r4, r5, r6, pc}
 871              	.L50:
 872 0026 C046     		.align	2
 873              	.L49:
 874 0028 00000000 		.word	cyCapsense_dsFlash
 875              		.cfi_endproc
 876              	.LFE19:
 877              		.size	cyCapsense_RunNoiseEnvelope, .-cyCapsense_RunNoiseEnvelope
 878              		.section	.text.cyCapsense_InitializeNoiseEnvelope,"ax",%progbits
 879              		.align	2
 880              		.global	cyCapsense_InitializeNoiseEnvelope
 881              		.code	16
 882              		.thumb_func
 883              		.type	cyCapsense_InitializeNoiseEnvelope, %function
 884              	cyCapsense_InitializeNoiseEnvelope:
 885              	.LFB20:
1750:Generated_Source\PSoC4/cyCapsense_Filter.c **** 
1751:Generated_Source\PSoC4/cyCapsense_Filter.c **** 
1752:Generated_Source\PSoC4/cyCapsense_Filter.c **** /*******************************************************************************
1753:Generated_Source\PSoC4/cyCapsense_Filter.c **** * Function Name: cyCapsense_InitializeNoiseEnvelope
1754:Generated_Source\PSoC4/cyCapsense_Filter.c **** ****************************************************************************//**
1755:Generated_Source\PSoC4/cyCapsense_Filter.c **** *
1756:Generated_Source\PSoC4/cyCapsense_Filter.c **** * \brief
1757:Generated_Source\PSoC4/cyCapsense_Filter.c **** *  Initializes the noise-envelope filter
1758:Generated_Source\PSoC4/cyCapsense_Filter.c **** *
1759:Generated_Source\PSoC4/cyCapsense_Filter.c **** * \details
1760:Generated_Source\PSoC4/cyCapsense_Filter.c **** *  Initializes the noise-envelope filter
1761:Generated_Source\PSoC4/cyCapsense_Filter.c **** *
1762:Generated_Source\PSoC4/cyCapsense_Filter.c **** * \param widgetId
1763:Generated_Source\PSoC4/cyCapsense_Filter.c **** *  Specifies the ID number of the widget.
1764:Generated_Source\PSoC4/cyCapsense_Filter.c **** *
1765:Generated_Source\PSoC4/cyCapsense_Filter.c **** * \param sensorId
1766:Generated_Source\PSoC4/cyCapsense_Filter.c **** *  Specifies the ID number of the sensor in the widget.
1767:Generated_Source\PSoC4/cyCapsense_Filter.c **** *
1768:Generated_Source\PSoC4/cyCapsense_Filter.c **** *******************************************************************************/
1769:Generated_Source\PSoC4/cyCapsense_Filter.c **** void cyCapsense_InitializeNoiseEnvelope(uint32 widgetId, uint32 sensorId)
1770:Generated_Source\PSoC4/cyCapsense_Filter.c **** {
ARM GAS  C:\Users\turan\AppData\Local\Temp\ccfzf2rj.s 			page 49


 886              		.loc 1 1770 0
 887              		.cfi_startproc
 888              		@ args = 0, pretend = 0, frame = 0
 889              		@ frame_needed = 0, uses_anonymous_args = 0
 890              	.LVL119:
 891 0000 70B5     		push	{r4, r5, r6, lr}
 892              		.cfi_def_cfa_offset 16
 893              		.cfi_offset 4, -16
 894              		.cfi_offset 5, -12
 895              		.cfi_offset 6, -8
 896              		.cfi_offset 14, -4
 897              	.LVL120:
1771:Generated_Source\PSoC4/cyCapsense_Filter.c ****     cyCapsense_FLASH_WD_STRUCT const *ptrWidget = &cyCapsense_dsFlash.wdgtArray[widgetId];
1772:Generated_Source\PSoC4/cyCapsense_Filter.c ****     cyCapsense_RAM_WD_BASE_STRUCT *ptrWidgetRam = ptrWidget->ptr2WdgtRam;
 898              		.loc 1 1772 0
 899 0002 4001     		lsls	r0, r0, #5
 900              	.LVL121:
 901 0004 084B     		ldr	r3, .L52
 902 0006 1818     		adds	r0, r3, r0
 903              	.LVL122:
 904 0008 4668     		ldr	r6, [r0, #4]
 905              	.LVL123:
1773:Generated_Source\PSoC4/cyCapsense_Filter.c ****     cyCapsense_RAM_SNS_STRUCT *ptrSensor = NULL;
1774:Generated_Source\PSoC4/cyCapsense_Filter.c ****     SMARTSENSE_CSD_NOISE_ENVELOPE_STRUCT *ptrNoiseEnvelope = NULL;
1775:Generated_Source\PSoC4/cyCapsense_Filter.c **** 
1776:Generated_Source\PSoC4/cyCapsense_Filter.c ****     /* Find pointer to specified sensor object */
1777:Generated_Source\PSoC4/cyCapsense_Filter.c ****     ptrSensor = ptrWidget->ptr2SnsRam;
 906              		.loc 1 1777 0
 907 000a 8568     		ldr	r5, [r0, #8]
 908              	.LVL124:
1778:Generated_Source\PSoC4/cyCapsense_Filter.c ****     ptrSensor = &ptrSensor[sensorId];
 909              		.loc 1 1778 0
 910 000c 8B00     		lsls	r3, r1, #2
 911 000e 5B18     		adds	r3, r3, r1
 912 0010 5C00     		lsls	r4, r3, #1
 913              	.LVL125:
1779:Generated_Source\PSoC4/cyCapsense_Filter.c **** 
1780:Generated_Source\PSoC4/cyCapsense_Filter.c ****     /* Find pointer to specified filter sensor object */
1781:Generated_Source\PSoC4/cyCapsense_Filter.c ****     ptrNoiseEnvelope = ptrWidget->ptr2NoiseEnvlp;
 914              		.loc 1 1781 0
 915 0012 C369     		ldr	r3, [r0, #28]
 916              	.LVL126:
1782:Generated_Source\PSoC4/cyCapsense_Filter.c ****     ptrNoiseEnvelope = &ptrNoiseEnvelope[sensorId];
 917              		.loc 1 1782 0
 918 0014 4A00     		lsls	r2, r1, #1
 919 0016 5118     		adds	r1, r2, r1
 920              	.LVL127:
 921 0018 8A00     		lsls	r2, r1, #2
 922 001a 9A18     		adds	r2, r3, r2
 923              	.LVL128:
1783:Generated_Source\PSoC4/cyCapsense_Filter.c **** 
1784:Generated_Source\PSoC4/cyCapsense_Filter.c ****     SmartSense_InitializeNoiseEnvelope(ptrSensor->raw[0u], ptrWidgetRam->sigPFC, ptrNoiseEnvelope);
 924              		.loc 1 1784 0
 925 001c 318A     		ldrh	r1, [r6, #16]
 926 001e 285B     		ldrh	r0, [r5, r4]
 927              	.LVL129:
 928 0020 FFF7FEFF 		bl	SmartSense_InitializeNoiseEnvelope
ARM GAS  C:\Users\turan\AppData\Local\Temp\ccfzf2rj.s 			page 50


 929              	.LVL130:
1785:Generated_Source\PSoC4/cyCapsense_Filter.c **** }
 930              		.loc 1 1785 0
 931              		@ sp needed
 932              	.LVL131:
 933              	.LVL132:
 934              	.LVL133:
 935 0024 70BD     		pop	{r4, r5, r6, pc}
 936              	.L53:
 937 0026 C046     		.align	2
 938              	.L52:
 939 0028 00000000 		.word	cyCapsense_dsFlash
 940              		.cfi_endproc
 941              	.LFE20:
 942              		.size	cyCapsense_InitializeNoiseEnvelope, .-cyCapsense_InitializeNoiseEnvelope
 943              		.section	.text.cyCapsense_FtIIR1stOrder,"ax",%progbits
 944              		.align	2
 945              		.global	cyCapsense_FtIIR1stOrder
 946              		.code	16
 947              		.thumb_func
 948              		.type	cyCapsense_FtIIR1stOrder, %function
 949              	cyCapsense_FtIIR1stOrder:
 950              	.LFB21:
1786:Generated_Source\PSoC4/cyCapsense_Filter.c **** #endif /* (0u != (cyCapsense_CSD_AUTOTUNE & cyCapsense_CSD_SS_TH_EN)) */
1787:Generated_Source\PSoC4/cyCapsense_Filter.c **** 
1788:Generated_Source\PSoC4/cyCapsense_Filter.c **** 
1789:Generated_Source\PSoC4/cyCapsense_Filter.c **** #if (cyCapsense_POS_MEDIAN_FILTER_EN || cyCapsense_REGULAR_RC_MEDIAN_FILTER_EN || cyCapsense_PROX_R
1790:Generated_Source\PSoC4/cyCapsense_Filter.c **** /*******************************************************************************
1791:Generated_Source\PSoC4/cyCapsense_Filter.c **** * Function Name: cyCapsense_FtMedian
1792:Generated_Source\PSoC4/cyCapsense_Filter.c **** ****************************************************************************//**
1793:Generated_Source\PSoC4/cyCapsense_Filter.c **** *
1794:Generated_Source\PSoC4/cyCapsense_Filter.c **** * \brief
1795:Generated_Source\PSoC4/cyCapsense_Filter.c **** *  Return the median value from the three passed arguments.
1796:Generated_Source\PSoC4/cyCapsense_Filter.c **** *
1797:Generated_Source\PSoC4/cyCapsense_Filter.c **** * \details
1798:Generated_Source\PSoC4/cyCapsense_Filter.c **** *  Return the median value from the three passed arguments.
1799:Generated_Source\PSoC4/cyCapsense_Filter.c **** *
1800:Generated_Source\PSoC4/cyCapsense_Filter.c **** * \param x1
1801:Generated_Source\PSoC4/cyCapsense_Filter.c **** *  The first value to be compared.
1802:Generated_Source\PSoC4/cyCapsense_Filter.c **** *
1803:Generated_Source\PSoC4/cyCapsense_Filter.c **** * \param x2
1804:Generated_Source\PSoC4/cyCapsense_Filter.c **** *  The second value to be compared.
1805:Generated_Source\PSoC4/cyCapsense_Filter.c **** *
1806:Generated_Source\PSoC4/cyCapsense_Filter.c **** * \param x3
1807:Generated_Source\PSoC4/cyCapsense_Filter.c **** *  The third value to be compared.
1808:Generated_Source\PSoC4/cyCapsense_Filter.c **** *
1809:Generated_Source\PSoC4/cyCapsense_Filter.c **** * \return
1810:Generated_Source\PSoC4/cyCapsense_Filter.c **** *  Returns the median value of input arguments.
1811:Generated_Source\PSoC4/cyCapsense_Filter.c **** *
1812:Generated_Source\PSoC4/cyCapsense_Filter.c **** *******************************************************************************/
1813:Generated_Source\PSoC4/cyCapsense_Filter.c **** uint32 cyCapsense_FtMedian(uint32 x1, uint32 x2, uint32 x3)
1814:Generated_Source\PSoC4/cyCapsense_Filter.c **** {
1815:Generated_Source\PSoC4/cyCapsense_Filter.c ****     uint32 tmp;
1816:Generated_Source\PSoC4/cyCapsense_Filter.c **** 
1817:Generated_Source\PSoC4/cyCapsense_Filter.c ****     if (x1 > x2)
1818:Generated_Source\PSoC4/cyCapsense_Filter.c ****     {
1819:Generated_Source\PSoC4/cyCapsense_Filter.c ****         tmp = x2;
ARM GAS  C:\Users\turan\AppData\Local\Temp\ccfzf2rj.s 			page 51


1820:Generated_Source\PSoC4/cyCapsense_Filter.c ****         x2 = x1;
1821:Generated_Source\PSoC4/cyCapsense_Filter.c ****         x1 = tmp;
1822:Generated_Source\PSoC4/cyCapsense_Filter.c ****     }
1823:Generated_Source\PSoC4/cyCapsense_Filter.c **** 
1824:Generated_Source\PSoC4/cyCapsense_Filter.c ****     if (x2 > x3)
1825:Generated_Source\PSoC4/cyCapsense_Filter.c ****     {
1826:Generated_Source\PSoC4/cyCapsense_Filter.c ****         x2 = x3;
1827:Generated_Source\PSoC4/cyCapsense_Filter.c ****     }
1828:Generated_Source\PSoC4/cyCapsense_Filter.c **** 
1829:Generated_Source\PSoC4/cyCapsense_Filter.c ****     return ((x1 > x2) ? x1 : x2);
1830:Generated_Source\PSoC4/cyCapsense_Filter.c **** }
1831:Generated_Source\PSoC4/cyCapsense_Filter.c **** #endif /*cyCapsense_POS_MEDIAN_FILTER_EN || cyCapsense_REGULAR_RC_MEDIAN_FILTER_EN || cyCapsense_PR
1832:Generated_Source\PSoC4/cyCapsense_Filter.c **** 
1833:Generated_Source\PSoC4/cyCapsense_Filter.c **** 
1834:Generated_Source\PSoC4/cyCapsense_Filter.c **** /*******************************************************************************
1835:Generated_Source\PSoC4/cyCapsense_Filter.c **** * Function Name: cyCapsense_FtIIR1stOrder
1836:Generated_Source\PSoC4/cyCapsense_Filter.c **** ****************************************************************************//**
1837:Generated_Source\PSoC4/cyCapsense_Filter.c **** *
1838:Generated_Source\PSoC4/cyCapsense_Filter.c **** * \brief
1839:Generated_Source\PSoC4/cyCapsense_Filter.c **** *  Return the filtered data by the IIR 1-st order algorithm
1840:Generated_Source\PSoC4/cyCapsense_Filter.c **** *
1841:Generated_Source\PSoC4/cyCapsense_Filter.c **** * \details
1842:Generated_Source\PSoC4/cyCapsense_Filter.c **** *  Return the filtered data by the IIR 1-st order algorithm
1843:Generated_Source\PSoC4/cyCapsense_Filter.c **** *
1844:Generated_Source\PSoC4/cyCapsense_Filter.c **** * \param input
1845:Generated_Source\PSoC4/cyCapsense_Filter.c **** *  The data to be filtered.
1846:Generated_Source\PSoC4/cyCapsense_Filter.c **** *
1847:Generated_Source\PSoC4/cyCapsense_Filter.c **** * \param prevOutput
1848:Generated_Source\PSoC4/cyCapsense_Filter.c **** *  The previous filtered data.
1849:Generated_Source\PSoC4/cyCapsense_Filter.c **** *
1850:Generated_Source\PSoC4/cyCapsense_Filter.c **** * \param n
1851:Generated_Source\PSoC4/cyCapsense_Filter.c **** *  The IIR filter coefficient (n/256).
1852:Generated_Source\PSoC4/cyCapsense_Filter.c **** *
1853:Generated_Source\PSoC4/cyCapsense_Filter.c **** * \param shift
1854:Generated_Source\PSoC4/cyCapsense_Filter.c **** *  The parameter is used to shift input data to have free LSB
1855:Generated_Source\PSoC4/cyCapsense_Filter.c **** *  bits for a fraction storage of the filter output calculation.
1856:Generated_Source\PSoC4/cyCapsense_Filter.c **** *
1857:Generated_Source\PSoC4/cyCapsense_Filter.c **** * \return
1858:Generated_Source\PSoC4/cyCapsense_Filter.c **** *  Returns the filtered data.
1859:Generated_Source\PSoC4/cyCapsense_Filter.c **** *
1860:Generated_Source\PSoC4/cyCapsense_Filter.c **** *******************************************************************************/
1861:Generated_Source\PSoC4/cyCapsense_Filter.c **** uint32 cyCapsense_FtIIR1stOrder(uint32 input, uint32 prevOutput, uint32 n, uint32 shift)
1862:Generated_Source\PSoC4/cyCapsense_Filter.c **** {
 951              		.loc 1 1862 0
 952              		.cfi_startproc
 953              		@ args = 0, pretend = 0, frame = 0
 954              		@ frame_needed = 0, uses_anonymous_args = 0
 955              		@ link register save eliminated.
 956              	.LVL134:
1863:Generated_Source\PSoC4/cyCapsense_Filter.c ****     uint32 filteredOutput;
1864:Generated_Source\PSoC4/cyCapsense_Filter.c **** 
1865:Generated_Source\PSoC4/cyCapsense_Filter.c ****     /*
1866:Generated_Source\PSoC4/cyCapsense_Filter.c ****     * n - IIR filter coefficient (n/256)
1867:Generated_Source\PSoC4/cyCapsense_Filter.c ****     * shift - Used to shift input data to have free LSB bits
1868:Generated_Source\PSoC4/cyCapsense_Filter.c ****     * for fraction storage of filter output calculation
1869:Generated_Source\PSoC4/cyCapsense_Filter.c ****     */
1870:Generated_Source\PSoC4/cyCapsense_Filter.c ****     filteredOutput = ((n * (input << shift)) + ((cyCapsense_IIR_COEFFICIENT_K - n) * prevOutput)) >
ARM GAS  C:\Users\turan\AppData\Local\Temp\ccfzf2rj.s 			page 52


 957              		.loc 1 1870 0
 958 0000 9840     		lsls	r0, r0, r3
 959              	.LVL135:
 960 0002 5043     		muls	r0, r2
 961 0004 8023     		movs	r3, #128
 962              	.LVL136:
 963 0006 5B00     		lsls	r3, r3, #1
 964 0008 9A1A     		subs	r2, r3, r2
 965              	.LVL137:
 966 000a 5143     		muls	r1, r2
 967              	.LVL138:
 968 000c 4018     		adds	r0, r0, r1
 969 000e 000A     		lsrs	r0, r0, #8
 970              	.LVL139:
1871:Generated_Source\PSoC4/cyCapsense_Filter.c **** 
1872:Generated_Source\PSoC4/cyCapsense_Filter.c ****     /* Shift operation of output will be done in upper level API if needed */
1873:Generated_Source\PSoC4/cyCapsense_Filter.c ****     return filteredOutput;
1874:Generated_Source\PSoC4/cyCapsense_Filter.c **** }
 971              		.loc 1 1874 0
 972              		@ sp needed
 973 0010 7047     		bx	lr
 974              		.cfi_endproc
 975              	.LFE21:
 976              		.size	cyCapsense_FtIIR1stOrder, .-cyCapsense_FtIIR1stOrder
 977 0012 C046     		.section	.text.cyCapsense_FtUpdateBaseline,"ax",%progbits
 978              		.align	2
 979              		.global	cyCapsense_FtUpdateBaseline
 980              		.code	16
 981              		.thumb_func
 982              		.type	cyCapsense_FtUpdateBaseline, %function
 983              	cyCapsense_FtUpdateBaseline:
 984              	.LFB5:
 259:Generated_Source\PSoC4/cyCapsense_Filter.c ****     uint32 sign;
 985              		.loc 1 259 0
 986              		.cfi_startproc
 987              		@ args = 0, pretend = 0, frame = 8
 988              		@ frame_needed = 0, uses_anonymous_args = 0
 989              	.LVL140:
 990 0000 F0B5     		push	{r4, r5, r6, r7, lr}
 991              		.cfi_def_cfa_offset 20
 992              		.cfi_offset 4, -20
 993              		.cfi_offset 5, -16
 994              		.cfi_offset 6, -12
 995              		.cfi_offset 7, -8
 996              		.cfi_offset 14, -4
 997 0002 4746     		mov	r7, r8
 998 0004 80B4     		push	{r7}
 999              		.cfi_def_cfa_offset 24
 1000              		.cfi_offset 8, -24
 1001 0006 82B0     		sub	sp, sp, #8
 1002              		.cfi_def_cfa_offset 32
 1003 0008 0700     		movs	r7, r0
 1004 000a 0E00     		movs	r6, r1
 1005 000c 0192     		str	r2, [sp, #4]
 1006              	.LVL141:
 271:Generated_Source\PSoC4/cyCapsense_Filter.c ****     {
 1007              		.loc 1 271 0
ARM GAS  C:\Users\turan\AppData\Local\Temp\ccfzf2rj.s 			page 53


 1008 000e 0123     		movs	r3, #1
 1009 0010 3EE0     		b	.L56
 1010              	.LVL142:
 1011              	.L63:
 283:Generated_Source\PSoC4/cyCapsense_Filter.c ****         {
 1012              		.loc 1 283 0
 1013 0012 6300     		lsls	r3, r4, #1
 1014 0014 985B     		ldrh	r0, [r3, r6]
 1015 0016 F318     		adds	r3, r6, r3
 1016 0018 5988     		ldrh	r1, [r3, #2]
 1017 001a 8842     		cmp	r0, r1
 1018 001c 05D3     		bcc	.L57
 285:Generated_Source\PSoC4/cyCapsense_Filter.c ****             sign = 1u;
 1019              		.loc 1 285 0
 1020 001e 431A     		subs	r3, r0, r1
 1021              	.LVL143:
 287:Generated_Source\PSoC4/cyCapsense_Filter.c ****         }
 1022              		.loc 1 287 0
 1023 0020 3219     		adds	r2, r6, r4
 1024 0022 0025     		movs	r5, #0
 1025 0024 1572     		strb	r5, [r2, #8]
 286:Generated_Source\PSoC4/cyCapsense_Filter.c ****             ptrSensor->negBslnRstCnt[freqChannel] = 0u;
 1026              		.loc 1 286 0
 1027 0026 0122     		movs	r2, #1
 1028 0028 01E0     		b	.L58
 1029              	.LVL144:
 1030              	.L57:
 291:Generated_Source\PSoC4/cyCapsense_Filter.c ****             sign = 0u;
 1031              		.loc 1 291 0
 1032 002a 0B1A     		subs	r3, r1, r0
 1033              	.LVL145:
 292:Generated_Source\PSoC4/cyCapsense_Filter.c ****         }
 1034              		.loc 1 292 0
 1035 002c 0022     		movs	r2, #0
 1036              	.LVL146:
 1037              	.L58:
 296:Generated_Source\PSoC4/cyCapsense_Filter.c ****         {
 1038              		.loc 1 296 0
 1039 002e 002A     		cmp	r2, #0
 1040 0030 11D1     		bne	.L59
 296:Generated_Source\PSoC4/cyCapsense_Filter.c ****         {
 1041              		.loc 1 296 0 is_stmt 0 discriminator 1
 1042 0032 7D79     		ldrb	r5, [r7, #5]
 1043 0034 AB42     		cmp	r3, r5
 1044 0036 0ED9     		bls	.L59
 298:Generated_Source\PSoC4/cyCapsense_Filter.c ****             {
 1045              		.loc 1 298 0 is_stmt 1
 1046 0038 3319     		adds	r3, r6, r4
 1047              	.LVL147:
 1048 003a 1B7A     		ldrb	r3, [r3, #8]
 1049 003c 3A7A     		ldrb	r2, [r7, #8]
 1050              	.LVL148:
 1051 003e 9342     		cmp	r3, r2
 1052 0040 05D3     		bcc	.L60
 300:Generated_Source\PSoC4/cyCapsense_Filter.c ****             }
 1053              		.loc 1 300 0
 1054 0042 2200     		movs	r2, r4
ARM GAS  C:\Users\turan\AppData\Local\Temp\ccfzf2rj.s 			page 54


 1055 0044 0199     		ldr	r1, [sp, #4]
 1056 0046 3000     		movs	r0, r6
 1057 0048 FFF7FEFF 		bl	cyCapsense_FtInitializeBaselineChannel
 1058              	.LVL149:
 1059 004c 1FE0     		b	.L61
 1060              	.L60:
 304:Generated_Source\PSoC4/cyCapsense_Filter.c ****             }
 1061              		.loc 1 304 0
 1062 004e 3219     		adds	r2, r6, r4
 1063 0050 0133     		adds	r3, r3, #1
 1064 0052 1372     		strb	r3, [r2, #8]
 1065 0054 1BE0     		b	.L61
 1066              	.LVL150:
 1067              	.L59:
 311:Generated_Source\PSoC4/cyCapsense_Filter.c ****                     ((difference < (uint32) ptrWidgetRam->nNoiseTh) && (sign == 0u)))
 1068              		.loc 1 311 0
 1069 0056 3D79     		ldrb	r5, [r7, #4]
 1070 0058 AB42     		cmp	r3, r5
 1071 005a 04D9     		bls	.L62
 312:Generated_Source\PSoC4/cyCapsense_Filter.c ****                 {
 1072              		.loc 1 312 0 discriminator 1
 1073 005c 7D79     		ldrb	r5, [r7, #5]
 311:Generated_Source\PSoC4/cyCapsense_Filter.c ****                     ((difference < (uint32) ptrWidgetRam->nNoiseTh) && (sign == 0u)))
 1074              		.loc 1 311 0 discriminator 1
 1075 005e AB42     		cmp	r3, r5
 1076 0060 15D2     		bcs	.L61
 312:Generated_Source\PSoC4/cyCapsense_Filter.c ****                 {
 1077              		.loc 1 312 0
 1078 0062 002A     		cmp	r2, #0
 1079 0064 13D1     		bne	.L61
 1080              	.L62:
 318:Generated_Source\PSoC4/cyCapsense_Filter.c ****                 {
 1081              		.loc 1 318 0
 1082 0066 FF23     		movs	r3, #255
 1083              	.LVL151:
 1084 0068 019A     		ldr	r2, [sp, #4]
 1085              	.LVL152:
 1086 006a 1340     		ands	r3, r2
 1087 006c 062B     		cmp	r3, #6
 1088 006e 0ED0     		beq	.L61
 322:Generated_Source\PSoC4/cyCapsense_Filter.c ****                             history |= ptrSensor->bslnExt[freqChannel];
 1089              		.loc 1 322 0
 1090 0070 0902     		lsls	r1, r1, #8
 1091              	.LVL153:
 323:Generated_Source\PSoC4/cyCapsense_Filter.c ****                         #else
 1092              		.loc 1 323 0
 1093 0072 3319     		adds	r3, r6, r4
 1094 0074 9846     		mov	r8, r3
 1095 0076 1B79     		ldrb	r3, [r3, #4]
 1096 0078 1943     		orrs	r1, r3
 1097              	.LVL154:
 334:Generated_Source\PSoC4/cyCapsense_Filter.c ****                                         (uint32)ptrSensor->raw[freqChannel],
 1098              		.loc 1 334 0
 1099 007a 0823     		movs	r3, #8
 1100 007c 0A22     		movs	r2, #10
 1101 007e FFF7FEFF 		bl	cyCapsense_FtIIR1stOrder
 1102              	.LVL155:
ARM GAS  C:\Users\turan\AppData\Local\Temp\ccfzf2rj.s 			page 55


 340:Generated_Source\PSoC4/cyCapsense_Filter.c ****                             ptrSensor->bslnExt[freqChannel] = LO8(history);
 1103              		.loc 1 340 0
 1104 0082 020A     		lsrs	r2, r0, #8
 1105 0084 6300     		lsls	r3, r4, #1
 1106 0086 F318     		adds	r3, r6, r3
 1107 0088 5A80     		strh	r2, [r3, #2]
 341:Generated_Source\PSoC4/cyCapsense_Filter.c ****                         #else
 1108              		.loc 1 341 0
 1109 008a 4346     		mov	r3, r8
 1110 008c 1871     		strb	r0, [r3, #4]
 1111              	.LVL156:
 1112              	.L61:
 1113 008e 2300     		movs	r3, r4
 1114              	.LVL157:
 1115              	.L56:
 271:Generated_Source\PSoC4/cyCapsense_Filter.c ****     {
 1116              		.loc 1 271 0 discriminator 1
 1117 0090 5C1E     		subs	r4, r3, #1
 1118              	.LVL158:
 1119 0092 002B     		cmp	r3, #0
 1120 0094 BDD1     		bne	.L63
 398:Generated_Source\PSoC4/cyCapsense_Filter.c **** 
 1121              		.loc 1 398 0
 1122 0096 0020     		movs	r0, #0
 1123 0098 02B0     		add	sp, sp, #8
 1124              		@ sp needed
 1125              	.LVL159:
 1126              	.LVL160:
 1127              	.LVL161:
 1128 009a 04BC     		pop	{r2}
 1129 009c 9046     		mov	r8, r2
 1130 009e F0BD     		pop	{r4, r5, r6, r7, pc}
 1131              		.cfi_endproc
 1132              	.LFE5:
 1133              		.size	cyCapsense_FtUpdateBaseline, .-cyCapsense_FtUpdateBaseline
 1134              		.section	.text.cyCapsense_UpdateSensorBaseline,"ax",%progbits
 1135              		.align	2
 1136              		.global	cyCapsense_UpdateSensorBaseline
 1137              		.code	16
 1138              		.thumb_func
 1139              		.type	cyCapsense_UpdateSensorBaseline, %function
 1140              	cyCapsense_UpdateSensorBaseline:
 1141              	.LFB4:
 201:Generated_Source\PSoC4/cyCapsense_Filter.c ****     uint32 result = CYRET_SUCCESS;
 1142              		.loc 1 201 0
 1143              		.cfi_startproc
 1144              		@ args = 0, pretend = 0, frame = 0
 1145              		@ frame_needed = 0, uses_anonymous_args = 0
 1146              	.LVL162:
 1147 0000 10B5     		push	{r4, lr}
 1148              		.cfi_def_cfa_offset 8
 1149              		.cfi_offset 4, -8
 1150              		.cfi_offset 14, -4
 1151              	.LVL163:
 206:Generated_Source\PSoC4/cyCapsense_Filter.c **** 
 1152              		.loc 1 206 0
 1153 0002 4001     		lsls	r0, r0, #5
ARM GAS  C:\Users\turan\AppData\Local\Temp\ccfzf2rj.s 			page 56


 1154              	.LVL164:
 1155 0004 064B     		ldr	r3, .L65
 1156 0006 1B18     		adds	r3, r3, r0
 1157              	.LVL165:
 1158 0008 5868     		ldr	r0, [r3, #4]
 1159              	.LVL166:
 210:Generated_Source\PSoC4/cyCapsense_Filter.c ****     result = cyCapsense_FtUpdateBaseline(ptrWidgetRam, ptrSensor, (uint32)ptrWidget->wdgtType);
 1160              		.loc 1 210 0
 1161 000a 8A00     		lsls	r2, r1, #2
 1162 000c 5218     		adds	r2, r2, r1
 1163 000e 5100     		lsls	r1, r2, #1
 1164              	.LVL167:
 1165 0010 9A68     		ldr	r2, [r3, #8]
 1166 0012 9446     		mov	ip, r2
 1167 0014 6144     		add	r1, r1, ip
 1168              	.LVL168:
 211:Generated_Source\PSoC4/cyCapsense_Filter.c **** 
 1169              		.loc 1 211 0
 1170 0016 9A7E     		ldrb	r2, [r3, #26]
 1171 0018 FFF7FEFF 		bl	cyCapsense_FtUpdateBaseline
 1172              	.LVL169:
 222:Generated_Source\PSoC4/cyCapsense_Filter.c **** 
 1173              		.loc 1 222 0
 1174              		@ sp needed
 1175 001c 10BD     		pop	{r4, pc}
 1176              	.L66:
 1177 001e C046     		.align	2
 1178              	.L65:
 1179 0020 00000000 		.word	cyCapsense_dsFlash
 1180              		.cfi_endproc
 1181              	.LFE4:
 1182              		.size	cyCapsense_UpdateSensorBaseline, .-cyCapsense_UpdateSensorBaseline
 1183              		.section	.text.cyCapsense_UpdateWidgetBaseline,"ax",%progbits
 1184              		.align	2
 1185              		.global	cyCapsense_UpdateWidgetBaseline
 1186              		.code	16
 1187              		.thumb_func
 1188              		.type	cyCapsense_UpdateWidgetBaseline, %function
 1189              	cyCapsense_UpdateWidgetBaseline:
 1190              	.LFB3:
 144:Generated_Source\PSoC4/cyCapsense_Filter.c ****     uint32 sensorId;
 1191              		.loc 1 144 0
 1192              		.cfi_startproc
 1193              		@ args = 0, pretend = 0, frame = 0
 1194              		@ frame_needed = 0, uses_anonymous_args = 0
 1195              	.LVL170:
 1196 0000 70B5     		push	{r4, r5, r6, lr}
 1197              		.cfi_def_cfa_offset 16
 1198              		.cfi_offset 4, -16
 1199              		.cfi_offset 5, -12
 1200              		.cfi_offset 6, -8
 1201              		.cfi_offset 14, -4
 1202 0002 0600     		movs	r6, r0
 1203              	.LVL171:
 152:Generated_Source\PSoC4/cyCapsense_Filter.c **** 
 1204              		.loc 1 152 0
 1205 0004 4301     		lsls	r3, r0, #5
ARM GAS  C:\Users\turan\AppData\Local\Temp\ccfzf2rj.s 			page 57


 1206 0006 084A     		ldr	r2, .L70
 1207 0008 D318     		adds	r3, r2, r3
 1208              	.LVL172:
 1209 000a 1B8B     		ldrh	r3, [r3, #24]
 1210              	.LVL173:
 149:Generated_Source\PSoC4/cyCapsense_Filter.c **** 
 1211              		.loc 1 149 0
 1212 000c 0025     		movs	r5, #0
 154:Generated_Source\PSoC4/cyCapsense_Filter.c ****     {
 1213              		.loc 1 154 0
 1214 000e 05E0     		b	.L68
 1215              	.LVL174:
 1216              	.L69:
 156:Generated_Source\PSoC4/cyCapsense_Filter.c ****     }
 1217              		.loc 1 156 0
 1218 0010 2100     		movs	r1, r4
 1219 0012 3000     		movs	r0, r6
 1220 0014 FFF7FEFF 		bl	cyCapsense_UpdateSensorBaseline
 1221              	.LVL175:
 1222 0018 0543     		orrs	r5, r0
 1223              	.LVL176:
 154:Generated_Source\PSoC4/cyCapsense_Filter.c ****     {
 1224              		.loc 1 154 0
 1225 001a 2300     		movs	r3, r4
 1226              	.LVL177:
 1227              	.L68:
 154:Generated_Source\PSoC4/cyCapsense_Filter.c ****     {
 1228              		.loc 1 154 0 is_stmt 0 discriminator 1
 1229 001c 5C1E     		subs	r4, r3, #1
 1230              	.LVL178:
 1231 001e 002B     		cmp	r3, #0
 1232 0020 F6D1     		bne	.L69
 160:Generated_Source\PSoC4/cyCapsense_Filter.c **** 
 1233              		.loc 1 160 0 is_stmt 1
 1234 0022 2800     		movs	r0, r5
 1235              		@ sp needed
 1236              	.LVL179:
 1237              	.LVL180:
 1238              	.LVL181:
 1239 0024 70BD     		pop	{r4, r5, r6, pc}
 1240              	.L71:
 1241 0026 C046     		.align	2
 1242              	.L70:
 1243 0028 00000000 		.word	cyCapsense_dsFlash
 1244              		.cfi_endproc
 1245              	.LFE3:
 1246              		.size	cyCapsense_UpdateWidgetBaseline, .-cyCapsense_UpdateWidgetBaseline
 1247              		.section	.text.cyCapsense_UpdateAllBaselines,"ax",%progbits
 1248              		.align	2
 1249              		.global	cyCapsense_UpdateAllBaselines
 1250              		.code	16
 1251              		.thumb_func
 1252              		.type	cyCapsense_UpdateAllBaselines, %function
 1253              	cyCapsense_UpdateAllBaselines:
 1254              	.LFB2:
  98:Generated_Source\PSoC4/cyCapsense_Filter.c ****     uint32 widgetId;
 1255              		.loc 1 98 0
ARM GAS  C:\Users\turan\AppData\Local\Temp\ccfzf2rj.s 			page 58


 1256              		.cfi_startproc
 1257              		@ args = 0, pretend = 0, frame = 0
 1258              		@ frame_needed = 0, uses_anonymous_args = 0
 1259 0000 70B5     		push	{r4, r5, r6, lr}
 1260              		.cfi_def_cfa_offset 16
 1261              		.cfi_offset 4, -16
 1262              		.cfi_offset 5, -12
 1263              		.cfi_offset 6, -8
 1264              		.cfi_offset 14, -4
 1265              	.LVL182:
 100:Generated_Source\PSoC4/cyCapsense_Filter.c **** 
 1266              		.loc 1 100 0
 1267 0002 0025     		movs	r5, #0
 102:Generated_Source\PSoC4/cyCapsense_Filter.c ****     {
 1268              		.loc 1 102 0
 1269 0004 0323     		movs	r3, #3
 1270 0006 04E0     		b	.L73
 1271              	.LVL183:
 1272              	.L74:
 104:Generated_Source\PSoC4/cyCapsense_Filter.c ****     }
 1273              		.loc 1 104 0
 1274 0008 2000     		movs	r0, r4
 1275 000a FFF7FEFF 		bl	cyCapsense_UpdateWidgetBaseline
 1276              	.LVL184:
 1277 000e 0543     		orrs	r5, r0
 1278              	.LVL185:
 102:Generated_Source\PSoC4/cyCapsense_Filter.c ****     {
 1279              		.loc 1 102 0
 1280 0010 2300     		movs	r3, r4
 1281              	.LVL186:
 1282              	.L73:
 102:Generated_Source\PSoC4/cyCapsense_Filter.c ****     {
 1283              		.loc 1 102 0 is_stmt 0 discriminator 1
 1284 0012 5C1E     		subs	r4, r3, #1
 1285              	.LVL187:
 1286 0014 002B     		cmp	r3, #0
 1287 0016 F7D1     		bne	.L74
 108:Generated_Source\PSoC4/cyCapsense_Filter.c **** 
 1288              		.loc 1 108 0 is_stmt 1
 1289 0018 2800     		movs	r0, r5
 1290              		@ sp needed
 1291              	.LVL188:
 1292              	.LVL189:
 1293 001a 70BD     		pop	{r4, r5, r6, pc}
 1294              		.cfi_endproc
 1295              	.LFE2:
 1296              		.size	cyCapsense_UpdateAllBaselines, .-cyCapsense_UpdateAllBaselines
 1297              		.text
 1298              	.Letext0:
 1299              		.file 2 "Generated_Source\\PSoC4\\cytypes.h"
 1300              		.file 3 "Generated_Source\\PSoC4\\cyCapsense_Configuration.h"
 1301              		.file 4 "Generated_Source\\PSoC4\\cyCapsense_SmartSense_LL.h"
 1302              		.file 5 "Generated_Source\\PSoC4\\cyCapsense_Structure.h"