ARM GAS  C:\Users\turan\AppData\Local\Temp\ccoYfjx5.s 			page 1


   1              		.syntax unified
   2              		.cpu cortex-m0
   3              		.fpu softvfp
   4              		.eabi_attribute 20, 1
   5              		.eabi_attribute 21, 1
   6              		.eabi_attribute 23, 3
   7              		.eabi_attribute 24, 1
   8              		.eabi_attribute 25, 1
   9              		.eabi_attribute 26, 1
  10              		.eabi_attribute 30, 1
  11              		.eabi_attribute 34, 0
  12              		.eabi_attribute 18, 4
  13              		.thumb
  14              		.syntax unified
  15              		.file	"cyCapsense_Structure.c"
  16              		.text
  17              	.Ltext0:
  18              		.cfi_sections	.debug_frame
  19              		.section	.text.DsParseParamId,"ax",%progbits
  20              		.align	2
  21              		.code	16
  22              		.thumb_func
  23              		.type	DsParseParamId, %function
  24              	DsParseParamId:
  25              	.LFB2:
  26              		.file 1 "Generated_Source\\PSoC4\\cyCapsense_Structure.c"
   1:Generated_Source\PSoC4/cyCapsense_Structure.c **** /***************************************************************************//**
   2:Generated_Source\PSoC4/cyCapsense_Structure.c **** * \file cyCapsense_Structure.c
   3:Generated_Source\PSoC4/cyCapsense_Structure.c **** * \version 6.0
   4:Generated_Source\PSoC4/cyCapsense_Structure.c **** *
   5:Generated_Source\PSoC4/cyCapsense_Structure.c **** * \brief
   6:Generated_Source\PSoC4/cyCapsense_Structure.c **** *   This file defines the data structure global variables and provides implementation
   7:Generated_Source\PSoC4/cyCapsense_Structure.c **** *   for the high-level and low-level APIs of the Data Structure module.
   8:Generated_Source\PSoC4/cyCapsense_Structure.c **** *
   9:Generated_Source\PSoC4/cyCapsense_Structure.c **** * \see cyCapsense v6.0 Datasheet
  10:Generated_Source\PSoC4/cyCapsense_Structure.c **** *
  11:Generated_Source\PSoC4/cyCapsense_Structure.c **** *//*****************************************************************************
  12:Generated_Source\PSoC4/cyCapsense_Structure.c **** * Copyright (2016-2018), Cypress Semiconductor Corporation.
  13:Generated_Source\PSoC4/cyCapsense_Structure.c **** ********************************************************************************
  14:Generated_Source\PSoC4/cyCapsense_Structure.c **** * This software is owned by Cypress Semiconductor Corporation (Cypress) and is
  15:Generated_Source\PSoC4/cyCapsense_Structure.c **** * protected by and subject to worldwide patent protection (United States and
  16:Generated_Source\PSoC4/cyCapsense_Structure.c **** * foreign), United States copyright laws and international treaty provisions.
  17:Generated_Source\PSoC4/cyCapsense_Structure.c **** * Cypress hereby grants to licensee a personal, non-exclusive, non-transferable
  18:Generated_Source\PSoC4/cyCapsense_Structure.c **** * license to copy, use, modify, create derivative works of, and compile the
  19:Generated_Source\PSoC4/cyCapsense_Structure.c **** * Cypress Source Code and derivative works for the sole purpose of creating
  20:Generated_Source\PSoC4/cyCapsense_Structure.c **** * custom software in support of licensee product to be used only in conjunction
  21:Generated_Source\PSoC4/cyCapsense_Structure.c **** * with a Cypress integrated circuit as specified in the applicable agreement.
  22:Generated_Source\PSoC4/cyCapsense_Structure.c **** * Any reproduction, modification, translation, compilation, or representation of
  23:Generated_Source\PSoC4/cyCapsense_Structure.c **** * this software except as specified above is prohibited without the express
  24:Generated_Source\PSoC4/cyCapsense_Structure.c **** * written permission of Cypress.
  25:Generated_Source\PSoC4/cyCapsense_Structure.c **** *
  26:Generated_Source\PSoC4/cyCapsense_Structure.c **** * Disclaimer: CYPRESS MAKES NO WARRANTY OF ANY KIND, EXPRESS OR IMPLIED, WITH
  27:Generated_Source\PSoC4/cyCapsense_Structure.c **** * REGARD TO THIS MATERIAL, INCLUDING, BUT NOT LIMITED TO, THE IMPLIED
  28:Generated_Source\PSoC4/cyCapsense_Structure.c **** * WARRANTIES OF MERCHANTABILITY AND FITNESS FOR A PARTICULAR PURPOSE.
  29:Generated_Source\PSoC4/cyCapsense_Structure.c **** * Cypress reserves the right to make changes without further notice to the
  30:Generated_Source\PSoC4/cyCapsense_Structure.c **** * materials described herein. Cypress does not assume any liability arising out
  31:Generated_Source\PSoC4/cyCapsense_Structure.c **** * of the application or use of any product or circuit described herein. Cypress
ARM GAS  C:\Users\turan\AppData\Local\Temp\ccoYfjx5.s 			page 2


  32:Generated_Source\PSoC4/cyCapsense_Structure.c **** * does not authorize its products for use as critical components in life-support
  33:Generated_Source\PSoC4/cyCapsense_Structure.c **** * systems where a malfunction or failure may reasonably be expected to result in
  34:Generated_Source\PSoC4/cyCapsense_Structure.c **** * significant injury to the user. The inclusion of Cypress' product in a life-
  35:Generated_Source\PSoC4/cyCapsense_Structure.c **** * support systems application implies that the manufacturer assumes all risk of
  36:Generated_Source\PSoC4/cyCapsense_Structure.c **** * such use and in doing so indemnifies Cypress against all charges. Use may be
  37:Generated_Source\PSoC4/cyCapsense_Structure.c **** * limited by and subject to the applicable Cypress software license agreement.
  38:Generated_Source\PSoC4/cyCapsense_Structure.c **** *******************************************************************************/
  39:Generated_Source\PSoC4/cyCapsense_Structure.c **** 
  40:Generated_Source\PSoC4/cyCapsense_Structure.c **** #include <cytypes.h>
  41:Generated_Source\PSoC4/cyCapsense_Structure.c **** #include "CyLib.h"
  42:Generated_Source\PSoC4/cyCapsense_Structure.c **** #include "cyCapsense_Structure.h"
  43:Generated_Source\PSoC4/cyCapsense_Structure.c **** #include "cyCapsense_Configuration.h"
  44:Generated_Source\PSoC4/cyCapsense_Structure.c **** 
  45:Generated_Source\PSoC4/cyCapsense_Structure.c **** #if (0u != cyCapsense_ADC_EN)
  46:Generated_Source\PSoC4/cyCapsense_Structure.c ****     #include "cyCapsense_Adc.h"
  47:Generated_Source\PSoC4/cyCapsense_Structure.c **** #endif /* (0u != cyCapsense_ADC_EN) */
  48:Generated_Source\PSoC4/cyCapsense_Structure.c **** 
  49:Generated_Source\PSoC4/cyCapsense_Structure.c **** #if (cyCapsense_ENABLE == cyCapsense_SELF_TEST_EN)
  50:Generated_Source\PSoC4/cyCapsense_Structure.c ****     #include "cyCapsense_SelfTest.h"
  51:Generated_Source\PSoC4/cyCapsense_Structure.c **** #endif
  52:Generated_Source\PSoC4/cyCapsense_Structure.c **** 
  53:Generated_Source\PSoC4/cyCapsense_Structure.c **** #if (cyCapsense_ENABLE == cyCapsense_CENTROID_5X5_CSD_EN)
  54:Generated_Source\PSoC4/cyCapsense_Structure.c ****     #include "cyCapsense_AdvancedCentroid_LL.h"
  55:Generated_Source\PSoC4/cyCapsense_Structure.c **** #endif
  56:Generated_Source\PSoC4/cyCapsense_Structure.c **** 
  57:Generated_Source\PSoC4/cyCapsense_Structure.c **** #if (cyCapsense_ENABLE == cyCapsense_GES_GLOBAL_EN)
  58:Generated_Source\PSoC4/cyCapsense_Structure.c ****     #include "cyCapsense_Gesture.h"
  59:Generated_Source\PSoC4/cyCapsense_Structure.c **** #endif /* (cyCapsense_ENABLE == cyCapsense_GES_GLOBAL_EN) */
  60:Generated_Source\PSoC4/cyCapsense_Structure.c **** 
  61:Generated_Source\PSoC4/cyCapsense_Structure.c **** /*******************************************************************************
  62:Generated_Source\PSoC4/cyCapsense_Structure.c **** * Defines the RAM Data Structure variables and their init data in flash
  63:Generated_Source\PSoC4/cyCapsense_Structure.c **** *******************************************************************************/
  64:Generated_Source\PSoC4/cyCapsense_Structure.c **** /**
  65:Generated_Source\PSoC4/cyCapsense_Structure.c **** * \cond SECTION_GLOBAL_VARIABLES
  66:Generated_Source\PSoC4/cyCapsense_Structure.c **** * \addtogroup group_global_variables
  67:Generated_Source\PSoC4/cyCapsense_Structure.c **** * \{
  68:Generated_Source\PSoC4/cyCapsense_Structure.c **** */
  69:Generated_Source\PSoC4/cyCapsense_Structure.c **** 
  70:Generated_Source\PSoC4/cyCapsense_Structure.c **** /**
  71:Generated_Source\PSoC4/cyCapsense_Structure.c **** * The variable that contains the cyCapsense configuration, settings and
  72:Generated_Source\PSoC4/cyCapsense_Structure.c **** * scanning results. cyCapsense_dsRam represents RAM Data Structure.
  73:Generated_Source\PSoC4/cyCapsense_Structure.c **** */
  74:Generated_Source\PSoC4/cyCapsense_Structure.c **** cyCapsense_RAM_STRUCT cyCapsense_dsRam;
  75:Generated_Source\PSoC4/cyCapsense_Structure.c **** /** \}
  76:Generated_Source\PSoC4/cyCapsense_Structure.c **** * \endcond */
  77:Generated_Source\PSoC4/cyCapsense_Structure.c **** 
  78:Generated_Source\PSoC4/cyCapsense_Structure.c **** /*******************************************************************************
  79:Generated_Source\PSoC4/cyCapsense_Structure.c **** * Declares Widget's De-bounce Counters
  80:Generated_Source\PSoC4/cyCapsense_Structure.c **** *******************************************************************************/
  81:Generated_Source\PSoC4/cyCapsense_Structure.c **** static uint8 cyCapsense_debounceButton0[cyCapsense_BUTTON0_NUM_SENSORS];
  82:Generated_Source\PSoC4/cyCapsense_Structure.c **** static uint8 cyCapsense_debounceButton1[cyCapsense_BUTTON1_NUM_SENSORS];
  83:Generated_Source\PSoC4/cyCapsense_Structure.c **** static uint8 cyCapsense_debounceButton2[cyCapsense_BUTTON2_NUM_SENSORS];
  84:Generated_Source\PSoC4/cyCapsense_Structure.c **** 
  85:Generated_Source\PSoC4/cyCapsense_Structure.c **** 
  86:Generated_Source\PSoC4/cyCapsense_Structure.c **** /***************************************************************************//**
  87:Generated_Source\PSoC4/cyCapsense_Structure.c **** * Declares Noise Envelope data structures
  88:Generated_Source\PSoC4/cyCapsense_Structure.c **** *******************************************************************************/
ARM GAS  C:\Users\turan\AppData\Local\Temp\ccoYfjx5.s 			page 3


  89:Generated_Source\PSoC4/cyCapsense_Structure.c **** static SMARTSENSE_CSD_NOISE_ENVELOPE_STRUCT cyCapsense_noiseEnvlpButton0[cyCapsense_BUTTON0_NUM_SEN
  90:Generated_Source\PSoC4/cyCapsense_Structure.c **** static SMARTSENSE_CSD_NOISE_ENVELOPE_STRUCT cyCapsense_noiseEnvlpButton1[cyCapsense_BUTTON1_NUM_SEN
  91:Generated_Source\PSoC4/cyCapsense_Structure.c **** static SMARTSENSE_CSD_NOISE_ENVELOPE_STRUCT cyCapsense_noiseEnvlpButton2[cyCapsense_BUTTON2_NUM_SEN
  92:Generated_Source\PSoC4/cyCapsense_Structure.c **** 
  93:Generated_Source\PSoC4/cyCapsense_Structure.c **** /***************************************************************************//**
  94:Generated_Source\PSoC4/cyCapsense_Structure.c **** * Declares Filter History Objects
  95:Generated_Source\PSoC4/cyCapsense_Structure.c **** *******************************************************************************/
  96:Generated_Source\PSoC4/cyCapsense_Structure.c **** static cyCapsense_REGULAR_FLTR_STRUCT cyCapsense_fltrHistoryButton0[cyCapsense_BUTTON0_NUM_SENSORS]
  97:Generated_Source\PSoC4/cyCapsense_Structure.c **** static cyCapsense_REGULAR_FLTR_STRUCT cyCapsense_fltrHistoryButton1[cyCapsense_BUTTON1_NUM_SENSORS]
  98:Generated_Source\PSoC4/cyCapsense_Structure.c **** static cyCapsense_REGULAR_FLTR_STRUCT cyCapsense_fltrHistoryButton2[cyCapsense_BUTTON2_NUM_SENSORS]
  99:Generated_Source\PSoC4/cyCapsense_Structure.c **** 
 100:Generated_Source\PSoC4/cyCapsense_Structure.c **** /*******************************************************************************
 101:Generated_Source\PSoC4/cyCapsense_Structure.c **** * Defines and initializes the Flash Data Structure
 102:Generated_Source\PSoC4/cyCapsense_Structure.c **** *******************************************************************************/
 103:Generated_Source\PSoC4/cyCapsense_Structure.c **** 
 104:Generated_Source\PSoC4/cyCapsense_Structure.c **** 
 105:Generated_Source\PSoC4/cyCapsense_Structure.c **** 
 106:Generated_Source\PSoC4/cyCapsense_Structure.c **** /**
 107:Generated_Source\PSoC4/cyCapsense_Structure.c **** * \cond SECTION_API_CONSTANTS
 108:Generated_Source\PSoC4/cyCapsense_Structure.c **** * \addtogroup group_api_constants
 109:Generated_Source\PSoC4/cyCapsense_Structure.c **** * \{
 110:Generated_Source\PSoC4/cyCapsense_Structure.c **** */
 111:Generated_Source\PSoC4/cyCapsense_Structure.c **** /**
 112:Generated_Source\PSoC4/cyCapsense_Structure.c **** * Constant for the FLASH Data Structure
 113:Generated_Source\PSoC4/cyCapsense_Structure.c **** */
 114:Generated_Source\PSoC4/cyCapsense_Structure.c **** const cyCapsense_FLASH_STRUCT cyCapsense_dsFlash =
 115:Generated_Source\PSoC4/cyCapsense_Structure.c **** {
 116:Generated_Source\PSoC4/cyCapsense_Structure.c ****     /* Flash Widget Initialization Data */
 117:Generated_Source\PSoC4/cyCapsense_Structure.c ****     {
 118:Generated_Source\PSoC4/cyCapsense_Structure.c ****         { /* Button0 */
 119:Generated_Source\PSoC4/cyCapsense_Structure.c ****             &cyCapsense_ioList[0u],
 120:Generated_Source\PSoC4/cyCapsense_Structure.c ****             (void *)&cyCapsense_dsRam.wdgtList.button0,
 121:Generated_Source\PSoC4/cyCapsense_Structure.c ****             cyCapsense_dsRam.snsList.button0,
 122:Generated_Source\PSoC4/cyCapsense_Structure.c ****             (void *)cyCapsense_fltrHistoryButton0,
 123:Generated_Source\PSoC4/cyCapsense_Structure.c ****             cyCapsense_debounceButton0,
 124:Generated_Source\PSoC4/cyCapsense_Structure.c ****             cyCapsense_BUTTON0_STATIC_CONFIG,
 125:Generated_Source\PSoC4/cyCapsense_Structure.c ****             cyCapsense_BUTTON0_NUM_SENSORS,
 126:Generated_Source\PSoC4/cyCapsense_Structure.c ****             (uint8)cyCapsense_WD_BUTTON_E,
 127:Generated_Source\PSoC4/cyCapsense_Structure.c ****             cyCapsense_BUTTON0_NUM_SENSORS,
 128:Generated_Source\PSoC4/cyCapsense_Structure.c ****             cyCapsense_noiseEnvlpButton0,
 129:Generated_Source\PSoC4/cyCapsense_Structure.c ****         },
 130:Generated_Source\PSoC4/cyCapsense_Structure.c ****         { /* Button1 */
 131:Generated_Source\PSoC4/cyCapsense_Structure.c ****             &cyCapsense_ioList[1u],
 132:Generated_Source\PSoC4/cyCapsense_Structure.c ****             (void *)&cyCapsense_dsRam.wdgtList.button1,
 133:Generated_Source\PSoC4/cyCapsense_Structure.c ****             cyCapsense_dsRam.snsList.button1,
 134:Generated_Source\PSoC4/cyCapsense_Structure.c ****             (void *)cyCapsense_fltrHistoryButton1,
 135:Generated_Source\PSoC4/cyCapsense_Structure.c ****             cyCapsense_debounceButton1,
 136:Generated_Source\PSoC4/cyCapsense_Structure.c ****             cyCapsense_BUTTON1_STATIC_CONFIG,
 137:Generated_Source\PSoC4/cyCapsense_Structure.c ****             cyCapsense_BUTTON1_NUM_SENSORS,
 138:Generated_Source\PSoC4/cyCapsense_Structure.c ****             (uint8)cyCapsense_WD_BUTTON_E,
 139:Generated_Source\PSoC4/cyCapsense_Structure.c ****             cyCapsense_BUTTON1_NUM_SENSORS,
 140:Generated_Source\PSoC4/cyCapsense_Structure.c ****             cyCapsense_noiseEnvlpButton1,
 141:Generated_Source\PSoC4/cyCapsense_Structure.c ****         },
 142:Generated_Source\PSoC4/cyCapsense_Structure.c ****         { /* Button2 */
 143:Generated_Source\PSoC4/cyCapsense_Structure.c ****             &cyCapsense_ioList[2u],
 144:Generated_Source\PSoC4/cyCapsense_Structure.c ****             (void *)&cyCapsense_dsRam.wdgtList.button2,
 145:Generated_Source\PSoC4/cyCapsense_Structure.c ****             cyCapsense_dsRam.snsList.button2,
ARM GAS  C:\Users\turan\AppData\Local\Temp\ccoYfjx5.s 			page 4


 146:Generated_Source\PSoC4/cyCapsense_Structure.c ****             (void *)cyCapsense_fltrHistoryButton2,
 147:Generated_Source\PSoC4/cyCapsense_Structure.c ****             cyCapsense_debounceButton2,
 148:Generated_Source\PSoC4/cyCapsense_Structure.c ****             cyCapsense_BUTTON2_STATIC_CONFIG,
 149:Generated_Source\PSoC4/cyCapsense_Structure.c ****             cyCapsense_BUTTON2_NUM_SENSORS,
 150:Generated_Source\PSoC4/cyCapsense_Structure.c ****             (uint8)cyCapsense_WD_BUTTON_E,
 151:Generated_Source\PSoC4/cyCapsense_Structure.c ****             cyCapsense_BUTTON2_NUM_SENSORS,
 152:Generated_Source\PSoC4/cyCapsense_Structure.c ****             cyCapsense_noiseEnvlpButton2,
 153:Generated_Source\PSoC4/cyCapsense_Structure.c ****         },
 154:Generated_Source\PSoC4/cyCapsense_Structure.c ****     },
 155:Generated_Source\PSoC4/cyCapsense_Structure.c **** };
 156:Generated_Source\PSoC4/cyCapsense_Structure.c **** 
 157:Generated_Source\PSoC4/cyCapsense_Structure.c **** /**
 158:Generated_Source\PSoC4/cyCapsense_Structure.c **** * The array of the pointers to the electrode specific register.
 159:Generated_Source\PSoC4/cyCapsense_Structure.c **** */
 160:Generated_Source\PSoC4/cyCapsense_Structure.c **** const cyCapsense_FLASH_IO_STRUCT cyCapsense_ioList[cyCapsense_TOTAL_ELECTRODES] =
 161:Generated_Source\PSoC4/cyCapsense_Structure.c **** {
 162:Generated_Source\PSoC4/cyCapsense_Structure.c ****     { /* 0: Button0_Sns0 */
 163:Generated_Source\PSoC4/cyCapsense_Structure.c ****         (reg32 *)cyCapsense_Sns__0__HSIOM,
 164:Generated_Source\PSoC4/cyCapsense_Structure.c ****         (reg32 *)cyCapsense_Sns__0__PC,
 165:Generated_Source\PSoC4/cyCapsense_Structure.c ****         (reg32 *)cyCapsense_Sns__0__DR,
 166:Generated_Source\PSoC4/cyCapsense_Structure.c ****         (reg32 *)cyCapsense_Sns__0__PS,
 167:Generated_Source\PSoC4/cyCapsense_Structure.c ****         cyCapsense_Sns__0__HSIOM_MASK,
 168:Generated_Source\PSoC4/cyCapsense_Structure.c ****         cyCapsense_Sns__0__MASK,
 169:Generated_Source\PSoC4/cyCapsense_Structure.c ****         cyCapsense_Sns__0__HSIOM_SHIFT,
 170:Generated_Source\PSoC4/cyCapsense_Structure.c ****         (uint8)cyCapsense_Sns__0__SHIFT,
 171:Generated_Source\PSoC4/cyCapsense_Structure.c ****         (uint8)cyCapsense_Sns__0__SHIFT * 3u,
 172:Generated_Source\PSoC4/cyCapsense_Structure.c ****     },
 173:Generated_Source\PSoC4/cyCapsense_Structure.c ****     { /* 1: Button1_Sns0 */
 174:Generated_Source\PSoC4/cyCapsense_Structure.c ****         (reg32 *)cyCapsense_Sns__1__HSIOM,
 175:Generated_Source\PSoC4/cyCapsense_Structure.c ****         (reg32 *)cyCapsense_Sns__1__PC,
 176:Generated_Source\PSoC4/cyCapsense_Structure.c ****         (reg32 *)cyCapsense_Sns__1__DR,
 177:Generated_Source\PSoC4/cyCapsense_Structure.c ****         (reg32 *)cyCapsense_Sns__1__PS,
 178:Generated_Source\PSoC4/cyCapsense_Structure.c ****         cyCapsense_Sns__1__HSIOM_MASK,
 179:Generated_Source\PSoC4/cyCapsense_Structure.c ****         cyCapsense_Sns__1__MASK,
 180:Generated_Source\PSoC4/cyCapsense_Structure.c ****         cyCapsense_Sns__1__HSIOM_SHIFT,
 181:Generated_Source\PSoC4/cyCapsense_Structure.c ****         (uint8)cyCapsense_Sns__1__SHIFT,
 182:Generated_Source\PSoC4/cyCapsense_Structure.c ****         (uint8)cyCapsense_Sns__1__SHIFT * 3u,
 183:Generated_Source\PSoC4/cyCapsense_Structure.c ****     },
 184:Generated_Source\PSoC4/cyCapsense_Structure.c ****     { /* 2: Button2_Sns0 */
 185:Generated_Source\PSoC4/cyCapsense_Structure.c ****         (reg32 *)cyCapsense_Sns__2__HSIOM,
 186:Generated_Source\PSoC4/cyCapsense_Structure.c ****         (reg32 *)cyCapsense_Sns__2__PC,
 187:Generated_Source\PSoC4/cyCapsense_Structure.c ****         (reg32 *)cyCapsense_Sns__2__DR,
 188:Generated_Source\PSoC4/cyCapsense_Structure.c ****         (reg32 *)cyCapsense_Sns__2__PS,
 189:Generated_Source\PSoC4/cyCapsense_Structure.c ****         cyCapsense_Sns__2__HSIOM_MASK,
 190:Generated_Source\PSoC4/cyCapsense_Structure.c ****         cyCapsense_Sns__2__MASK,
 191:Generated_Source\PSoC4/cyCapsense_Structure.c ****         cyCapsense_Sns__2__HSIOM_SHIFT,
 192:Generated_Source\PSoC4/cyCapsense_Structure.c ****         (uint8)cyCapsense_Sns__2__SHIFT,
 193:Generated_Source\PSoC4/cyCapsense_Structure.c ****         (uint8)cyCapsense_Sns__2__SHIFT * 3u,
 194:Generated_Source\PSoC4/cyCapsense_Structure.c ****     },
 195:Generated_Source\PSoC4/cyCapsense_Structure.c **** };
 196:Generated_Source\PSoC4/cyCapsense_Structure.c **** 
 197:Generated_Source\PSoC4/cyCapsense_Structure.c **** 
 198:Generated_Source\PSoC4/cyCapsense_Structure.c **** 
 199:Generated_Source\PSoC4/cyCapsense_Structure.c **** /** \}
 200:Generated_Source\PSoC4/cyCapsense_Structure.c **** * \endcond */
 201:Generated_Source\PSoC4/cyCapsense_Structure.c **** 
 202:Generated_Source\PSoC4/cyCapsense_Structure.c **** /* Initialization data for RAM widget list */
ARM GAS  C:\Users\turan\AppData\Local\Temp\ccoYfjx5.s 			page 5


 203:Generated_Source\PSoC4/cyCapsense_Structure.c **** const cyCapsense_RAM_WD_LIST_STRUCT cyCapsense_ramWidgetInit =
 204:Generated_Source\PSoC4/cyCapsense_Structure.c **** {
 205:Generated_Source\PSoC4/cyCapsense_Structure.c ****     { /* Button0 */
 206:Generated_Source\PSoC4/cyCapsense_Structure.c ****         cyCapsense_BUTTON0_RESOLUTION,
 207:Generated_Source\PSoC4/cyCapsense_Structure.c ****         cyCapsense_BUTTON0_FINGER_TH,
 208:Generated_Source\PSoC4/cyCapsense_Structure.c ****         cyCapsense_BUTTON0_NOISE_TH,
 209:Generated_Source\PSoC4/cyCapsense_Structure.c ****         cyCapsense_BUTTON0_NNOISE_TH,
 210:Generated_Source\PSoC4/cyCapsense_Structure.c ****         cyCapsense_BUTTON0_HYSTERESIS,
 211:Generated_Source\PSoC4/cyCapsense_Structure.c ****         cyCapsense_BUTTON0_ON_DEBOUNCE,
 212:Generated_Source\PSoC4/cyCapsense_Structure.c ****         cyCapsense_BUTTON0_LOW_BSLN_RST,
 213:Generated_Source\PSoC4/cyCapsense_Structure.c ****         {
 214:Generated_Source\PSoC4/cyCapsense_Structure.c ****             cyCapsense_BUTTON0_IDAC_MOD0,
 215:Generated_Source\PSoC4/cyCapsense_Structure.c ****         },
 216:Generated_Source\PSoC4/cyCapsense_Structure.c ****         cyCapsense_BUTTON0_SNS_CLK,
 217:Generated_Source\PSoC4/cyCapsense_Structure.c ****         cyCapsense_BUTTON0_SNS_CLK_SOURCE,
 218:Generated_Source\PSoC4/cyCapsense_Structure.c ****         cyCapsense_BUTTON0_FINGER_CAP,
 219:Generated_Source\PSoC4/cyCapsense_Structure.c ****         cyCapsense_BUTTON0_SIGPFC,
 220:Generated_Source\PSoC4/cyCapsense_Structure.c ****     },
 221:Generated_Source\PSoC4/cyCapsense_Structure.c ****     { /* Button1 */
 222:Generated_Source\PSoC4/cyCapsense_Structure.c ****         cyCapsense_BUTTON1_RESOLUTION,
 223:Generated_Source\PSoC4/cyCapsense_Structure.c ****         cyCapsense_BUTTON1_FINGER_TH,
 224:Generated_Source\PSoC4/cyCapsense_Structure.c ****         cyCapsense_BUTTON1_NOISE_TH,
 225:Generated_Source\PSoC4/cyCapsense_Structure.c ****         cyCapsense_BUTTON1_NNOISE_TH,
 226:Generated_Source\PSoC4/cyCapsense_Structure.c ****         cyCapsense_BUTTON1_HYSTERESIS,
 227:Generated_Source\PSoC4/cyCapsense_Structure.c ****         cyCapsense_BUTTON1_ON_DEBOUNCE,
 228:Generated_Source\PSoC4/cyCapsense_Structure.c ****         cyCapsense_BUTTON1_LOW_BSLN_RST,
 229:Generated_Source\PSoC4/cyCapsense_Structure.c ****         {
 230:Generated_Source\PSoC4/cyCapsense_Structure.c ****             cyCapsense_BUTTON1_IDAC_MOD0,
 231:Generated_Source\PSoC4/cyCapsense_Structure.c ****         },
 232:Generated_Source\PSoC4/cyCapsense_Structure.c ****         cyCapsense_BUTTON1_SNS_CLK,
 233:Generated_Source\PSoC4/cyCapsense_Structure.c ****         cyCapsense_BUTTON1_SNS_CLK_SOURCE,
 234:Generated_Source\PSoC4/cyCapsense_Structure.c ****         cyCapsense_BUTTON1_FINGER_CAP,
 235:Generated_Source\PSoC4/cyCapsense_Structure.c ****         cyCapsense_BUTTON1_SIGPFC,
 236:Generated_Source\PSoC4/cyCapsense_Structure.c ****     },
 237:Generated_Source\PSoC4/cyCapsense_Structure.c ****     { /* Button2 */
 238:Generated_Source\PSoC4/cyCapsense_Structure.c ****         cyCapsense_BUTTON2_RESOLUTION,
 239:Generated_Source\PSoC4/cyCapsense_Structure.c ****         cyCapsense_BUTTON2_FINGER_TH,
 240:Generated_Source\PSoC4/cyCapsense_Structure.c ****         cyCapsense_BUTTON2_NOISE_TH,
 241:Generated_Source\PSoC4/cyCapsense_Structure.c ****         cyCapsense_BUTTON2_NNOISE_TH,
 242:Generated_Source\PSoC4/cyCapsense_Structure.c ****         cyCapsense_BUTTON2_HYSTERESIS,
 243:Generated_Source\PSoC4/cyCapsense_Structure.c ****         cyCapsense_BUTTON2_ON_DEBOUNCE,
 244:Generated_Source\PSoC4/cyCapsense_Structure.c ****         cyCapsense_BUTTON2_LOW_BSLN_RST,
 245:Generated_Source\PSoC4/cyCapsense_Structure.c ****         {
 246:Generated_Source\PSoC4/cyCapsense_Structure.c ****             cyCapsense_BUTTON2_IDAC_MOD0,
 247:Generated_Source\PSoC4/cyCapsense_Structure.c ****         },
 248:Generated_Source\PSoC4/cyCapsense_Structure.c ****         cyCapsense_BUTTON2_SNS_CLK,
 249:Generated_Source\PSoC4/cyCapsense_Structure.c ****         cyCapsense_BUTTON2_SNS_CLK_SOURCE,
 250:Generated_Source\PSoC4/cyCapsense_Structure.c ****         cyCapsense_BUTTON2_FINGER_CAP,
 251:Generated_Source\PSoC4/cyCapsense_Structure.c ****         cyCapsense_BUTTON2_SIGPFC,
 252:Generated_Source\PSoC4/cyCapsense_Structure.c ****     },
 253:Generated_Source\PSoC4/cyCapsense_Structure.c **** };
 254:Generated_Source\PSoC4/cyCapsense_Structure.c **** 
 255:Generated_Source\PSoC4/cyCapsense_Structure.c **** 
 256:Generated_Source\PSoC4/cyCapsense_Structure.c **** 
 257:Generated_Source\PSoC4/cyCapsense_Structure.c **** /*******************************************************************************
 258:Generated_Source\PSoC4/cyCapsense_Structure.c **** * Defines internal data types and statements
 259:Generated_Source\PSoC4/cyCapsense_Structure.c **** *******************************************************************************/
ARM GAS  C:\Users\turan\AppData\Local\Temp\ccoYfjx5.s 			page 6


 260:Generated_Source\PSoC4/cyCapsense_Structure.c **** #define PARAM_TYPE_OFFSET       (30u)
 261:Generated_Source\PSoC4/cyCapsense_Structure.c **** #define PARAM_TYPE_MASK         (3Lu << PARAM_TYPE_OFFSET)
 262:Generated_Source\PSoC4/cyCapsense_Structure.c **** #define PARAM_RWBIT_OFFSET      (29u)
 263:Generated_Source\PSoC4/cyCapsense_Structure.c **** #define PARAM_RWBIT_MASK        (1Lu << PARAM_RWBIT_OFFSET)
 264:Generated_Source\PSoC4/cyCapsense_Structure.c **** #define PARAM_FBIT_OFFSET       (28u)
 265:Generated_Source\PSoC4/cyCapsense_Structure.c **** #define PARAM_FBIT_MASK         (1Lu << PARAM_FBIT_OFFSET)
 266:Generated_Source\PSoC4/cyCapsense_Structure.c **** #define PARAM_UBIT_OFFSET       (23u)
 267:Generated_Source\PSoC4/cyCapsense_Structure.c **** #define PARAM_UBIT_MASK         (1Lu << PARAM_UBIT_OFFSET)
 268:Generated_Source\PSoC4/cyCapsense_Structure.c **** #define PARAM_WDID_OFFSET       (16u)
 269:Generated_Source\PSoC4/cyCapsense_Structure.c **** #define PARAM_WDID_MASK         (0x7FLu << PARAM_WDID_OFFSET)
 270:Generated_Source\PSoC4/cyCapsense_Structure.c **** #define PARAM_CRC_OFFSET        (24u)
 271:Generated_Source\PSoC4/cyCapsense_Structure.c **** #define PARAM_CRC_MASK          (0x0FLu << PARAM_CRC_OFFSET)
 272:Generated_Source\PSoC4/cyCapsense_Structure.c **** 
 273:Generated_Source\PSoC4/cyCapsense_Structure.c **** /* Defines align masks for uint16 and uint32 */
 274:Generated_Source\PSoC4/cyCapsense_Structure.c **** #define UINT16_ALIGN_MASK       (1Lu)
 275:Generated_Source\PSoC4/cyCapsense_Structure.c **** #define UINT32_ALIGN_MASK       (3Lu)
 276:Generated_Source\PSoC4/cyCapsense_Structure.c **** 
 277:Generated_Source\PSoC4/cyCapsense_Structure.c **** /* Defines supported parameter types */
 278:Generated_Source\PSoC4/cyCapsense_Structure.c **** #define DS_PARAM_TYPE_UINT8     (0x01u)
 279:Generated_Source\PSoC4/cyCapsense_Structure.c **** #define DS_PARAM_TYPE_UINT16    (0x02u)
 280:Generated_Source\PSoC4/cyCapsense_Structure.c **** #define DS_PARAM_TYPE_UINT32    (0x03u)
 281:Generated_Source\PSoC4/cyCapsense_Structure.c **** 
 282:Generated_Source\PSoC4/cyCapsense_Structure.c **** 
 283:Generated_Source\PSoC4/cyCapsense_Structure.c **** /* Defines PARAM_ID structure */
 284:Generated_Source\PSoC4/cyCapsense_Structure.c **** typedef struct
 285:Generated_Source\PSoC4/cyCapsense_Structure.c **** {
 286:Generated_Source\PSoC4/cyCapsense_Structure.c ****     uint16 offset;      /* parameter offset */
 287:Generated_Source\PSoC4/cyCapsense_Structure.c ****     uint8  widgetId;    /* widget Id parameter belongs to */
 288:Generated_Source\PSoC4/cyCapsense_Structure.c ****     uint8  affectsCrc;  /* parameter affects widget CRC */
 289:Generated_Source\PSoC4/cyCapsense_Structure.c ****     uint8  crc;         /* parameter CRC */
 290:Generated_Source\PSoC4/cyCapsense_Structure.c ****     uint8  flash;       /* parameter located in FLASH flag */
 291:Generated_Source\PSoC4/cyCapsense_Structure.c ****     uint8  rw;          /* parameter is read/write flag */
 292:Generated_Source\PSoC4/cyCapsense_Structure.c ****     uint8  type;        /* parameter type: uint8/uint16/uint32 */
 293:Generated_Source\PSoC4/cyCapsense_Structure.c **** } PARAM_ID_STRUCT;
 294:Generated_Source\PSoC4/cyCapsense_Structure.c **** 
 295:Generated_Source\PSoC4/cyCapsense_Structure.c **** 
 296:Generated_Source\PSoC4/cyCapsense_Structure.c **** /*******************************************************************************
 297:Generated_Source\PSoC4/cyCapsense_Structure.c **** * Static Function Prototypes
 298:Generated_Source\PSoC4/cyCapsense_Structure.c **** *******************************************************************************/
 299:Generated_Source\PSoC4/cyCapsense_Structure.c **** /**
 300:Generated_Source\PSoC4/cyCapsense_Structure.c **** * \cond SECTION_C_INTERNAL
 301:Generated_Source\PSoC4/cyCapsense_Structure.c **** * \addtogroup group_c_internal
 302:Generated_Source\PSoC4/cyCapsense_Structure.c **** * \{
 303:Generated_Source\PSoC4/cyCapsense_Structure.c **** */
 304:Generated_Source\PSoC4/cyCapsense_Structure.c **** 
 305:Generated_Source\PSoC4/cyCapsense_Structure.c **** 
 306:Generated_Source\PSoC4/cyCapsense_Structure.c **** 
 307:Generated_Source\PSoC4/cyCapsense_Structure.c **** static cystatus DsParseParamId(uint32 paramId, PARAM_ID_STRUCT *pData);
 308:Generated_Source\PSoC4/cyCapsense_Structure.c **** 
 309:Generated_Source\PSoC4/cyCapsense_Structure.c **** /** \}
 310:Generated_Source\PSoC4/cyCapsense_Structure.c **** * \endcond */
 311:Generated_Source\PSoC4/cyCapsense_Structure.c **** 
 312:Generated_Source\PSoC4/cyCapsense_Structure.c **** 
 313:Generated_Source\PSoC4/cyCapsense_Structure.c **** /*******************************************************************************
 314:Generated_Source\PSoC4/cyCapsense_Structure.c **** * Function Name: cyCapsense_DsInitialize
 315:Generated_Source\PSoC4/cyCapsense_Structure.c **** ****************************************************************************//**
 316:Generated_Source\PSoC4/cyCapsense_Structure.c **** *
ARM GAS  C:\Users\turan\AppData\Local\Temp\ccoYfjx5.s 			page 7


 317:Generated_Source\PSoC4/cyCapsense_Structure.c **** * \brief
 318:Generated_Source\PSoC4/cyCapsense_Structure.c **** *   This function initializes the Data Structure storage.
 319:Generated_Source\PSoC4/cyCapsense_Structure.c **** *
 320:Generated_Source\PSoC4/cyCapsense_Structure.c **** * \details
 321:Generated_Source\PSoC4/cyCapsense_Structure.c **** *   This function copies the default widget configuration parameters
 322:Generated_Source\PSoC4/cyCapsense_Structure.c **** *   from the Flash storage into the RAM Data Structure.
 323:Generated_Source\PSoC4/cyCapsense_Structure.c **** *
 324:Generated_Source\PSoC4/cyCapsense_Structure.c **** *******************************************************************************/
 325:Generated_Source\PSoC4/cyCapsense_Structure.c **** void cyCapsense_DsInitialize(void)
 326:Generated_Source\PSoC4/cyCapsense_Structure.c **** {
 327:Generated_Source\PSoC4/cyCapsense_Structure.c ****     #if ((cyCapsense_ENABLE == cyCapsense_CSX_EN) || \
 328:Generated_Source\PSoC4/cyCapsense_Structure.c ****          (cyCapsense_ENABLE == cyCapsense_CSD_IDAC_COMP_EN) || \
 329:Generated_Source\PSoC4/cyCapsense_Structure.c ****         ((cyCapsense_ENABLE == cyCapsense_CSX_EN) && \
 330:Generated_Source\PSoC4/cyCapsense_Structure.c ****          (cyCapsense_ENABLE == cyCapsense_CSX_SKIP_OVSMPL_SPECIFIC_NODES)))
 331:Generated_Source\PSoC4/cyCapsense_Structure.c ****         uint32 snsId;
 332:Generated_Source\PSoC4/cyCapsense_Structure.c ****         uint32 wdgtId;
 333:Generated_Source\PSoC4/cyCapsense_Structure.c ****         cyCapsense_RAM_SNS_STRUCT * ptrSnsTmp;
 334:Generated_Source\PSoC4/cyCapsense_Structure.c ****         cyCapsense_FLASH_WD_STRUCT const * ptrFlashWdgt;
 335:Generated_Source\PSoC4/cyCapsense_Structure.c ****     #endif
 336:Generated_Source\PSoC4/cyCapsense_Structure.c **** 
 337:Generated_Source\PSoC4/cyCapsense_Structure.c ****     #if ((cyCapsense_ENABLE == cyCapsense_CSX_EN) && \
 338:Generated_Source\PSoC4/cyCapsense_Structure.c ****          (cyCapsense_ENABLE == cyCapsense_CSX_SKIP_OVSMPL_SPECIFIC_NODES))
 339:Generated_Source\PSoC4/cyCapsense_Structure.c ****         uint16 subConvNumber;
 340:Generated_Source\PSoC4/cyCapsense_Structure.c ****     #endif
 341:Generated_Source\PSoC4/cyCapsense_Structure.c **** 
 342:Generated_Source\PSoC4/cyCapsense_Structure.c ****     #if ((0u != cyCapsense_CSX_EN) || (0 != cyCapsense_CSD_IDAC_COMP_EN))
 343:Generated_Source\PSoC4/cyCapsense_Structure.c ****         uint8 const * ptrIdacInit = cyCapsense_ramIdacInit;
 344:Generated_Source\PSoC4/cyCapsense_Structure.c ****     #endif
 345:Generated_Source\PSoC4/cyCapsense_Structure.c **** 
 346:Generated_Source\PSoC4/cyCapsense_Structure.c ****     /* Reset RAM data structure content */
 347:Generated_Source\PSoC4/cyCapsense_Structure.c ****     (void)memset(&cyCapsense_dsRam, 0, sizeof(cyCapsense_dsRam));
 348:Generated_Source\PSoC4/cyCapsense_Structure.c **** 
 349:Generated_Source\PSoC4/cyCapsense_Structure.c ****     /* Initialize configId, deviceId and hwClock registers */
 350:Generated_Source\PSoC4/cyCapsense_Structure.c ****     cyCapsense_dsRam.configId = cyCapsense_CONFIG_ID;
 351:Generated_Source\PSoC4/cyCapsense_Structure.c ****     cyCapsense_dsRam.deviceId = cyCapsense_DEVICE_ID;
 352:Generated_Source\PSoC4/cyCapsense_Structure.c ****     cyCapsense_dsRam.hwClock = cyCapsense_HW_CLOCK;
 353:Generated_Source\PSoC4/cyCapsense_Structure.c **** 
 354:Generated_Source\PSoC4/cyCapsense_Structure.c ****     /* Initialize global RAM data */
 355:Generated_Source\PSoC4/cyCapsense_Structure.c ****     cyCapsense_dsRam.csd0Config = cyCapsense_CSD0_CONFIG;
 356:Generated_Source\PSoC4/cyCapsense_Structure.c **** 
 357:Generated_Source\PSoC4/cyCapsense_Structure.c ****     #if (0u != cyCapsense_TOTAL_CSD_WIDGETS)
 358:Generated_Source\PSoC4/cyCapsense_Structure.c ****         cyCapsense_dsRam.modCsdClk = cyCapsense_CSD_SCANSPEED_DIVIDER;
 359:Generated_Source\PSoC4/cyCapsense_Structure.c **** 
 360:Generated_Source\PSoC4/cyCapsense_Structure.c ****         #if (0u != cyCapsense_CSD_COMMON_SNS_CLK_EN)
 361:Generated_Source\PSoC4/cyCapsense_Structure.c ****             cyCapsense_dsRam.snsCsdClk = cyCapsense_CSD_SNS_CLK_DIVIDER;
 362:Generated_Source\PSoC4/cyCapsense_Structure.c ****         #endif /* #if (0u != cyCapsense_CSD_COMMON_SNS_CLK_EN) */
 363:Generated_Source\PSoC4/cyCapsense_Structure.c ****     #endif /* #if (0u != cyCapsense_TOTAL_CSD_WIDGETS) */
 364:Generated_Source\PSoC4/cyCapsense_Structure.c **** 
 365:Generated_Source\PSoC4/cyCapsense_Structure.c ****     #if (0u != cyCapsense_CSX_EN)
 366:Generated_Source\PSoC4/cyCapsense_Structure.c ****         cyCapsense_dsRam.modCsxClk = cyCapsense_CSX_SCANSPEED_DIVIDER;
 367:Generated_Source\PSoC4/cyCapsense_Structure.c **** 
 368:Generated_Source\PSoC4/cyCapsense_Structure.c ****         #if (0u != cyCapsense_CSX_COMMON_TX_CLK_EN)
 369:Generated_Source\PSoC4/cyCapsense_Structure.c ****             cyCapsense_dsRam.snsCsxClk = cyCapsense_CSX_TX_CLK_DIVIDER;
 370:Generated_Source\PSoC4/cyCapsense_Structure.c ****         #endif /* #if (0u != cyCapsense_CSX_COMMON_TX_CLK_EN) */
 371:Generated_Source\PSoC4/cyCapsense_Structure.c ****     #endif /* #if (0u != cyCapsense_CSX_EN) */
 372:Generated_Source\PSoC4/cyCapsense_Structure.c **** 
 373:Generated_Source\PSoC4/cyCapsense_Structure.c ****     #if (0u != cyCapsense_ISX_EN)
ARM GAS  C:\Users\turan\AppData\Local\Temp\ccoYfjx5.s 			page 8


 374:Generated_Source\PSoC4/cyCapsense_Structure.c ****         cyCapsense_dsRam.modIsxClk = cyCapsense_ISX_SCANSPEED_DIVIDER;
 375:Generated_Source\PSoC4/cyCapsense_Structure.c ****     #endif /* #if (0u != cyCapsense_ISX_EN) */
 376:Generated_Source\PSoC4/cyCapsense_Structure.c **** 
 377:Generated_Source\PSoC4/cyCapsense_Structure.c ****     #if (0u != cyCapsense_SELF_TEST_EN)
 378:Generated_Source\PSoC4/cyCapsense_Structure.c ****         cyCapsense_dsRam.glbCrc = cyCapsense_GLB_CRC;
 379:Generated_Source\PSoC4/cyCapsense_Structure.c ****     #endif /* #if (0u != cyCapsense_SELF_TEST_EN) */
 380:Generated_Source\PSoC4/cyCapsense_Structure.c **** 
 381:Generated_Source\PSoC4/cyCapsense_Structure.c ****     /* Initialize RAM widget data */
 382:Generated_Source\PSoC4/cyCapsense_Structure.c ****     cyCapsense_dsRam.wdgtList = cyCapsense_ramWidgetInit;
 383:Generated_Source\PSoC4/cyCapsense_Structure.c **** 
 384:Generated_Source\PSoC4/cyCapsense_Structure.c ****     /* Initialize Gesture configuration structure */
 385:Generated_Source\PSoC4/cyCapsense_Structure.c ****     #if ((0u != cyCapsense_GES_GLOBAL_EN) || (0u != cyCapsense_BALLISTIC_MULTIPLIER_EN))
 386:Generated_Source\PSoC4/cyCapsense_Structure.c ****         cyCapsense_dsRam.timestampInterval = cyCapsense_TIMESTAMP_INTERVAL;
 387:Generated_Source\PSoC4/cyCapsense_Structure.c ****     #endif /* ((0u != cyCapsense_GES_GLOBAL_EN) || (0u != cyCapsense_BALLISTIC_MULTIPLIER_EN)) */
 388:Generated_Source\PSoC4/cyCapsense_Structure.c ****         
 389:Generated_Source\PSoC4/cyCapsense_Structure.c ****     #if (0u != cyCapsense_GES_GLOBAL_EN)
 390:Generated_Source\PSoC4/cyCapsense_Structure.c ****         cyCapsense_dsRam.gestures = cyCapsense_ramGesturesInit;
 391:Generated_Source\PSoC4/cyCapsense_Structure.c ****     #endif /* (0u != cyCapsense_GES_GLOBAL_EN) */
 392:Generated_Source\PSoC4/cyCapsense_Structure.c **** 
 393:Generated_Source\PSoC4/cyCapsense_Structure.c ****     #if (0u != cyCapsense_BALLISTIC_MULTIPLIER_EN)
 394:Generated_Source\PSoC4/cyCapsense_Structure.c ****         cyCapsense_dsRam.ballisticConfig = cyCapsense_ramBallisticInit;
 395:Generated_Source\PSoC4/cyCapsense_Structure.c ****     #endif /* (0u != cyCapsense_BALLISTIC_MULTIPLIER_EN) */
 396:Generated_Source\PSoC4/cyCapsense_Structure.c **** 
 397:Generated_Source\PSoC4/cyCapsense_Structure.c ****     #if (0u != cyCapsense_CSX_EN) || (0 != cyCapsense_CSD_IDAC_COMP_EN)
 398:Generated_Source\PSoC4/cyCapsense_Structure.c ****         /* Initialize IDAC data */
 399:Generated_Source\PSoC4/cyCapsense_Structure.c ****         ptrFlashWdgt = cyCapsense_dsFlash.wdgtArray;
 400:Generated_Source\PSoC4/cyCapsense_Structure.c **** 
 401:Generated_Source\PSoC4/cyCapsense_Structure.c ****         for (wdgtId = cyCapsense_TOTAL_WIDGETS; wdgtId-- > 0u; )
 402:Generated_Source\PSoC4/cyCapsense_Structure.c ****         {
 403:Generated_Source\PSoC4/cyCapsense_Structure.c ****             ptrSnsTmp = ptrFlashWdgt->ptr2SnsRam;
 404:Generated_Source\PSoC4/cyCapsense_Structure.c **** 
 405:Generated_Source\PSoC4/cyCapsense_Structure.c ****             for (snsId = cyCapsense_GET_SNS_CNT_BY_PTR(ptrFlashWdgt); snsId-- > 0u;)
 406:Generated_Source\PSoC4/cyCapsense_Structure.c ****             {
 407:Generated_Source\PSoC4/cyCapsense_Structure.c ****                 ptrSnsTmp->idacComp[0u] = *ptrIdacInit;
 408:Generated_Source\PSoC4/cyCapsense_Structure.c ****                 ptrIdacInit++;
 409:Generated_Source\PSoC4/cyCapsense_Structure.c **** 
 410:Generated_Source\PSoC4/cyCapsense_Structure.c ****                 #if (0u != cyCapsense_MULTI_FREQ_SCAN_EN)
 411:Generated_Source\PSoC4/cyCapsense_Structure.c ****                     ptrSnsTmp->idacComp[1u] = *ptrIdacInit;
 412:Generated_Source\PSoC4/cyCapsense_Structure.c ****                     ptrIdacInit++;
 413:Generated_Source\PSoC4/cyCapsense_Structure.c **** 
 414:Generated_Source\PSoC4/cyCapsense_Structure.c ****                     ptrSnsTmp->idacComp[2u] = *ptrIdacInit;
 415:Generated_Source\PSoC4/cyCapsense_Structure.c ****                     ptrIdacInit++;
 416:Generated_Source\PSoC4/cyCapsense_Structure.c ****                 #endif /* #if (0u != cyCapsense_MULTI_FREQ_SCAN_EN) */
 417:Generated_Source\PSoC4/cyCapsense_Structure.c **** 
 418:Generated_Source\PSoC4/cyCapsense_Structure.c ****                 ptrSnsTmp++;
 419:Generated_Source\PSoC4/cyCapsense_Structure.c ****             }
 420:Generated_Source\PSoC4/cyCapsense_Structure.c **** 
 421:Generated_Source\PSoC4/cyCapsense_Structure.c ****             ptrFlashWdgt++; /* Move to next widget */
 422:Generated_Source\PSoC4/cyCapsense_Structure.c ****         }
 423:Generated_Source\PSoC4/cyCapsense_Structure.c ****     #endif /*(0u != cyCapsense_CSX_EN) || (0 != cyCapsense_CSD_IDAC_COMP_EN)*/
 424:Generated_Source\PSoC4/cyCapsense_Structure.c **** 
 425:Generated_Source\PSoC4/cyCapsense_Structure.c ****     #if ((cyCapsense_ENABLE == cyCapsense_CSX_EN) && \
 426:Generated_Source\PSoC4/cyCapsense_Structure.c ****          (cyCapsense_ENABLE == cyCapsense_CSX_SKIP_OVSMPL_SPECIFIC_NODES))
 427:Generated_Source\PSoC4/cyCapsense_Structure.c ****         /* Initialize Sub-Conversion Number for each node of each CSX widget */
 428:Generated_Source\PSoC4/cyCapsense_Structure.c ****         ptrFlashWdgt = cyCapsense_dsFlash.wdgtArray;
 429:Generated_Source\PSoC4/cyCapsense_Structure.c ****         for (wdgtId = cyCapsense_TOTAL_WIDGETS; wdgtId-- > 0u;)
 430:Generated_Source\PSoC4/cyCapsense_Structure.c ****         {
ARM GAS  C:\Users\turan\AppData\Local\Temp\ccoYfjx5.s 			page 9


 431:Generated_Source\PSoC4/cyCapsense_Structure.c ****             /* Check for widget sense method */
 432:Generated_Source\PSoC4/cyCapsense_Structure.c ****             if (cyCapsense_SENSE_METHOD_CSX_E == cyCapsense_GET_SENSE_METHOD(ptrFlashWdgt))
 433:Generated_Source\PSoC4/cyCapsense_Structure.c ****             {
 434:Generated_Source\PSoC4/cyCapsense_Structure.c ****                 /* Take the sub-convesion number of a CSX widget and initialize each node of this w
 435:Generated_Source\PSoC4/cyCapsense_Structure.c ****                 subConvNumber = ((cyCapsense_RAM_WD_BASE_STRUCT *)(ptrFlashWdgt->ptr2WdgtRam))->res
 436:Generated_Source\PSoC4/cyCapsense_Structure.c ****                 ptrSnsTmp = ptrFlashWdgt->ptr2SnsRam;
 437:Generated_Source\PSoC4/cyCapsense_Structure.c ****                 for (snsId = cyCapsense_GET_SNS_CNT_BY_PTR(ptrFlashWdgt); snsId-- > 0u;)
 438:Generated_Source\PSoC4/cyCapsense_Structure.c ****                 {
 439:Generated_Source\PSoC4/cyCapsense_Structure.c ****                     ptrSnsTmp->subConvNum = subConvNumber;
 440:Generated_Source\PSoC4/cyCapsense_Structure.c ****                     ptrSnsTmp++;
 441:Generated_Source\PSoC4/cyCapsense_Structure.c ****                 }
 442:Generated_Source\PSoC4/cyCapsense_Structure.c ****             }
 443:Generated_Source\PSoC4/cyCapsense_Structure.c ****             /* Move to the next widget */
 444:Generated_Source\PSoC4/cyCapsense_Structure.c ****             ptrFlashWdgt++;
 445:Generated_Source\PSoC4/cyCapsense_Structure.c ****         }
 446:Generated_Source\PSoC4/cyCapsense_Structure.c ****     #endif /* ((cyCapsense_ENABLE == cyCapsense_CSX_EN) && \
 447:Generated_Source\PSoC4/cyCapsense_Structure.c ****                (cyCapsense_ENABLE == cyCapsense_CSX_SKIP_OVSMPL_SPECIFIC_NODES)) */
 448:Generated_Source\PSoC4/cyCapsense_Structure.c **** 
 449:Generated_Source\PSoC4/cyCapsense_Structure.c ****     #if (0u != cyCapsense_ADC_EN)
 450:Generated_Source\PSoC4/cyCapsense_Structure.c ****         cyCapsense_AdcDsInitialize();
 451:Generated_Source\PSoC4/cyCapsense_Structure.c ****     #endif /* (0u != cyCapsense_ADC_EN) */
 452:Generated_Source\PSoC4/cyCapsense_Structure.c **** }
 453:Generated_Source\PSoC4/cyCapsense_Structure.c **** 
 454:Generated_Source\PSoC4/cyCapsense_Structure.c **** 
 455:Generated_Source\PSoC4/cyCapsense_Structure.c **** #if (0u != cyCapsense_ADC_EN)
 456:Generated_Source\PSoC4/cyCapsense_Structure.c ****     /*******************************************************************************
 457:Generated_Source\PSoC4/cyCapsense_Structure.c ****     * Function Name: cyCapsense_AdcDsInitialize
 458:Generated_Source\PSoC4/cyCapsense_Structure.c ****     ****************************************************************************//**
 459:Generated_Source\PSoC4/cyCapsense_Structure.c ****     *
 460:Generated_Source\PSoC4/cyCapsense_Structure.c ****     * \brief
 461:Generated_Source\PSoC4/cyCapsense_Structure.c ****     *   Configures the initial Adc datastructure members.
 462:Generated_Source\PSoC4/cyCapsense_Structure.c ****     *
 463:Generated_Source\PSoC4/cyCapsense_Structure.c ****     *******************************************************************************/
 464:Generated_Source\PSoC4/cyCapsense_Structure.c ****     void cyCapsense_AdcDsInitialize(void)
 465:Generated_Source\PSoC4/cyCapsense_Structure.c ****     {
 466:Generated_Source\PSoC4/cyCapsense_Structure.c ****         cyCapsense_dsRam.adcResolution = cyCapsense_ADC_RESOLUTION;
 467:Generated_Source\PSoC4/cyCapsense_Structure.c ****         cyCapsense_dsRam.adcIdac = (uint8)(cyCapsense_ADC_IDAC_DEFAULT);
 468:Generated_Source\PSoC4/cyCapsense_Structure.c ****         cyCapsense_dsRam.adcActiveCh = cyCapsense_AdcNO_CHANNEL;
 469:Generated_Source\PSoC4/cyCapsense_Structure.c ****     }
 470:Generated_Source\PSoC4/cyCapsense_Structure.c **** #endif /* (0u != cyCapsense_ADC_EN) */
 471:Generated_Source\PSoC4/cyCapsense_Structure.c **** 
 472:Generated_Source\PSoC4/cyCapsense_Structure.c **** 
 473:Generated_Source\PSoC4/cyCapsense_Structure.c **** /*******************************************************************************
 474:Generated_Source\PSoC4/cyCapsense_Structure.c **** * Function Name: DsParseParamId
 475:Generated_Source\PSoC4/cyCapsense_Structure.c **** ****************************************************************************//**
 476:Generated_Source\PSoC4/cyCapsense_Structure.c **** *
 477:Generated_Source\PSoC4/cyCapsense_Structure.c **** * \brief
 478:Generated_Source\PSoC4/cyCapsense_Structure.c **** *   This function parses the parameter ID and checks its correctness.
 479:Generated_Source\PSoC4/cyCapsense_Structure.c **** *
 480:Generated_Source\PSoC4/cyCapsense_Structure.c **** * \details
 481:Generated_Source\PSoC4/cyCapsense_Structure.c **** *   This function checks the parameter CRC if the self-test is enabled,
 482:Generated_Source\PSoC4/cyCapsense_Structure.c **** *   validates the offset value and parameter type.
 483:Generated_Source\PSoC4/cyCapsense_Structure.c **** *
 484:Generated_Source\PSoC4/cyCapsense_Structure.c **** * \param paramId The parameter to parse.
 485:Generated_Source\PSoC4/cyCapsense_Structure.c **** * \param pData   The pointer to the structure that will hold parsed data.
 486:Generated_Source\PSoC4/cyCapsense_Structure.c **** *
 487:Generated_Source\PSoC4/cyCapsense_Structure.c **** * \return CYRET_SUCCESS     If the parameter is valid
ARM GAS  C:\Users\turan\AppData\Local\Temp\ccoYfjx5.s 			page 10


 488:Generated_Source\PSoC4/cyCapsense_Structure.c **** *         CYRET_BAD_PARAM   If the parameter is invalid
 489:Generated_Source\PSoC4/cyCapsense_Structure.c **** *
 490:Generated_Source\PSoC4/cyCapsense_Structure.c **** *******************************************************************************/
 491:Generated_Source\PSoC4/cyCapsense_Structure.c **** static cystatus DsParseParamId(uint32 paramId, PARAM_ID_STRUCT *pData)
 492:Generated_Source\PSoC4/cyCapsense_Structure.c **** {
  27              		.loc 1 492 0
  28              		.cfi_startproc
  29              		@ args = 0, pretend = 0, frame = 0
  30              		@ frame_needed = 0, uses_anonymous_args = 0
  31              	.LVL0:
  32 0000 70B5     		push	{r4, r5, r6, lr}
  33              		.cfi_def_cfa_offset 16
  34              		.cfi_offset 4, -16
  35              		.cfi_offset 5, -12
  36              		.cfi_offset 6, -8
  37              		.cfi_offset 14, -4
  38              	.LVL1:
 493:Generated_Source\PSoC4/cyCapsense_Structure.c ****     cystatus result = CYRET_SUCCESS;
 494:Generated_Source\PSoC4/cyCapsense_Structure.c **** 
 495:Generated_Source\PSoC4/cyCapsense_Structure.c ****     #if (0u != cyCapsense_SELF_TEST_EN)
 496:Generated_Source\PSoC4/cyCapsense_Structure.c ****         const uint8 crcTable[] =
 497:Generated_Source\PSoC4/cyCapsense_Structure.c ****         {
 498:Generated_Source\PSoC4/cyCapsense_Structure.c ****             0x00u, 0x09u, 0x0Bu, 0x02u, 0x0Fu, 0x06u, 0x04u, 0x0Du,
 499:Generated_Source\PSoC4/cyCapsense_Structure.c ****             0x07u, 0x0Eu, 0x0Cu, 0x05u, 0x08u, 0x01u, 0x03u, 0x0Au
 500:Generated_Source\PSoC4/cyCapsense_Structure.c ****         };
 501:Generated_Source\PSoC4/cyCapsense_Structure.c **** 
 502:Generated_Source\PSoC4/cyCapsense_Structure.c ****         uint32 i;
 503:Generated_Source\PSoC4/cyCapsense_Structure.c ****         uint32 actualCrc = 0u;
 504:Generated_Source\PSoC4/cyCapsense_Structure.c ****         uint32 crcIndex;
 505:Generated_Source\PSoC4/cyCapsense_Structure.c ****     #endif /* #if (0u != cyCapsense_SELF_TEST_EN) */
 506:Generated_Source\PSoC4/cyCapsense_Structure.c **** 
 507:Generated_Source\PSoC4/cyCapsense_Structure.c ****     /* Extract parameter data */
 508:Generated_Source\PSoC4/cyCapsense_Structure.c ****     pData->offset     = LO16(paramId);
  39              		.loc 1 508 0
  40 0002 85B2     		uxth	r5, r0
  41 0004 0D80     		strh	r5, [r1]
 509:Generated_Source\PSoC4/cyCapsense_Structure.c ****     pData->affectsCrc = LO8((paramId & PARAM_UBIT_MASK)  >> PARAM_UBIT_OFFSET);
  42              		.loc 1 509 0
  43 0006 C30D     		lsrs	r3, r0, #23
  44 0008 0124     		movs	r4, #1
  45 000a 2340     		ands	r3, r4
  46 000c CB70     		strb	r3, [r1, #3]
 510:Generated_Source\PSoC4/cyCapsense_Structure.c ****     pData->widgetId   = LO8((paramId & PARAM_WDID_MASK)  >> PARAM_WDID_OFFSET);
  47              		.loc 1 510 0
  48 000e 030C     		lsrs	r3, r0, #16
  49 0010 7F22     		movs	r2, #127
  50 0012 1340     		ands	r3, r2
  51 0014 8B70     		strb	r3, [r1, #2]
 511:Generated_Source\PSoC4/cyCapsense_Structure.c ****     pData->type       = LO8((paramId & PARAM_TYPE_MASK)  >> PARAM_TYPE_OFFSET);
  52              		.loc 1 511 0
  53 0016 860F     		lsrs	r6, r0, #30
  54 0018 CE71     		strb	r6, [r1, #7]
 512:Generated_Source\PSoC4/cyCapsense_Structure.c ****     pData->flash      = LO8((paramId & PARAM_FBIT_MASK)  >> PARAM_FBIT_OFFSET);
  55              		.loc 1 512 0
  56 001a 030F     		lsrs	r3, r0, #28
  57 001c 2340     		ands	r3, r4
  58 001e 4B71     		strb	r3, [r1, #5]
ARM GAS  C:\Users\turan\AppData\Local\Temp\ccoYfjx5.s 			page 11


 513:Generated_Source\PSoC4/cyCapsense_Structure.c ****     pData->rw         = LO8((paramId & PARAM_RWBIT_MASK) >> PARAM_RWBIT_OFFSET);
  59              		.loc 1 513 0
  60 0020 420F     		lsrs	r2, r0, #29
  61 0022 2240     		ands	r2, r4
  62 0024 8A71     		strb	r2, [r1, #6]
 514:Generated_Source\PSoC4/cyCapsense_Structure.c ****     pData->crc        = LO8((paramId & PARAM_CRC_MASK)   >> PARAM_CRC_OFFSET);
  63              		.loc 1 514 0
  64 0026 000E     		lsrs	r0, r0, #24
  65              	.LVL2:
  66 0028 0E34     		adds	r4, r4, #14
  67 002a 2040     		ands	r0, r4
  68 002c 0871     		strb	r0, [r1, #4]
 515:Generated_Source\PSoC4/cyCapsense_Structure.c **** 
 516:Generated_Source\PSoC4/cyCapsense_Structure.c ****     /* Check parameter CRC if self-test is enabled */
 517:Generated_Source\PSoC4/cyCapsense_Structure.c ****     #if (0u != cyCapsense_SELF_TEST_EN)
 518:Generated_Source\PSoC4/cyCapsense_Structure.c **** 
 519:Generated_Source\PSoC4/cyCapsense_Structure.c ****         /* Calculate CRC for bits 0..24.
 520:Generated_Source\PSoC4/cyCapsense_Structure.c ****          * The CRC is calculated using nibbles (4-bits).
 521:Generated_Source\PSoC4/cyCapsense_Structure.c ****          * So for 0..24 bits there are in total 6 nibbles. */
 522:Generated_Source\PSoC4/cyCapsense_Structure.c ****         for (i = 6u; i > 0u; i--)
 523:Generated_Source\PSoC4/cyCapsense_Structure.c ****         {
 524:Generated_Source\PSoC4/cyCapsense_Structure.c ****             crcIndex = actualCrc ^ (paramId & 0x0Fu);
 525:Generated_Source\PSoC4/cyCapsense_Structure.c ****             actualCrc = crcTable[crcIndex];
 526:Generated_Source\PSoC4/cyCapsense_Structure.c ****             paramId >>= 4u;
 527:Generated_Source\PSoC4/cyCapsense_Structure.c ****         }
 528:Generated_Source\PSoC4/cyCapsense_Structure.c **** 
 529:Generated_Source\PSoC4/cyCapsense_Structure.c ****         /* Add bits 28..32 */
 530:Generated_Source\PSoC4/cyCapsense_Structure.c ****         crcIndex = actualCrc ^ ((paramId >> 4u) & 0x0Fu);
 531:Generated_Source\PSoC4/cyCapsense_Structure.c ****         actualCrc = crcTable[crcIndex];
 532:Generated_Source\PSoC4/cyCapsense_Structure.c **** 
 533:Generated_Source\PSoC4/cyCapsense_Structure.c ****         /* Add bits 24..28 (CRC) */
 534:Generated_Source\PSoC4/cyCapsense_Structure.c ****         crcIndex = actualCrc ^ (paramId & 0x0Fu);
 535:Generated_Source\PSoC4/cyCapsense_Structure.c ****         actualCrc = crcTable[crcIndex];
 536:Generated_Source\PSoC4/cyCapsense_Structure.c **** 
 537:Generated_Source\PSoC4/cyCapsense_Structure.c ****         if (0u != actualCrc)
 538:Generated_Source\PSoC4/cyCapsense_Structure.c ****         {
 539:Generated_Source\PSoC4/cyCapsense_Structure.c ****             /* CRC mismatch */
 540:Generated_Source\PSoC4/cyCapsense_Structure.c ****             result = CYRET_BAD_PARAM;
 541:Generated_Source\PSoC4/cyCapsense_Structure.c ****         }
 542:Generated_Source\PSoC4/cyCapsense_Structure.c **** 
 543:Generated_Source\PSoC4/cyCapsense_Structure.c ****         if ((CYRET_SUCCESS == result) &&
 544:Generated_Source\PSoC4/cyCapsense_Structure.c ****             (0u != pData->affectsCrc) && (pData->widgetId >= cyCapsense_TOTAL_WIDGETS ))
 545:Generated_Source\PSoC4/cyCapsense_Structure.c ****         {
 546:Generated_Source\PSoC4/cyCapsense_Structure.c ****             /* Wrong widgetId for protected parameter */
 547:Generated_Source\PSoC4/cyCapsense_Structure.c ****             result = CYRET_BAD_PARAM;
 548:Generated_Source\PSoC4/cyCapsense_Structure.c ****         }
 549:Generated_Source\PSoC4/cyCapsense_Structure.c **** 
 550:Generated_Source\PSoC4/cyCapsense_Structure.c ****         /* Check offset value range */
 551:Generated_Source\PSoC4/cyCapsense_Structure.c ****         if (CYRET_SUCCESS == result)
 552:Generated_Source\PSoC4/cyCapsense_Structure.c ****         {
 553:Generated_Source\PSoC4/cyCapsense_Structure.c ****             if (0u == pData->flash)
 554:Generated_Source\PSoC4/cyCapsense_Structure.c ****             {
 555:Generated_Source\PSoC4/cyCapsense_Structure.c ****                 /* Check offset for RAM Data Structure range */
 556:Generated_Source\PSoC4/cyCapsense_Structure.c ****                 if (pData->offset >= sizeof(cyCapsense_dsRam))
 557:Generated_Source\PSoC4/cyCapsense_Structure.c ****                 {
 558:Generated_Source\PSoC4/cyCapsense_Structure.c ****                     result = CYRET_BAD_PARAM;
 559:Generated_Source\PSoC4/cyCapsense_Structure.c ****                 }
ARM GAS  C:\Users\turan\AppData\Local\Temp\ccoYfjx5.s 			page 12


 560:Generated_Source\PSoC4/cyCapsense_Structure.c ****             }
 561:Generated_Source\PSoC4/cyCapsense_Structure.c ****             else
 562:Generated_Source\PSoC4/cyCapsense_Structure.c ****             {
 563:Generated_Source\PSoC4/cyCapsense_Structure.c ****                 /* Check offset for Flash Data Structure range */
 564:Generated_Source\PSoC4/cyCapsense_Structure.c ****                 if (pData->offset >= sizeof(cyCapsense_dsFlash))
 565:Generated_Source\PSoC4/cyCapsense_Structure.c ****                 {
 566:Generated_Source\PSoC4/cyCapsense_Structure.c ****                     result = CYRET_BAD_PARAM;
 567:Generated_Source\PSoC4/cyCapsense_Structure.c ****                 }
 568:Generated_Source\PSoC4/cyCapsense_Structure.c **** 
 569:Generated_Source\PSoC4/cyCapsense_Structure.c ****                 /* Check if it is marked as Read Only */
 570:Generated_Source\PSoC4/cyCapsense_Structure.c ****                 if (0u != pData->rw)
 571:Generated_Source\PSoC4/cyCapsense_Structure.c ****                 {
 572:Generated_Source\PSoC4/cyCapsense_Structure.c ****                     result = CYRET_BAD_PARAM;
 573:Generated_Source\PSoC4/cyCapsense_Structure.c ****                 }
 574:Generated_Source\PSoC4/cyCapsense_Structure.c ****             }
 575:Generated_Source\PSoC4/cyCapsense_Structure.c ****         }
 576:Generated_Source\PSoC4/cyCapsense_Structure.c ****     #else /* #if (0u != cyCapsense_SELF_TEST_EN) */
 577:Generated_Source\PSoC4/cyCapsense_Structure.c ****         /* Check offset value range */
 578:Generated_Source\PSoC4/cyCapsense_Structure.c ****         if (0u == pData->flash)
  69              		.loc 1 578 0
  70 002e 002B     		cmp	r3, #0
  71 0030 03D1     		bne	.L2
 579:Generated_Source\PSoC4/cyCapsense_Structure.c ****         {
 580:Generated_Source\PSoC4/cyCapsense_Structure.c ****             /* Check offset for RAM Data Structure range */
 581:Generated_Source\PSoC4/cyCapsense_Structure.c ****             if (pData->offset >= sizeof(cyCapsense_dsRam))
  72              		.loc 1 581 0
  73 0032 7B2D     		cmp	r5, #123
  74 0034 09D8     		bhi	.L9
 493:Generated_Source\PSoC4/cyCapsense_Structure.c **** 
  75              		.loc 1 493 0
  76 0036 0020     		movs	r0, #0
  77 0038 0AE0     		b	.L3
  78              	.L2:
 582:Generated_Source\PSoC4/cyCapsense_Structure.c ****             {
 583:Generated_Source\PSoC4/cyCapsense_Structure.c ****                 result = CYRET_BAD_PARAM;
 584:Generated_Source\PSoC4/cyCapsense_Structure.c ****             }
 585:Generated_Source\PSoC4/cyCapsense_Structure.c ****         }
 586:Generated_Source\PSoC4/cyCapsense_Structure.c ****         else
 587:Generated_Source\PSoC4/cyCapsense_Structure.c ****         {
 588:Generated_Source\PSoC4/cyCapsense_Structure.c ****             /* Check offset for Flash Data Structure range */
 589:Generated_Source\PSoC4/cyCapsense_Structure.c ****             if (pData->offset >= sizeof(cyCapsense_dsFlash))
  79              		.loc 1 589 0
  80 003a 5F2D     		cmp	r5, #95
  81 003c 01D8     		bhi	.L10
 493:Generated_Source\PSoC4/cyCapsense_Structure.c **** 
  82              		.loc 1 493 0
  83 003e 0020     		movs	r0, #0
  84 0040 00E0     		b	.L4
  85              	.L10:
 590:Generated_Source\PSoC4/cyCapsense_Structure.c ****             {
 591:Generated_Source\PSoC4/cyCapsense_Structure.c ****                 result = CYRET_BAD_PARAM;
  86              		.loc 1 591 0
  87 0042 0120     		movs	r0, #1
  88              	.L4:
  89              	.LVL3:
 592:Generated_Source\PSoC4/cyCapsense_Structure.c ****             }
 593:Generated_Source\PSoC4/cyCapsense_Structure.c **** 
ARM GAS  C:\Users\turan\AppData\Local\Temp\ccoYfjx5.s 			page 13


 594:Generated_Source\PSoC4/cyCapsense_Structure.c ****             /* Check if it is marked as Read Only */
 595:Generated_Source\PSoC4/cyCapsense_Structure.c ****             if (0u != pData->rw)
  90              		.loc 1 595 0
  91 0044 002A     		cmp	r2, #0
  92 0046 02D1     		bne	.L11
  93 0048 02E0     		b	.L3
  94              	.LVL4:
  95              	.L9:
 583:Generated_Source\PSoC4/cyCapsense_Structure.c ****             }
  96              		.loc 1 583 0
  97 004a 0120     		movs	r0, #1
  98 004c 00E0     		b	.L3
  99              	.LVL5:
 100              	.L11:
 596:Generated_Source\PSoC4/cyCapsense_Structure.c ****             {
 597:Generated_Source\PSoC4/cyCapsense_Structure.c ****                 result = CYRET_BAD_PARAM;
 101              		.loc 1 597 0
 102 004e 0120     		movs	r0, #1
 103              	.LVL6:
 104              	.L3:
 598:Generated_Source\PSoC4/cyCapsense_Structure.c ****             }
 599:Generated_Source\PSoC4/cyCapsense_Structure.c ****         }
 600:Generated_Source\PSoC4/cyCapsense_Structure.c ****     #endif /* #if (0u != cyCapsense_SELF_TEST_EN) */
 601:Generated_Source\PSoC4/cyCapsense_Structure.c **** 
 602:Generated_Source\PSoC4/cyCapsense_Structure.c ****     if (CYRET_SUCCESS == result)
 105              		.loc 1 602 0
 106 0050 0028     		cmp	r0, #0
 107 0052 11D1     		bne	.L5
 603:Generated_Source\PSoC4/cyCapsense_Structure.c ****     {
 604:Generated_Source\PSoC4/cyCapsense_Structure.c ****         /* Check parameter type, offset alignment */
 605:Generated_Source\PSoC4/cyCapsense_Structure.c ****         switch (pData->type)
 108              		.loc 1 605 0
 109 0054 022E     		cmp	r6, #2
 110 0056 04D0     		beq	.L6
 111 0058 032E     		cmp	r6, #3
 112 005a 05D0     		beq	.L7
 113 005c 012E     		cmp	r6, #1
 114 005e 06D1     		bne	.L15
 115 0060 0AE0     		b	.L5
 116              	.L6:
 606:Generated_Source\PSoC4/cyCapsense_Structure.c ****         {
 607:Generated_Source\PSoC4/cyCapsense_Structure.c ****         case DS_PARAM_TYPE_UINT16:
 608:Generated_Source\PSoC4/cyCapsense_Structure.c ****             if (0u != (pData->offset & UINT16_ALIGN_MASK))
 117              		.loc 1 608 0
 118 0062 EB07     		lsls	r3, r5, #31
 119 0064 05D4     		bmi	.L13
 120 0066 07E0     		b	.L5
 121              	.L7:
 609:Generated_Source\PSoC4/cyCapsense_Structure.c ****             {
 610:Generated_Source\PSoC4/cyCapsense_Structure.c ****                 result = CYRET_BAD_PARAM;
 611:Generated_Source\PSoC4/cyCapsense_Structure.c ****             }
 612:Generated_Source\PSoC4/cyCapsense_Structure.c ****             break;
 613:Generated_Source\PSoC4/cyCapsense_Structure.c **** 
 614:Generated_Source\PSoC4/cyCapsense_Structure.c ****         case DS_PARAM_TYPE_UINT32:
 615:Generated_Source\PSoC4/cyCapsense_Structure.c ****             if (0u != (pData->offset & UINT32_ALIGN_MASK))
 122              		.loc 1 615 0
 123 0068 AB07     		lsls	r3, r5, #30
ARM GAS  C:\Users\turan\AppData\Local\Temp\ccoYfjx5.s 			page 14


 124 006a 04D1     		bne	.L14
 125 006c 04E0     		b	.L5
 126              	.L15:
 616:Generated_Source\PSoC4/cyCapsense_Structure.c ****             {
 617:Generated_Source\PSoC4/cyCapsense_Structure.c ****                 result = CYRET_BAD_PARAM;
 618:Generated_Source\PSoC4/cyCapsense_Structure.c ****             }
 619:Generated_Source\PSoC4/cyCapsense_Structure.c ****             break;
 620:Generated_Source\PSoC4/cyCapsense_Structure.c **** 
 621:Generated_Source\PSoC4/cyCapsense_Structure.c ****         case DS_PARAM_TYPE_UINT8:
 622:Generated_Source\PSoC4/cyCapsense_Structure.c ****             break;
 623:Generated_Source\PSoC4/cyCapsense_Structure.c **** 
 624:Generated_Source\PSoC4/cyCapsense_Structure.c ****         default:
 625:Generated_Source\PSoC4/cyCapsense_Structure.c ****             result = CYRET_BAD_PARAM;
 127              		.loc 1 625 0
 128 006e 0120     		movs	r0, #1
 129              	.LVL7:
 130 0070 02E0     		b	.L5
 131              	.LVL8:
 132              	.L13:
 610:Generated_Source\PSoC4/cyCapsense_Structure.c ****             }
 133              		.loc 1 610 0
 134 0072 0120     		movs	r0, #1
 135              	.LVL9:
 136 0074 00E0     		b	.L5
 137              	.LVL10:
 138              	.L14:
 617:Generated_Source\PSoC4/cyCapsense_Structure.c ****             }
 139              		.loc 1 617 0
 140 0076 0120     		movs	r0, #1
 141              	.LVL11:
 142              	.L5:
 626:Generated_Source\PSoC4/cyCapsense_Structure.c ****             break;
 627:Generated_Source\PSoC4/cyCapsense_Structure.c ****         }
 628:Generated_Source\PSoC4/cyCapsense_Structure.c ****     }
 629:Generated_Source\PSoC4/cyCapsense_Structure.c **** 
 630:Generated_Source\PSoC4/cyCapsense_Structure.c ****     return result;
 631:Generated_Source\PSoC4/cyCapsense_Structure.c **** }
 143              		.loc 1 631 0
 144              		@ sp needed
 145 0078 70BD     		pop	{r4, r5, r6, pc}
 146              		.cfi_endproc
 147              	.LFE2:
 148              		.size	DsParseParamId, .-DsParseParamId
 149 007a C046     		.section	.text.cyCapsense_DsInitialize,"ax",%progbits
 150              		.align	2
 151              		.global	cyCapsense_DsInitialize
 152              		.code	16
 153              		.thumb_func
 154              		.type	cyCapsense_DsInitialize, %function
 155              	cyCapsense_DsInitialize:
 156              	.LFB1:
 326:Generated_Source\PSoC4/cyCapsense_Structure.c ****     #if ((cyCapsense_ENABLE == cyCapsense_CSX_EN) || \
 157              		.loc 1 326 0
 158              		.cfi_startproc
 159              		@ args = 0, pretend = 0, frame = 0
 160              		@ frame_needed = 0, uses_anonymous_args = 0
 161 0000 10B5     		push	{r4, lr}
ARM GAS  C:\Users\turan\AppData\Local\Temp\ccoYfjx5.s 			page 15


 162              		.cfi_def_cfa_offset 8
 163              		.cfi_offset 4, -8
 164              		.cfi_offset 14, -4
 347:Generated_Source\PSoC4/cyCapsense_Structure.c **** 
 165              		.loc 1 347 0
 166 0002 0B4C     		ldr	r4, .L17
 167 0004 7C22     		movs	r2, #124
 168 0006 0021     		movs	r1, #0
 169 0008 2000     		movs	r0, r4
 170 000a FFF7FEFF 		bl	memset
 171              	.LVL12:
 350:Generated_Source\PSoC4/cyCapsense_Structure.c ****     cyCapsense_dsRam.deviceId = cyCapsense_DEVICE_ID;
 172              		.loc 1 350 0
 173 000e 094B     		ldr	r3, .L17+4
 174 0010 2380     		strh	r3, [r4]
 351:Generated_Source\PSoC4/cyCapsense_Structure.c ****     cyCapsense_dsRam.hwClock = cyCapsense_HW_CLOCK;
 175              		.loc 1 351 0
 176 0012 8023     		movs	r3, #128
 177 0014 1B01     		lsls	r3, r3, #4
 178 0016 6380     		strh	r3, [r4, #2]
 352:Generated_Source\PSoC4/cyCapsense_Structure.c **** 
 179              		.loc 1 352 0
 180 0018 074B     		ldr	r3, .L17+8
 181 001a A380     		strh	r3, [r4, #4]
 358:Generated_Source\PSoC4/cyCapsense_Structure.c **** 
 182              		.loc 1 358 0
 183 001c 0223     		movs	r3, #2
 184 001e A377     		strb	r3, [r4, #30]
 382:Generated_Source\PSoC4/cyCapsense_Structure.c **** 
 185              		.loc 1 382 0
 186 0020 2000     		movs	r0, r4
 187 0022 2030     		adds	r0, r0, #32
 188 0024 3622     		movs	r2, #54
 189 0026 0549     		ldr	r1, .L17+12
 190 0028 FFF7FEFF 		bl	memcpy
 191              	.LVL13:
 452:Generated_Source\PSoC4/cyCapsense_Structure.c **** 
 192              		.loc 1 452 0
 193              		@ sp needed
 194 002c 10BD     		pop	{r4, pc}
 195              	.L18:
 196 002e C046     		.align	2
 197              	.L17:
 198 0030 00000000 		.word	cyCapsense_dsRam
 199 0034 448CFFFF 		.word	-29628
 200 0038 70170000 		.word	6000
 201 003c 00000000 		.word	.LANCHOR0
 202              		.cfi_endproc
 203              	.LFE1:
 204              		.size	cyCapsense_DsInitialize, .-cyCapsense_DsInitialize
 205              		.section	.text.cyCapsense_GetParam,"ax",%progbits
 206              		.align	2
 207              		.global	cyCapsense_GetParam
 208              		.code	16
 209              		.thumb_func
 210              		.type	cyCapsense_GetParam, %function
 211              	cyCapsense_GetParam:
ARM GAS  C:\Users\turan\AppData\Local\Temp\ccoYfjx5.s 			page 16


 212              	.LFB3:
 632:Generated_Source\PSoC4/cyCapsense_Structure.c **** 
 633:Generated_Source\PSoC4/cyCapsense_Structure.c **** /*******************************************************************************
 634:Generated_Source\PSoC4/cyCapsense_Structure.c **** * Function Name: cyCapsense_GetParam
 635:Generated_Source\PSoC4/cyCapsense_Structure.c **** ****************************************************************************//**
 636:Generated_Source\PSoC4/cyCapsense_Structure.c **** *
 637:Generated_Source\PSoC4/cyCapsense_Structure.c **** * \brief
 638:Generated_Source\PSoC4/cyCapsense_Structure.c **** *  Gets the specified parameter value from the \ref group_structures.
 639:Generated_Source\PSoC4/cyCapsense_Structure.c **** *
 640:Generated_Source\PSoC4/cyCapsense_Structure.c **** * \details
 641:Generated_Source\PSoC4/cyCapsense_Structure.c **** *  This function gets the value of the specified parameter by the paramId
 642:Generated_Source\PSoC4/cyCapsense_Structure.c **** *  argument. The paramId for each register is available in the
 643:Generated_Source\PSoC4/cyCapsense_Structure.c **** *  cyCapsense RegisterMap header file as
 644:Generated_Source\PSoC4/cyCapsense_Structure.c **** *  cyCapsense_<ParameterName>_PARAM_ID. The paramId is a special
 645:Generated_Source\PSoC4/cyCapsense_Structure.c **** *  enumerated value generated by the customizer. The format of paramId is as
 646:Generated_Source\PSoC4/cyCapsense_Structure.c **** *  follows:
 647:Generated_Source\PSoC4/cyCapsense_Structure.c **** *    1. [ byte 3 byte 2 byte 1 byte 0 ]
 648:Generated_Source\PSoC4/cyCapsense_Structure.c **** *    2. [ TTWFCCCC UIIIIIII MMMMMMMM LLLLLLLL ]
 649:Generated_Source\PSoC4/cyCapsense_Structure.c **** *    3. T - encodes the parameter type:
 650:Generated_Source\PSoC4/cyCapsense_Structure.c **** *      - 01b: uint8
 651:Generated_Source\PSoC4/cyCapsense_Structure.c **** *      - 10b: uint16
 652:Generated_Source\PSoC4/cyCapsense_Structure.c **** *      - 11b: uint32
 653:Generated_Source\PSoC4/cyCapsense_Structure.c **** *    4. W - indicates whether the parameter is writable:
 654:Generated_Source\PSoC4/cyCapsense_Structure.c **** *      - 0: ReadOnly
 655:Generated_Source\PSoC4/cyCapsense_Structure.c **** *      - 1: Read/Write
 656:Generated_Source\PSoC4/cyCapsense_Structure.c **** *    5. C - 4 bit CRC (X^3 + 1) of the whole paramId word, the C bits are
 657:Generated_Source\PSoC4/cyCapsense_Structure.c **** *       filled with 0s when the CRC is calculated.
 658:Generated_Source\PSoC4/cyCapsense_Structure.c **** *    6. U - indicates if the parameter affects the RAM Widget Object CRC.
 659:Generated_Source\PSoC4/cyCapsense_Structure.c **** *    7. I - specifies that the widgetId parameter belongs to
 660:Generated_Source\PSoC4/cyCapsense_Structure.c **** *    8. M,L - the parameter offset MSB and LSB accordingly in:
 661:Generated_Source\PSoC4/cyCapsense_Structure.c **** *      - Flash Data Structure if W bit is 0.
 662:Generated_Source\PSoC4/cyCapsense_Structure.c **** *      - RAM Data Structure if W bit is 1.
 663:Generated_Source\PSoC4/cyCapsense_Structure.c **** *
 664:Generated_Source\PSoC4/cyCapsense_Structure.c **** *  Refer to the \ref group_structures section for details of the data structure
 665:Generated_Source\PSoC4/cyCapsense_Structure.c **** *  organization and examples of its register access.
 666:Generated_Source\PSoC4/cyCapsense_Structure.c **** *
 667:Generated_Source\PSoC4/cyCapsense_Structure.c **** * \param paramId
 668:Generated_Source\PSoC4/cyCapsense_Structure.c **** *  Specifies the ID of parameter to get its value.
 669:Generated_Source\PSoC4/cyCapsense_Structure.c **** *  A macro for the parameter ID can be found in the cyCapsense RegisterMap header
 670:Generated_Source\PSoC4/cyCapsense_Structure.c **** *  file defined as cyCapsense_<ParameterName>_PARAM_ID.
 671:Generated_Source\PSoC4/cyCapsense_Structure.c **** *
 672:Generated_Source\PSoC4/cyCapsense_Structure.c **** * \param value
 673:Generated_Source\PSoC4/cyCapsense_Structure.c **** *  The pointer to a variable to be updated with the obtained value.
 674:Generated_Source\PSoC4/cyCapsense_Structure.c **** *
 675:Generated_Source\PSoC4/cyCapsense_Structure.c **** * \return
 676:Generated_Source\PSoC4/cyCapsense_Structure.c **** *  Returns the status of the operation:
 677:Generated_Source\PSoC4/cyCapsense_Structure.c **** *    - CYRET_SUCCESS - The operation is successfully completed.
 678:Generated_Source\PSoC4/cyCapsense_Structure.c **** *    - CYRET_BAD_PARAM - The input parameter is invalid.
 679:Generated_Source\PSoC4/cyCapsense_Structure.c **** *
 680:Generated_Source\PSoC4/cyCapsense_Structure.c **** *******************************************************************************/
 681:Generated_Source\PSoC4/cyCapsense_Structure.c **** cystatus cyCapsense_GetParam(uint32 paramId, uint32 *value)
 682:Generated_Source\PSoC4/cyCapsense_Structure.c **** {
 213              		.loc 1 682 0
 214              		.cfi_startproc
 215              		@ args = 0, pretend = 0, frame = 8
 216              		@ frame_needed = 0, uses_anonymous_args = 0
 217              	.LVL14:
ARM GAS  C:\Users\turan\AppData\Local\Temp\ccoYfjx5.s 			page 17


 218 0000 30B5     		push	{r4, r5, lr}
 219              		.cfi_def_cfa_offset 12
 220              		.cfi_offset 4, -12
 221              		.cfi_offset 5, -8
 222              		.cfi_offset 14, -4
 223 0002 83B0     		sub	sp, sp, #12
 224              		.cfi_def_cfa_offset 24
 225 0004 0D00     		movs	r5, r1
 683:Generated_Source\PSoC4/cyCapsense_Structure.c ****     PARAM_ID_STRUCT pData;
 684:Generated_Source\PSoC4/cyCapsense_Structure.c ****     cystatus result;
 685:Generated_Source\PSoC4/cyCapsense_Structure.c **** 
 686:Generated_Source\PSoC4/cyCapsense_Structure.c ****     union
 687:Generated_Source\PSoC4/cyCapsense_Structure.c ****     {
 688:Generated_Source\PSoC4/cyCapsense_Structure.c ****         volatile void   const * ptr;
 689:Generated_Source\PSoC4/cyCapsense_Structure.c ****         volatile uint8  const * ptrUint8;
 690:Generated_Source\PSoC4/cyCapsense_Structure.c ****         volatile uint16 const * ptrUint16;
 691:Generated_Source\PSoC4/cyCapsense_Structure.c ****         volatile uint32 const * ptrUint32;
 692:Generated_Source\PSoC4/cyCapsense_Structure.c ****     } ptrData;
 693:Generated_Source\PSoC4/cyCapsense_Structure.c **** 
 694:Generated_Source\PSoC4/cyCapsense_Structure.c ****     result = DsParseParamId(paramId, &pData);
 226              		.loc 1 694 0
 227 0006 6946     		mov	r1, sp
 228              	.LVL15:
 229 0008 FFF7FEFF 		bl	DsParseParamId
 230              	.LVL16:
 231 000c 041E     		subs	r4, r0, #0
 232              	.LVL17:
 695:Generated_Source\PSoC4/cyCapsense_Structure.c **** 
 696:Generated_Source\PSoC4/cyCapsense_Structure.c ****     /* Parse and validate paramId */
 697:Generated_Source\PSoC4/cyCapsense_Structure.c ****     if (CYRET_SUCCESS == result)
 233              		.loc 1 697 0
 234 000e 1FD1     		bne	.L20
 698:Generated_Source\PSoC4/cyCapsense_Structure.c ****     {
 699:Generated_Source\PSoC4/cyCapsense_Structure.c ****         /* Get base address of parameter */
 700:Generated_Source\PSoC4/cyCapsense_Structure.c ****         if (0u == pData.flash)
 235              		.loc 1 700 0
 236 0010 6B46     		mov	r3, sp
 237 0012 5B79     		ldrb	r3, [r3, #5]
 238 0014 002B     		cmp	r3, #0
 239 0016 01D1     		bne	.L21
 701:Generated_Source\PSoC4/cyCapsense_Structure.c ****         {
 702:Generated_Source\PSoC4/cyCapsense_Structure.c ****             ptrData.ptr = &cyCapsense_dsRam;
 240              		.loc 1 702 0
 241 0018 0F4A     		ldr	r2, .L26
 242              	.LVL18:
 243 001a 02E0     		b	.L22
 244              	.L21:
 703:Generated_Source\PSoC4/cyCapsense_Structure.c ****         }
 704:Generated_Source\PSoC4/cyCapsense_Structure.c ****         else
 705:Generated_Source\PSoC4/cyCapsense_Structure.c ****         {
 706:Generated_Source\PSoC4/cyCapsense_Structure.c ****             ptrData.ptr = &cyCapsense_dsFlash;
 245              		.loc 1 706 0
 246 001c 0F4B     		ldr	r3, .L26+4
 247 001e 3833     		adds	r3, r3, #56
 248 0020 1A00     		movs	r2, r3
 249              	.L22:
 707:Generated_Source\PSoC4/cyCapsense_Structure.c ****         }
ARM GAS  C:\Users\turan\AppData\Local\Temp\ccoYfjx5.s 			page 18


 708:Generated_Source\PSoC4/cyCapsense_Structure.c **** 
 709:Generated_Source\PSoC4/cyCapsense_Structure.c ****         /* Add offset to base address */
 710:Generated_Source\PSoC4/cyCapsense_Structure.c ****         ptrData.ptrUint8 += pData.offset;
 250              		.loc 1 710 0
 251 0022 6B46     		mov	r3, sp
 252 0024 1B88     		ldrh	r3, [r3]
 253              	.LVL19:
 254 0026 D318     		adds	r3, r2, r3
 711:Generated_Source\PSoC4/cyCapsense_Structure.c **** 
 712:Generated_Source\PSoC4/cyCapsense_Structure.c ****         /* Read data */
 713:Generated_Source\PSoC4/cyCapsense_Structure.c ****         if (DS_PARAM_TYPE_UINT8 == pData.type)
 255              		.loc 1 713 0
 256 0028 6A46     		mov	r2, sp
 257              	.LVL20:
 258 002a D279     		ldrb	r2, [r2, #7]
 259 002c 012A     		cmp	r2, #1
 260 002e 02D1     		bne	.L23
 714:Generated_Source\PSoC4/cyCapsense_Structure.c ****         {
 715:Generated_Source\PSoC4/cyCapsense_Structure.c ****             *value = (uint32) (*ptrData.ptrUint8);
 261              		.loc 1 715 0
 262 0030 1B78     		ldrb	r3, [r3]
 263 0032 2B60     		str	r3, [r5]
 264 0034 0CE0     		b	.L20
 265              	.L23:
 716:Generated_Source\PSoC4/cyCapsense_Structure.c ****         }
 717:Generated_Source\PSoC4/cyCapsense_Structure.c ****         else if (DS_PARAM_TYPE_UINT16 == pData.type)
 266              		.loc 1 717 0
 267 0036 022A     		cmp	r2, #2
 268 0038 02D1     		bne	.L24
 718:Generated_Source\PSoC4/cyCapsense_Structure.c ****         {
 719:Generated_Source\PSoC4/cyCapsense_Structure.c ****             *value = (uint32) (*ptrData.ptrUint16);
 269              		.loc 1 719 0
 270 003a 1B88     		ldrh	r3, [r3]
 271 003c 2B60     		str	r3, [r5]
 272 003e 07E0     		b	.L20
 273              	.L24:
 720:Generated_Source\PSoC4/cyCapsense_Structure.c ****         }
 721:Generated_Source\PSoC4/cyCapsense_Structure.c ****         else if (DS_PARAM_TYPE_UINT32 == pData.type)
 274              		.loc 1 721 0
 275 0040 032A     		cmp	r2, #3
 276 0042 02D1     		bne	.L25
 722:Generated_Source\PSoC4/cyCapsense_Structure.c ****         {
 723:Generated_Source\PSoC4/cyCapsense_Structure.c ****             *value = *ptrData.ptrUint32;
 277              		.loc 1 723 0
 278 0044 1B68     		ldr	r3, [r3]
 279 0046 2B60     		str	r3, [r5]
 280 0048 02E0     		b	.L20
 281              	.L25:
 724:Generated_Source\PSoC4/cyCapsense_Structure.c ****         }
 725:Generated_Source\PSoC4/cyCapsense_Structure.c ****         else
 726:Generated_Source\PSoC4/cyCapsense_Structure.c ****         {
 727:Generated_Source\PSoC4/cyCapsense_Structure.c ****             /* Parameter comes here already validated. */
 728:Generated_Source\PSoC4/cyCapsense_Structure.c ****             CYASSERT(0u);
 282              		.loc 1 728 0 discriminator 1
 283 004a 0020     		movs	r0, #0
 284              	.LVL21:
 285 004c FFF7FEFF 		bl	CyHalt
ARM GAS  C:\Users\turan\AppData\Local\Temp\ccoYfjx5.s 			page 19


 286              	.LVL22:
 287              	.L20:
 729:Generated_Source\PSoC4/cyCapsense_Structure.c ****         }
 730:Generated_Source\PSoC4/cyCapsense_Structure.c ****     }
 731:Generated_Source\PSoC4/cyCapsense_Structure.c **** 
 732:Generated_Source\PSoC4/cyCapsense_Structure.c ****     return result;
 733:Generated_Source\PSoC4/cyCapsense_Structure.c **** }
 288              		.loc 1 733 0
 289 0050 2000     		movs	r0, r4
 290 0052 03B0     		add	sp, sp, #12
 291              		@ sp needed
 292              	.LVL23:
 293              	.LVL24:
 294 0054 30BD     		pop	{r4, r5, pc}
 295              	.L27:
 296 0056 C046     		.align	2
 297              	.L26:
 298 0058 00000000 		.word	cyCapsense_dsRam
 299 005c 00000000 		.word	.LANCHOR0
 300              		.cfi_endproc
 301              	.LFE3:
 302              		.size	cyCapsense_GetParam, .-cyCapsense_GetParam
 303              		.section	.text.cyCapsense_SetParam,"ax",%progbits
 304              		.align	2
 305              		.global	cyCapsense_SetParam
 306              		.code	16
 307              		.thumb_func
 308              		.type	cyCapsense_SetParam, %function
 309              	cyCapsense_SetParam:
 310              	.LFB4:
 734:Generated_Source\PSoC4/cyCapsense_Structure.c **** 
 735:Generated_Source\PSoC4/cyCapsense_Structure.c **** 
 736:Generated_Source\PSoC4/cyCapsense_Structure.c **** /*******************************************************************************
 737:Generated_Source\PSoC4/cyCapsense_Structure.c **** * Function Name: cyCapsense_SetParam
 738:Generated_Source\PSoC4/cyCapsense_Structure.c **** ****************************************************************************//**
 739:Generated_Source\PSoC4/cyCapsense_Structure.c **** *
 740:Generated_Source\PSoC4/cyCapsense_Structure.c **** * \brief
 741:Generated_Source\PSoC4/cyCapsense_Structure.c **** *  Sets a new value for the specified parameter in the \ref group_structures.
 742:Generated_Source\PSoC4/cyCapsense_Structure.c **** *
 743:Generated_Source\PSoC4/cyCapsense_Structure.c **** * \details
 744:Generated_Source\PSoC4/cyCapsense_Structure.c **** *  This function sets the value of the specified parameter by the paramId
 745:Generated_Source\PSoC4/cyCapsense_Structure.c **** *  argument. The paramId for each register is available in the
 746:Generated_Source\PSoC4/cyCapsense_Structure.c **** *  cyCapsense RegisterMap header file as
 747:Generated_Source\PSoC4/cyCapsense_Structure.c **** *  cyCapsense_<ParameterName>_PARAM_ID. The paramId is a special
 748:Generated_Source\PSoC4/cyCapsense_Structure.c **** *  enumerated value generated by the customizer. The format of paramId is as
 749:Generated_Source\PSoC4/cyCapsense_Structure.c **** *  follows:
 750:Generated_Source\PSoC4/cyCapsense_Structure.c **** *    1. [ byte 3 byte 2 byte 1 byte 0 ]
 751:Generated_Source\PSoC4/cyCapsense_Structure.c **** *    2. [ TTWFCCCC UIIIIIII MMMMMMMM LLLLLLLL ]
 752:Generated_Source\PSoC4/cyCapsense_Structure.c **** *    3. T - encodes the parameter type:
 753:Generated_Source\PSoC4/cyCapsense_Structure.c **** *      - 01b: uint8
 754:Generated_Source\PSoC4/cyCapsense_Structure.c **** *      - 10b: uint16
 755:Generated_Source\PSoC4/cyCapsense_Structure.c **** *      - 11b: uint32
 756:Generated_Source\PSoC4/cyCapsense_Structure.c **** *    4. W - indicates whether the parameter is writable:
 757:Generated_Source\PSoC4/cyCapsense_Structure.c **** *      - 0: ReadOnly
 758:Generated_Source\PSoC4/cyCapsense_Structure.c **** *      - 1: Read/Write
 759:Generated_Source\PSoC4/cyCapsense_Structure.c **** *    5. C - 4 bit CRC (X^3 + 1) of the whole paramId word, the C bits are
 760:Generated_Source\PSoC4/cyCapsense_Structure.c **** *       filled with 0s when the CRC is calculated.
ARM GAS  C:\Users\turan\AppData\Local\Temp\ccoYfjx5.s 			page 20


 761:Generated_Source\PSoC4/cyCapsense_Structure.c **** *    6. U - indicates if the parameter affects the RAM Widget Object CRC.
 762:Generated_Source\PSoC4/cyCapsense_Structure.c **** *    7. I - specifies that the widgetId parameter belongs to
 763:Generated_Source\PSoC4/cyCapsense_Structure.c **** *    8. M,L - the parameter offset MSB and LSB accordingly in:
 764:Generated_Source\PSoC4/cyCapsense_Structure.c **** *      - Flash Data Structure if W bit is 0.
 765:Generated_Source\PSoC4/cyCapsense_Structure.c **** *      - RAM Data Structure if W bit is 1.
 766:Generated_Source\PSoC4/cyCapsense_Structure.c **** *
 767:Generated_Source\PSoC4/cyCapsense_Structure.c **** *  Refer to the \ref group_structures section for details of the data structure
 768:Generated_Source\PSoC4/cyCapsense_Structure.c **** *  organization and examples of its register access.
 769:Generated_Source\PSoC4/cyCapsense_Structure.c **** *
 770:Generated_Source\PSoC4/cyCapsense_Structure.c **** *  This function writes specified value into the desired register without
 771:Generated_Source\PSoC4/cyCapsense_Structure.c **** *  other registers update. It is application layer responsibility to keep all
 772:Generated_Source\PSoC4/cyCapsense_Structure.c **** *  the data structure registers aligned. Repeated call of
 773:Generated_Source\PSoC4/cyCapsense_Structure.c **** *  cyCapsense_Start() function helps aligning dependent register values.
 774:Generated_Source\PSoC4/cyCapsense_Structure.c **** *
 775:Generated_Source\PSoC4/cyCapsense_Structure.c **** * \param paramId
 776:Generated_Source\PSoC4/cyCapsense_Structure.c **** *  Specifies the ID of parameter to set its value.
 777:Generated_Source\PSoC4/cyCapsense_Structure.c **** *  A macro for the parameter ID can be found in the cyCapsense RegisterMap header
 778:Generated_Source\PSoC4/cyCapsense_Structure.c **** *  file defined as cyCapsense_<ParameterName>_PARAM_ID.
 779:Generated_Source\PSoC4/cyCapsense_Structure.c **** 
 780:Generated_Source\PSoC4/cyCapsense_Structure.c **** * \param value
 781:Generated_Source\PSoC4/cyCapsense_Structure.c **** *  Specifies the new parameter's value.
 782:Generated_Source\PSoC4/cyCapsense_Structure.c **** *
 783:Generated_Source\PSoC4/cyCapsense_Structure.c **** * \return
 784:Generated_Source\PSoC4/cyCapsense_Structure.c **** *  Returns the status of the operation:
 785:Generated_Source\PSoC4/cyCapsense_Structure.c **** *    - CYRET_SUCCESS - The operation is successfully completed.
 786:Generated_Source\PSoC4/cyCapsense_Structure.c **** *    - CYRET_BAD_PARAM - The input parameter is invalid.
 787:Generated_Source\PSoC4/cyCapsense_Structure.c **** *
 788:Generated_Source\PSoC4/cyCapsense_Structure.c **** *******************************************************************************/
 789:Generated_Source\PSoC4/cyCapsense_Structure.c **** cystatus cyCapsense_SetParam(uint32 paramId, uint32 value)
 790:Generated_Source\PSoC4/cyCapsense_Structure.c **** {
 311              		.loc 1 790 0
 312              		.cfi_startproc
 313              		@ args = 0, pretend = 0, frame = 8
 314              		@ frame_needed = 0, uses_anonymous_args = 0
 315              	.LVL25:
 316 0000 30B5     		push	{r4, r5, lr}
 317              		.cfi_def_cfa_offset 12
 318              		.cfi_offset 4, -12
 319              		.cfi_offset 5, -8
 320              		.cfi_offset 14, -4
 321 0002 83B0     		sub	sp, sp, #12
 322              		.cfi_def_cfa_offset 24
 323 0004 0D00     		movs	r5, r1
 791:Generated_Source\PSoC4/cyCapsense_Structure.c ****     cystatus result;
 792:Generated_Source\PSoC4/cyCapsense_Structure.c ****     PARAM_ID_STRUCT pData;
 793:Generated_Source\PSoC4/cyCapsense_Structure.c **** 
 794:Generated_Source\PSoC4/cyCapsense_Structure.c ****     union
 795:Generated_Source\PSoC4/cyCapsense_Structure.c ****     {
 796:Generated_Source\PSoC4/cyCapsense_Structure.c ****         volatile void   * ptr;
 797:Generated_Source\PSoC4/cyCapsense_Structure.c ****         volatile uint8  * ptrUint8;
 798:Generated_Source\PSoC4/cyCapsense_Structure.c ****         volatile uint16 * ptrUint16;
 799:Generated_Source\PSoC4/cyCapsense_Structure.c ****         volatile uint32 * ptrUint32;
 800:Generated_Source\PSoC4/cyCapsense_Structure.c ****     } ptrData;
 801:Generated_Source\PSoC4/cyCapsense_Structure.c **** 
 802:Generated_Source\PSoC4/cyCapsense_Structure.c ****     result = DsParseParamId(paramId, &pData);
 324              		.loc 1 802 0
 325 0006 6946     		mov	r1, sp
ARM GAS  C:\Users\turan\AppData\Local\Temp\ccoYfjx5.s 			page 21


 326              	.LVL26:
 327 0008 FFF7FEFF 		bl	DsParseParamId
 328              	.LVL27:
 329 000c 041E     		subs	r4, r0, #0
 330              	.LVL28:
 803:Generated_Source\PSoC4/cyCapsense_Structure.c **** 
 804:Generated_Source\PSoC4/cyCapsense_Structure.c ****     /* verify if parameter is writable */
 805:Generated_Source\PSoC4/cyCapsense_Structure.c ****     if (CYRET_SUCCESS == result)
 331              		.loc 1 805 0
 332 000e 04D1     		bne	.L29
 806:Generated_Source\PSoC4/cyCapsense_Structure.c ****     {
 807:Generated_Source\PSoC4/cyCapsense_Structure.c ****         if (0u == pData.rw)
 333              		.loc 1 807 0
 334 0010 6B46     		mov	r3, sp
 335 0012 9B79     		ldrb	r3, [r3, #6]
 336 0014 002B     		cmp	r3, #0
 337 0016 00D1     		bne	.L29
 808:Generated_Source\PSoC4/cyCapsense_Structure.c ****         {
 809:Generated_Source\PSoC4/cyCapsense_Structure.c ****             result = CYRET_BAD_PARAM;
 338              		.loc 1 809 0
 339 0018 0134     		adds	r4, r4, #1
 340              	.L29:
 341              	.LVL29:
 810:Generated_Source\PSoC4/cyCapsense_Structure.c ****         }
 811:Generated_Source\PSoC4/cyCapsense_Structure.c ****     }
 812:Generated_Source\PSoC4/cyCapsense_Structure.c **** 
 813:Generated_Source\PSoC4/cyCapsense_Structure.c ****     /* Parse and validate paramId */
 814:Generated_Source\PSoC4/cyCapsense_Structure.c ****     if (CYRET_SUCCESS == result)
 342              		.loc 1 814 0
 343 001a 002C     		cmp	r4, #0
 344 001c 16D1     		bne	.L30
 815:Generated_Source\PSoC4/cyCapsense_Structure.c ****     {
 816:Generated_Source\PSoC4/cyCapsense_Structure.c ****         /* Get base address of parameter */
 817:Generated_Source\PSoC4/cyCapsense_Structure.c ****         ptrData.ptr = &cyCapsense_dsRam;
 818:Generated_Source\PSoC4/cyCapsense_Structure.c **** 
 819:Generated_Source\PSoC4/cyCapsense_Structure.c ****         /* Add offset to base address */
 820:Generated_Source\PSoC4/cyCapsense_Structure.c ****         ptrData.ptrUint8 += pData.offset;
 345              		.loc 1 820 0
 346 001e 6B46     		mov	r3, sp
 347 0020 1A88     		ldrh	r2, [r3]
 348 0022 0C4B     		ldr	r3, .L35
 349 0024 D318     		adds	r3, r2, r3
 821:Generated_Source\PSoC4/cyCapsense_Structure.c **** 
 822:Generated_Source\PSoC4/cyCapsense_Structure.c ****         /* Write data */
 823:Generated_Source\PSoC4/cyCapsense_Structure.c ****         if (DS_PARAM_TYPE_UINT8 == pData.type)
 350              		.loc 1 823 0
 351 0026 6A46     		mov	r2, sp
 352 0028 D279     		ldrb	r2, [r2, #7]
 353 002a 012A     		cmp	r2, #1
 354 002c 02D1     		bne	.L31
 824:Generated_Source\PSoC4/cyCapsense_Structure.c ****         {
 825:Generated_Source\PSoC4/cyCapsense_Structure.c ****             *ptrData.ptrUint8 = LO8(value);
 355              		.loc 1 825 0
 356 002e EDB2     		uxtb	r5, r5
 357              	.LVL30:
 358 0030 1D70     		strb	r5, [r3]
 359 0032 0BE0     		b	.L30
ARM GAS  C:\Users\turan\AppData\Local\Temp\ccoYfjx5.s 			page 22


 360              	.LVL31:
 361              	.L31:
 826:Generated_Source\PSoC4/cyCapsense_Structure.c ****         }
 827:Generated_Source\PSoC4/cyCapsense_Structure.c ****         else if (DS_PARAM_TYPE_UINT16 == pData.type)
 362              		.loc 1 827 0
 363 0034 022A     		cmp	r2, #2
 364 0036 02D1     		bne	.L32
 828:Generated_Source\PSoC4/cyCapsense_Structure.c ****         {
 829:Generated_Source\PSoC4/cyCapsense_Structure.c ****             *ptrData.ptrUint16 = LO16(value);
 365              		.loc 1 829 0
 366 0038 ADB2     		uxth	r5, r5
 367              	.LVL32:
 368 003a 1D80     		strh	r5, [r3]
 369 003c 06E0     		b	.L30
 370              	.LVL33:
 371              	.L32:
 830:Generated_Source\PSoC4/cyCapsense_Structure.c ****         }
 831:Generated_Source\PSoC4/cyCapsense_Structure.c ****         else if (DS_PARAM_TYPE_UINT32 == pData.type)
 372              		.loc 1 831 0
 373 003e 032A     		cmp	r2, #3
 374 0040 01D1     		bne	.L33
 832:Generated_Source\PSoC4/cyCapsense_Structure.c ****         {
 833:Generated_Source\PSoC4/cyCapsense_Structure.c ****             *ptrData.ptrUint32 = value;
 375              		.loc 1 833 0
 376 0042 1D60     		str	r5, [r3]
 377 0044 02E0     		b	.L30
 378              	.L33:
 834:Generated_Source\PSoC4/cyCapsense_Structure.c ****         }
 835:Generated_Source\PSoC4/cyCapsense_Structure.c ****         else
 836:Generated_Source\PSoC4/cyCapsense_Structure.c ****         {
 837:Generated_Source\PSoC4/cyCapsense_Structure.c ****             /* Parameter comes here already validated. */
 838:Generated_Source\PSoC4/cyCapsense_Structure.c ****             CYASSERT(0u);
 379              		.loc 1 838 0 discriminator 1
 380 0046 0020     		movs	r0, #0
 381 0048 FFF7FEFF 		bl	CyHalt
 382              	.LVL34:
 383              	.L30:
 839:Generated_Source\PSoC4/cyCapsense_Structure.c ****         }
 840:Generated_Source\PSoC4/cyCapsense_Structure.c **** 
 841:Generated_Source\PSoC4/cyCapsense_Structure.c ****         #if (cyCapsense_ENABLE == (cyCapsense_TST_WDGT_CRC_EN || cyCapsense_TST_GLOBAL_CRC_EN))
 842:Generated_Source\PSoC4/cyCapsense_Structure.c ****             /* Update widget or global CRC if self-test is enabled and parameter affects it */
 843:Generated_Source\PSoC4/cyCapsense_Structure.c ****             if (0u != pData.affectsCrc)
 844:Generated_Source\PSoC4/cyCapsense_Structure.c ****             {
 845:Generated_Source\PSoC4/cyCapsense_Structure.c ****                 if ((ptrData.ptrUint16 >= &cyCapsense_dsRam.csd0Config) &&
 846:Generated_Source\PSoC4/cyCapsense_Structure.c ****                     (ptrData.ptrUint16 <  &cyCapsense_dsRam.glbCrc))
 847:Generated_Source\PSoC4/cyCapsense_Structure.c ****                 {
 848:Generated_Source\PSoC4/cyCapsense_Structure.c **** 
 849:Generated_Source\PSoC4/cyCapsense_Structure.c ****                     #if (cyCapsense_ENABLE == cyCapsense_TST_GLOBAL_CRC_EN)
 850:Generated_Source\PSoC4/cyCapsense_Structure.c ****                         cyCapsense_DsUpdateGlobalCrc();
 851:Generated_Source\PSoC4/cyCapsense_Structure.c ****                     #endif /* (cyCapsense_ENABLE == cyCapsense_TST_GLOBAL_CRC_EN) */
 852:Generated_Source\PSoC4/cyCapsense_Structure.c **** 
 853:Generated_Source\PSoC4/cyCapsense_Structure.c ****                 }
 854:Generated_Source\PSoC4/cyCapsense_Structure.c ****                 else
 855:Generated_Source\PSoC4/cyCapsense_Structure.c ****                 {
 856:Generated_Source\PSoC4/cyCapsense_Structure.c ****                     #if (cyCapsense_ENABLE == cyCapsense_TST_WDGT_CRC_EN)
 857:Generated_Source\PSoC4/cyCapsense_Structure.c ****                         cyCapsense_DsUpdateWidgetCrc((uint32)pData.widgetId);
 858:Generated_Source\PSoC4/cyCapsense_Structure.c ****                     #endif /* (cyCapsense_ENABLE == cyCapsense_TST_WDGT_CRC_EN) */
ARM GAS  C:\Users\turan\AppData\Local\Temp\ccoYfjx5.s 			page 23


 859:Generated_Source\PSoC4/cyCapsense_Structure.c ****                 }
 860:Generated_Source\PSoC4/cyCapsense_Structure.c ****             }
 861:Generated_Source\PSoC4/cyCapsense_Structure.c ****         #endif /* (cyCapsense_ENABLE == (cyCapsense_TST_WDGT_CRC_EN || cyCapsense_TST_GLOBAL_CRC_EN
 862:Generated_Source\PSoC4/cyCapsense_Structure.c ****     }
 863:Generated_Source\PSoC4/cyCapsense_Structure.c **** 
 864:Generated_Source\PSoC4/cyCapsense_Structure.c ****     return result;
 865:Generated_Source\PSoC4/cyCapsense_Structure.c **** }
 384              		.loc 1 865 0
 385 004c 2000     		movs	r0, r4
 386 004e 03B0     		add	sp, sp, #12
 387              		@ sp needed
 388              	.LVL35:
 389 0050 30BD     		pop	{r4, r5, pc}
 390              	.L36:
 391 0052 C046     		.align	2
 392              	.L35:
 393 0054 00000000 		.word	cyCapsense_dsRam
 394              		.cfi_endproc
 395              	.LFE4:
 396              		.size	cyCapsense_SetParam, .-cyCapsense_SetParam
 397              		.section	.text.cyCapsense_IsAnyWidgetActive,"ax",%progbits
 398              		.align	2
 399              		.global	cyCapsense_IsAnyWidgetActive
 400              		.code	16
 401              		.thumb_func
 402              		.type	cyCapsense_IsAnyWidgetActive, %function
 403              	cyCapsense_IsAnyWidgetActive:
 404              	.LFB5:
 866:Generated_Source\PSoC4/cyCapsense_Structure.c **** 
 867:Generated_Source\PSoC4/cyCapsense_Structure.c **** /*******************************************************************************
 868:Generated_Source\PSoC4/cyCapsense_Structure.c **** * Function Name: cyCapsense_IsAnyWidgetActive
 869:Generated_Source\PSoC4/cyCapsense_Structure.c **** ****************************************************************************//**
 870:Generated_Source\PSoC4/cyCapsense_Structure.c **** *
 871:Generated_Source\PSoC4/cyCapsense_Structure.c **** * \brief
 872:Generated_Source\PSoC4/cyCapsense_Structure.c **** *  Reports if any widget has detected a touch.
 873:Generated_Source\PSoC4/cyCapsense_Structure.c **** *
 874:Generated_Source\PSoC4/cyCapsense_Structure.c **** * \details
 875:Generated_Source\PSoC4/cyCapsense_Structure.c **** *  This function reports if any widget has detected a touch or not by extracting
 876:Generated_Source\PSoC4/cyCapsense_Structure.c **** *  information from the wdgtStatus registers
 877:Generated_Source\PSoC4/cyCapsense_Structure.c **** *  (cyCapsense_WDGT_STATUS<X>_VALUE). This function does not process a
 878:Generated_Source\PSoC4/cyCapsense_Structure.c **** *  widget but extracts processed results from the \ref group_structures.
 879:Generated_Source\PSoC4/cyCapsense_Structure.c **** *
 880:Generated_Source\PSoC4/cyCapsense_Structure.c **** * \return
 881:Generated_Source\PSoC4/cyCapsense_Structure.c **** *   Returns the touch detection status of all the widgets:
 882:Generated_Source\PSoC4/cyCapsense_Structure.c **** *     - Zero - No touch is detected in all the widgets or sensors.
 883:Generated_Source\PSoC4/cyCapsense_Structure.c **** *     - Non-zero - At least one widget or sensor detected a touch.
 884:Generated_Source\PSoC4/cyCapsense_Structure.c **** *
 885:Generated_Source\PSoC4/cyCapsense_Structure.c **** *******************************************************************************/
 886:Generated_Source\PSoC4/cyCapsense_Structure.c **** uint32 cyCapsense_IsAnyWidgetActive(void)
 887:Generated_Source\PSoC4/cyCapsense_Structure.c **** {
 405              		.loc 1 887 0
 406              		.cfi_startproc
 407              		@ args = 0, pretend = 0, frame = 0
 408              		@ frame_needed = 0, uses_anonymous_args = 0
 409              		@ link register save eliminated.
 410              	.LVL36:
 888:Generated_Source\PSoC4/cyCapsense_Structure.c ****     uint32 result = 0Lu;
ARM GAS  C:\Users\turan\AppData\Local\Temp\ccoYfjx5.s 			page 24


 889:Generated_Source\PSoC4/cyCapsense_Structure.c ****     uint32 wdWord;
 890:Generated_Source\PSoC4/cyCapsense_Structure.c **** 
 891:Generated_Source\PSoC4/cyCapsense_Structure.c ****     for (wdWord = cyCapsense_WDGT_STATUS_WORDS; wdWord-- > 0u;)
 411              		.loc 1 891 0
 412 0000 0123     		movs	r3, #1
 888:Generated_Source\PSoC4/cyCapsense_Structure.c ****     uint32 result = 0Lu;
 413              		.loc 1 888 0
 414 0002 0020     		movs	r0, #0
 415              		.loc 1 891 0
 416 0004 06E0     		b	.L38
 417              	.LVL37:
 418              	.L39:
 892:Generated_Source\PSoC4/cyCapsense_Structure.c ****     {
 893:Generated_Source\PSoC4/cyCapsense_Structure.c ****         result |= cyCapsense_dsRam.wdgtStatus[wdWord];
 419              		.loc 1 893 0
 420 0006 131D     		adds	r3, r2, #4
 421 0008 9B00     		lsls	r3, r3, #2
 422 000a 0449     		ldr	r1, .L40
 423 000c CB18     		adds	r3, r1, r3
 424 000e 5B68     		ldr	r3, [r3, #4]
 425 0010 1843     		orrs	r0, r3
 426              	.LVL38:
 891:Generated_Source\PSoC4/cyCapsense_Structure.c ****     {
 427              		.loc 1 891 0
 428 0012 1300     		movs	r3, r2
 429              	.LVL39:
 430              	.L38:
 891:Generated_Source\PSoC4/cyCapsense_Structure.c ****     {
 431              		.loc 1 891 0 is_stmt 0 discriminator 1
 432 0014 5A1E     		subs	r2, r3, #1
 433              	.LVL40:
 434 0016 002B     		cmp	r3, #0
 435 0018 F5D1     		bne	.L39
 894:Generated_Source\PSoC4/cyCapsense_Structure.c ****     }
 895:Generated_Source\PSoC4/cyCapsense_Structure.c **** 
 896:Generated_Source\PSoC4/cyCapsense_Structure.c ****     return result;
 897:Generated_Source\PSoC4/cyCapsense_Structure.c **** }
 436              		.loc 1 897 0 is_stmt 1
 437              		@ sp needed
 438 001a 7047     		bx	lr
 439              	.L41:
 440              		.align	2
 441              	.L40:
 442 001c 00000000 		.word	cyCapsense_dsRam
 443              		.cfi_endproc
 444              	.LFE5:
 445              		.size	cyCapsense_IsAnyWidgetActive, .-cyCapsense_IsAnyWidgetActive
 446              		.section	.text.cyCapsense_IsWidgetActive,"ax",%progbits
 447              		.align	2
 448              		.global	cyCapsense_IsWidgetActive
 449              		.code	16
 450              		.thumb_func
 451              		.type	cyCapsense_IsWidgetActive, %function
 452              	cyCapsense_IsWidgetActive:
 453              	.LFB6:
 898:Generated_Source\PSoC4/cyCapsense_Structure.c **** 
 899:Generated_Source\PSoC4/cyCapsense_Structure.c **** 
ARM GAS  C:\Users\turan\AppData\Local\Temp\ccoYfjx5.s 			page 25


 900:Generated_Source\PSoC4/cyCapsense_Structure.c **** /*******************************************************************************
 901:Generated_Source\PSoC4/cyCapsense_Structure.c **** * Function Name: cyCapsense_IsWidgetActive
 902:Generated_Source\PSoC4/cyCapsense_Structure.c **** ****************************************************************************//**
 903:Generated_Source\PSoC4/cyCapsense_Structure.c **** *
 904:Generated_Source\PSoC4/cyCapsense_Structure.c **** * \brief
 905:Generated_Source\PSoC4/cyCapsense_Structure.c **** *  Reports if the specified widget detects a touch on any of its sensors.
 906:Generated_Source\PSoC4/cyCapsense_Structure.c **** *
 907:Generated_Source\PSoC4/cyCapsense_Structure.c **** * \details
 908:Generated_Source\PSoC4/cyCapsense_Structure.c **** *  This function reports if the specified widget has detected a touch or not by
 909:Generated_Source\PSoC4/cyCapsense_Structure.c **** *  extracting information from the wdgtStatus registers
 910:Generated_Source\PSoC4/cyCapsense_Structure.c **** *  (cyCapsense_WDGT_STATUS<X>_VALUE). This function does not process the
 911:Generated_Source\PSoC4/cyCapsense_Structure.c **** *  widget but extracts processed results from the \ref group_structures.
 912:Generated_Source\PSoC4/cyCapsense_Structure.c **** *
 913:Generated_Source\PSoC4/cyCapsense_Structure.c **** * \param widgetId
 914:Generated_Source\PSoC4/cyCapsense_Structure.c **** *  Specifies the ID number of the widget to get its status.
 915:Generated_Source\PSoC4/cyCapsense_Structure.c **** *  A macro for the widget ID can be found in the cyCapsense Configuration header
 916:Generated_Source\PSoC4/cyCapsense_Structure.c **** *  file defined as cyCapsense_<WidgetName>_WDGT_ID.
 917:Generated_Source\PSoC4/cyCapsense_Structure.c **** *
 918:Generated_Source\PSoC4/cyCapsense_Structure.c **** * \return
 919:Generated_Source\PSoC4/cyCapsense_Structure.c **** *  Returns the touch detection status of the specified widgets:
 920:Generated_Source\PSoC4/cyCapsense_Structure.c **** *    - Zero - No touch is detected in the specified widget or a wrong widgetId
 921:Generated_Source\PSoC4/cyCapsense_Structure.c **** *      is specified.
 922:Generated_Source\PSoC4/cyCapsense_Structure.c **** *    - Non-zero if at least one sensor of the specified widget is active, i.e.
 923:Generated_Source\PSoC4/cyCapsense_Structure.c **** *      a touch is detected.
 924:Generated_Source\PSoC4/cyCapsense_Structure.c **** *
 925:Generated_Source\PSoC4/cyCapsense_Structure.c **** *******************************************************************************/
 926:Generated_Source\PSoC4/cyCapsense_Structure.c **** uint32 cyCapsense_IsWidgetActive(uint32 widgetId)
 927:Generated_Source\PSoC4/cyCapsense_Structure.c **** {
 454              		.loc 1 927 0
 455              		.cfi_startproc
 456              		@ args = 0, pretend = 0, frame = 0
 457              		@ frame_needed = 0, uses_anonymous_args = 0
 458              		@ link register save eliminated.
 459              	.LVL41:
 928:Generated_Source\PSoC4/cyCapsense_Structure.c ****     uint32 result = 0Lu;
 929:Generated_Source\PSoC4/cyCapsense_Structure.c **** 
 930:Generated_Source\PSoC4/cyCapsense_Structure.c ****     if (widgetId < cyCapsense_TOTAL_WIDGETS)
 460              		.loc 1 930 0
 461 0000 0228     		cmp	r0, #2
 462 0002 0BD8     		bhi	.L44
 931:Generated_Source\PSoC4/cyCapsense_Structure.c ****     {
 932:Generated_Source\PSoC4/cyCapsense_Structure.c ****         result = cyCapsense_GET_WIDGET_ACTIVE_STATUS(widgetId);
 463              		.loc 1 932 0
 464 0004 1F23     		movs	r3, #31
 465 0006 0340     		ands	r3, r0
 466 0008 0122     		movs	r2, #1
 467 000a 9A40     		lsls	r2, r2, r3
 468 000c 4009     		lsrs	r0, r0, #5
 469              	.LVL42:
 470 000e 031D     		adds	r3, r0, #4
 471 0010 9B00     		lsls	r3, r3, #2
 472 0012 0348     		ldr	r0, .L45
 473 0014 C318     		adds	r3, r0, r3
 474 0016 5868     		ldr	r0, [r3, #4]
 475 0018 1040     		ands	r0, r2
 476              	.LVL43:
 477 001a 00E0     		b	.L43
ARM GAS  C:\Users\turan\AppData\Local\Temp\ccoYfjx5.s 			page 26


 478              	.LVL44:
 479              	.L44:
 928:Generated_Source\PSoC4/cyCapsense_Structure.c ****     uint32 result = 0Lu;
 480              		.loc 1 928 0
 481 001c 0020     		movs	r0, #0
 482              	.LVL45:
 483              	.L43:
 933:Generated_Source\PSoC4/cyCapsense_Structure.c ****     }
 934:Generated_Source\PSoC4/cyCapsense_Structure.c ****     return result;
 935:Generated_Source\PSoC4/cyCapsense_Structure.c **** }
 484              		.loc 1 935 0
 485              		@ sp needed
 486 001e 7047     		bx	lr
 487              	.L46:
 488              		.align	2
 489              	.L45:
 490 0020 00000000 		.word	cyCapsense_dsRam
 491              		.cfi_endproc
 492              	.LFE6:
 493              		.size	cyCapsense_IsWidgetActive, .-cyCapsense_IsWidgetActive
 494              		.section	.text.cyCapsense_IsSensorActive,"ax",%progbits
 495              		.align	2
 496              		.global	cyCapsense_IsSensorActive
 497              		.code	16
 498              		.thumb_func
 499              		.type	cyCapsense_IsSensorActive, %function
 500              	cyCapsense_IsSensorActive:
 501              	.LFB7:
 936:Generated_Source\PSoC4/cyCapsense_Structure.c **** 
 937:Generated_Source\PSoC4/cyCapsense_Structure.c **** 
 938:Generated_Source\PSoC4/cyCapsense_Structure.c **** /*******************************************************************************
 939:Generated_Source\PSoC4/cyCapsense_Structure.c **** * Function Name: cyCapsense_IsSensorActive
 940:Generated_Source\PSoC4/cyCapsense_Structure.c **** ****************************************************************************//**
 941:Generated_Source\PSoC4/cyCapsense_Structure.c **** *
 942:Generated_Source\PSoC4/cyCapsense_Structure.c **** * \brief
 943:Generated_Source\PSoC4/cyCapsense_Structure.c **** *  Reports if the specified sensor in the widget detects a touch.
 944:Generated_Source\PSoC4/cyCapsense_Structure.c **** *
 945:Generated_Source\PSoC4/cyCapsense_Structure.c **** * \details
 946:Generated_Source\PSoC4/cyCapsense_Structure.c **** *  This function reports if the specified sensor in the widget has detected a
 947:Generated_Source\PSoC4/cyCapsense_Structure.c **** *  touch or not by extracting information from the wdgtStatus registers
 948:Generated_Source\PSoC4/cyCapsense_Structure.c **** *  (cyCapsense_WDGT_STATUS<X>_VALUE). This function does not process the
 949:Generated_Source\PSoC4/cyCapsense_Structure.c **** *  widget or sensor but extracts processed results from the \ref group_structures.
 950:Generated_Source\PSoC4/cyCapsense_Structure.c **** *
 951:Generated_Source\PSoC4/cyCapsense_Structure.c **** *  For proximity sensors, this function returns the proximity detection status. To
 952:Generated_Source\PSoC4/cyCapsense_Structure.c **** *  get the finger touch status of proximity sensors, use the
 953:Generated_Source\PSoC4/cyCapsense_Structure.c **** *  cyCapsense_IsProximitySensorActive() function.
 954:Generated_Source\PSoC4/cyCapsense_Structure.c **** *
 955:Generated_Source\PSoC4/cyCapsense_Structure.c **** * \param widgetId
 956:Generated_Source\PSoC4/cyCapsense_Structure.c **** *  Specifies the ID number of the widget.
 957:Generated_Source\PSoC4/cyCapsense_Structure.c **** *  A macro for the widget ID can be found in the cyCapsense Configuration header
 958:Generated_Source\PSoC4/cyCapsense_Structure.c **** *  file defined as cyCapsense_<WidgetName>_WDGT_ID.
 959:Generated_Source\PSoC4/cyCapsense_Structure.c **** 
 960:Generated_Source\PSoC4/cyCapsense_Structure.c **** * \param sensorId
 961:Generated_Source\PSoC4/cyCapsense_Structure.c **** *  Specifies the ID number of the sensor within the widget to get its touch
 962:Generated_Source\PSoC4/cyCapsense_Structure.c **** *  detection status.
 963:Generated_Source\PSoC4/cyCapsense_Structure.c **** *  A macro for the sensor ID within the specified widget can be found in the
 964:Generated_Source\PSoC4/cyCapsense_Structure.c **** *  cyCapsense Configuration header file defined as
ARM GAS  C:\Users\turan\AppData\Local\Temp\ccoYfjx5.s 			page 27


 965:Generated_Source\PSoC4/cyCapsense_Structure.c **** *  cyCapsense_<WidgetName>_SNS<SensorNumber>_ID.
 966:Generated_Source\PSoC4/cyCapsense_Structure.c **** *
 967:Generated_Source\PSoC4/cyCapsense_Structure.c **** * \return
 968:Generated_Source\PSoC4/cyCapsense_Structure.c **** *  Returns the touch detection status of the specified sensor / widget:
 969:Generated_Source\PSoC4/cyCapsense_Structure.c **** *    - Zero if no touch is detected in the specified sensor / widget or a wrong
 970:Generated_Source\PSoC4/cyCapsense_Structure.c **** *      widget ID / sensor ID is specified.
 971:Generated_Source\PSoC4/cyCapsense_Structure.c **** *    - Non-zero if the specified sensor is active i.e. touch is detected. If the
 972:Generated_Source\PSoC4/cyCapsense_Structure.c **** *      specific sensor belongs to a proximity widget, the proximity detection
 973:Generated_Source\PSoC4/cyCapsense_Structure.c **** *      status is returned.
 974:Generated_Source\PSoC4/cyCapsense_Structure.c **** *
 975:Generated_Source\PSoC4/cyCapsense_Structure.c **** *******************************************************************************/
 976:Generated_Source\PSoC4/cyCapsense_Structure.c **** uint32 cyCapsense_IsSensorActive(uint32 widgetId, uint32 sensorId)
 977:Generated_Source\PSoC4/cyCapsense_Structure.c **** {
 502              		.loc 1 977 0
 503              		.cfi_startproc
 504              		@ args = 0, pretend = 0, frame = 0
 505              		@ frame_needed = 0, uses_anonymous_args = 0
 506              		@ link register save eliminated.
 507              	.LVL46:
 978:Generated_Source\PSoC4/cyCapsense_Structure.c ****     uint32 result = 0Lu;
 979:Generated_Source\PSoC4/cyCapsense_Structure.c **** 
 980:Generated_Source\PSoC4/cyCapsense_Structure.c ****     if ((widgetId < cyCapsense_TOTAL_WIDGETS) &&
 508              		.loc 1 980 0
 509 0000 0228     		cmp	r0, #2
 510 0002 0DD8     		bhi	.L49
 981:Generated_Source\PSoC4/cyCapsense_Structure.c ****         (sensorId < cyCapsense_GET_SENSOR_COUNT(widgetId)))
 511              		.loc 1 981 0 discriminator 1
 512 0004 4301     		lsls	r3, r0, #5
 513 0006 084A     		ldr	r2, .L51
 514 0008 D318     		adds	r3, r2, r3
 515 000a 5033     		adds	r3, r3, #80
 516 000c 1B88     		ldrh	r3, [r3]
 980:Generated_Source\PSoC4/cyCapsense_Structure.c ****         (sensorId < cyCapsense_GET_SENSOR_COUNT(widgetId)))
 517              		.loc 1 980 0 discriminator 1
 518 000e 8B42     		cmp	r3, r1
 519 0010 08D9     		bls	.L50
 982:Generated_Source\PSoC4/cyCapsense_Structure.c ****     {
 983:Generated_Source\PSoC4/cyCapsense_Structure.c ****         #if (cyCapsense_ENABLE == cyCapsense_PROXIMITY_WIDGET_EN)
 984:Generated_Source\PSoC4/cyCapsense_Structure.c ****             if (cyCapsense_WD_PROXIMITY_E ==
 985:Generated_Source\PSoC4/cyCapsense_Structure.c ****                 (cyCapsense_WD_TYPE_ENUM)cyCapsense_dsFlash.wdgtArray[widgetId].wdgtType)
 986:Generated_Source\PSoC4/cyCapsense_Structure.c ****             {
 987:Generated_Source\PSoC4/cyCapsense_Structure.c ****                 sensorId = cyCapsense_PROX_STS_OFFSET(sensorId);
 988:Generated_Source\PSoC4/cyCapsense_Structure.c ****             }
 989:Generated_Source\PSoC4/cyCapsense_Structure.c ****         #endif /* (cyCapsense_ENABLE != cyCapsense_PROXIMITY_WIDGET_EN) */
 990:Generated_Source\PSoC4/cyCapsense_Structure.c ****         result = cyCapsense_dsRam.snsStatus[widgetId] & (1Lu << sensorId);
 520              		.loc 1 990 0
 521 0012 064B     		ldr	r3, .L51+4
 522 0014 1818     		adds	r0, r3, r0
 523              	.LVL47:
 524 0016 037E     		ldrb	r3, [r0, #24]
 525 0018 0120     		movs	r0, #1
 526 001a 8840     		lsls	r0, r0, r1
 527 001c 1840     		ands	r0, r3
 528              	.LVL48:
 529 001e 02E0     		b	.L48
 530              	.LVL49:
 531              	.L49:
ARM GAS  C:\Users\turan\AppData\Local\Temp\ccoYfjx5.s 			page 28


 978:Generated_Source\PSoC4/cyCapsense_Structure.c **** 
 532              		.loc 1 978 0
 533 0020 0020     		movs	r0, #0
 534              	.LVL50:
 535 0022 00E0     		b	.L48
 536              	.LVL51:
 537              	.L50:
 538 0024 0020     		movs	r0, #0
 539              	.LVL52:
 540              	.L48:
 991:Generated_Source\PSoC4/cyCapsense_Structure.c ****     }
 992:Generated_Source\PSoC4/cyCapsense_Structure.c **** 
 993:Generated_Source\PSoC4/cyCapsense_Structure.c ****     return result;
 994:Generated_Source\PSoC4/cyCapsense_Structure.c **** }
 541              		.loc 1 994 0
 542              		@ sp needed
 543 0026 7047     		bx	lr
 544              	.L52:
 545              		.align	2
 546              	.L51:
 547 0028 00000000 		.word	.LANCHOR0
 548 002c 00000000 		.word	cyCapsense_dsRam
 549              		.cfi_endproc
 550              	.LFE7:
 551              		.size	cyCapsense_IsSensorActive, .-cyCapsense_IsSensorActive
 552              		.global	cyCapsense_ramWidgetInit
 553              		.global	cyCapsense_ioList
 554              		.global	cyCapsense_dsFlash
 555              		.comm	cyCapsense_dsRam,124,4
 556              		.section	.rodata
 557              		.align	2
 558              		.set	.LANCHOR0,. + 0
 559              		.type	cyCapsense_ramWidgetInit, %object
 560              		.size	cyCapsense_ramWidgetInit, 54
 561              	cyCapsense_ramWidgetInit:
 562 0000 0C00     		.short	12
 563 0002 6400     		.short	100
 564 0004 28       		.byte	40
 565 0005 28       		.byte	40
 566 0006 0A       		.byte	10
 567 0007 03       		.byte	3
 568 0008 1E       		.byte	30
 569 0009 20       		.byte	32
 570 000a 0400     		.short	4
 571 000c 00       		.byte	0
 572 000d 00       		.space	1
 573 000e 8403     		.short	900
 574 0010 0000     		.short	0
 575 0012 0C00     		.short	12
 576 0014 6400     		.short	100
 577 0016 28       		.byte	40
 578 0017 28       		.byte	40
 579 0018 0A       		.byte	10
 580 0019 03       		.byte	3
 581 001a 1E       		.byte	30
 582 001b 20       		.byte	32
 583 001c 0400     		.short	4
ARM GAS  C:\Users\turan\AppData\Local\Temp\ccoYfjx5.s 			page 29


 584 001e 00       		.byte	0
 585 001f 00       		.space	1
 586 0020 8403     		.short	900
 587 0022 0000     		.short	0
 588 0024 0C00     		.short	12
 589 0026 6400     		.short	100
 590 0028 28       		.byte	40
 591 0029 28       		.byte	40
 592 002a 0A       		.byte	10
 593 002b 03       		.byte	3
 594 002c 1E       		.byte	30
 595 002d 20       		.byte	32
 596 002e 0400     		.short	4
 597 0030 00       		.byte	0
 598 0031 00       		.space	1
 599 0032 8403     		.short	900
 600 0034 0000     		.short	0
 601 0036 0000     		.space	2
 602              		.type	cyCapsense_dsFlash, %object
 603              		.size	cyCapsense_dsFlash, 96
 604              	cyCapsense_dsFlash:
 605 0038 00000000 		.word	cyCapsense_ioList
 606 003c 20000000 		.word	cyCapsense_dsRam+32
 607 0040 56000000 		.word	cyCapsense_dsRam+86
 608 0044 10000000 		.word	cyCapsense_fltrHistoryButton0
 609 0048 44000000 		.word	cyCapsense_debounceButton0
 610 004c 01280000 		.word	10241
 611 0050 0100     		.short	1
 612 0052 01       		.byte	1
 613 0053 01       		.byte	1
 614 0054 30000000 		.word	cyCapsense_noiseEnvlpButton0
 615 0058 1C000000 		.word	cyCapsense_ioList+28
 616 005c 32000000 		.word	cyCapsense_dsRam+50
 617 0060 60000000 		.word	cyCapsense_dsRam+96
 618 0064 08000000 		.word	cyCapsense_fltrHistoryButton1
 619 0068 40000000 		.word	cyCapsense_debounceButton1
 620 006c 01280000 		.word	10241
 621 0070 0100     		.short	1
 622 0072 01       		.byte	1
 623 0073 01       		.byte	1
 624 0074 24000000 		.word	cyCapsense_noiseEnvlpButton1
 625 0078 38000000 		.word	cyCapsense_ioList+56
 626 007c 44000000 		.word	cyCapsense_dsRam+68
 627 0080 6A000000 		.word	cyCapsense_dsRam+106
 628 0084 00000000 		.word	cyCapsense_fltrHistoryButton2
 629 0088 3C000000 		.word	cyCapsense_debounceButton2
 630 008c 01280000 		.word	10241
 631 0090 0100     		.short	1
 632 0092 01       		.byte	1
 633 0093 01       		.byte	1
 634 0094 18000000 		.word	cyCapsense_noiseEnvlpButton2
 635              		.type	cyCapsense_ioList, %object
 636              		.size	cyCapsense_ioList, 84
 637              	cyCapsense_ioList:
 638 0098 00070240 		.word	1073874688
 639 009c 08070440 		.word	1074005768
 640 00a0 00070440 		.word	1074005760
ARM GAS  C:\Users\turan\AppData\Local\Temp\ccoYfjx5.s 			page 30


 641 00a4 04070440 		.word	1074005764
 642 00a8 F0000000 		.word	240
 643 00ac 02000000 		.word	2
 644 00b0 04       		.byte	4
 645 00b1 01       		.byte	1
 646 00b2 03       		.byte	3
 647 00b3 00       		.space	1
 648 00b4 00070240 		.word	1073874688
 649 00b8 08070440 		.word	1074005768
 650 00bc 00070440 		.word	1074005760
 651 00c0 04070440 		.word	1074005764
 652 00c4 0F000000 		.word	15
 653 00c8 01000000 		.word	1
 654 00cc 00       		.byte	0
 655 00cd 00       		.byte	0
 656 00ce 00       		.byte	0
 657 00cf 00       		.space	1
 658 00d0 00040240 		.word	1073873920
 659 00d4 08040440 		.word	1074005000
 660 00d8 00040440 		.word	1074004992
 661 00dc 04040440 		.word	1074004996
 662 00e0 0000000F 		.word	251658240
 663 00e4 40000000 		.word	64
 664 00e8 18       		.byte	24
 665 00e9 06       		.byte	6
 666 00ea 12       		.byte	18
 667 00eb 00       		.space	1
 668              		.bss
 669              		.align	2
 670              		.type	cyCapsense_fltrHistoryButton2, %object
 671              		.size	cyCapsense_fltrHistoryButton2, 6
 672              	cyCapsense_fltrHistoryButton2:
 673 0000 00000000 		.space	6
 673      0000
 674 0006 0000     		.space	2
 675              		.type	cyCapsense_fltrHistoryButton1, %object
 676              		.size	cyCapsense_fltrHistoryButton1, 6
 677              	cyCapsense_fltrHistoryButton1:
 678 0008 00000000 		.space	6
 678      0000
 679 000e 0000     		.space	2
 680              		.type	cyCapsense_fltrHistoryButton0, %object
 681              		.size	cyCapsense_fltrHistoryButton0, 6
 682              	cyCapsense_fltrHistoryButton0:
 683 0010 00000000 		.space	6
 683      0000
 684 0016 0000     		.space	2
 685              		.type	cyCapsense_noiseEnvlpButton2, %object
 686              		.size	cyCapsense_noiseEnvlpButton2, 12
 687              	cyCapsense_noiseEnvlpButton2:
 688 0018 00000000 		.space	12
 688      00000000 
 688      00000000 
 689              		.type	cyCapsense_noiseEnvlpButton1, %object
 690              		.size	cyCapsense_noiseEnvlpButton1, 12
 691              	cyCapsense_noiseEnvlpButton1:
 692 0024 00000000 		.space	12
ARM GAS  C:\Users\turan\AppData\Local\Temp\ccoYfjx5.s 			page 31


 692      00000000 
 692      00000000 
 693              		.type	cyCapsense_noiseEnvlpButton0, %object
 694              		.size	cyCapsense_noiseEnvlpButton0, 12
 695              	cyCapsense_noiseEnvlpButton0:
 696 0030 00000000 		.space	12
 696      00000000 
 696      00000000 
 697              		.type	cyCapsense_debounceButton2, %object
 698              		.size	cyCapsense_debounceButton2, 1
 699              	cyCapsense_debounceButton2:
 700 003c 00       		.space	1
 701 003d 000000   		.space	3
 702              		.type	cyCapsense_debounceButton1, %object
 703              		.size	cyCapsense_debounceButton1, 1
 704              	cyCapsense_debounceButton1:
 705 0040 00       		.space	1
 706 0041 000000   		.space	3
 707              		.type	cyCapsense_debounceButton0, %object
 708              		.size	cyCapsense_debounceButton0, 1
 709              	cyCapsense_debounceButton0:
 710 0044 00       		.space	1
 711              		.text
 712              	.Letext0:
 713              		.file 2 "Generated_Source\\PSoC4/cytypes.h"
 714              		.file 3 "Generated_Source\\PSoC4\\cyCapsense_Configuration.h"
 715              		.file 4 "Generated_Source\\PSoC4\\cyCapsense_SmartSense_LL.h"
 716              		.file 5 "Generated_Source\\PSoC4\\cyCapsense_Structure.h"
 717              		.file 6 "Generated_Source\\PSoC4\\CyLib.h"