ARM GAS  C:\Users\turan\AppData\Local\Temp\ccacGoag.s 			page 1


   1              		.syntax unified
   2              		.cpu cortex-m0
   3              		.fpu softvfp
   4              		.eabi_attribute 20, 1
   5              		.eabi_attribute 21, 1
   6              		.eabi_attribute 23, 3
   7              		.eabi_attribute 24, 1
   8              		.eabi_attribute 25, 1
   9              		.eabi_attribute 26, 1
  10              		.eabi_attribute 30, 1
  11              		.eabi_attribute 34, 0
  12              		.eabi_attribute 18, 4
  13              		.thumb
  14              		.syntax unified
  15              		.file	"cyCapsense_INT.c"
  16              		.text
  17              	.Ltext0:
  18              		.cfi_sections	.debug_frame
  19              		.section	.text.cyCapsense_SsCSDPostScan,"ax",%progbits
  20              		.align	2
  21              		.code	16
  22              		.thumb_func
  23              		.type	cyCapsense_SsCSDPostScan, %function
  24              	cyCapsense_SsCSDPostScan:
  25              	.LFB3:
  26              		.file 1 "Generated_Source\\PSoC4\\cyCapsense_INT.c"
   1:Generated_Source\PSoC4/cyCapsense_INT.c **** /***************************************************************************//**
   2:Generated_Source\PSoC4/cyCapsense_INT.c **** * \file cyCapsense_INT.c
   3:Generated_Source\PSoC4/cyCapsense_INT.c **** * \version 6.0
   4:Generated_Source\PSoC4/cyCapsense_INT.c **** *
   5:Generated_Source\PSoC4/cyCapsense_INT.c **** * \brief
   6:Generated_Source\PSoC4/cyCapsense_INT.c **** *   This file contains the source code for implementation of the Component's
   7:Generated_Source\PSoC4/cyCapsense_INT.c **** *   Interrupt Service Routine (ISR).
   8:Generated_Source\PSoC4/cyCapsense_INT.c **** *
   9:Generated_Source\PSoC4/cyCapsense_INT.c **** * \see cyCapsense v6.0 Datasheet
  10:Generated_Source\PSoC4/cyCapsense_INT.c **** *
  11:Generated_Source\PSoC4/cyCapsense_INT.c **** *//*****************************************************************************
  12:Generated_Source\PSoC4/cyCapsense_INT.c **** * Copyright (2016-2018), Cypress Semiconductor Corporation.
  13:Generated_Source\PSoC4/cyCapsense_INT.c **** ********************************************************************************
  14:Generated_Source\PSoC4/cyCapsense_INT.c **** * This software is owned by Cypress Semiconductor Corporation (Cypress) and is
  15:Generated_Source\PSoC4/cyCapsense_INT.c **** * protected by and subject to worldwide patent protection (United States and
  16:Generated_Source\PSoC4/cyCapsense_INT.c **** * foreign), United States copyright laws and international treaty provisions.
  17:Generated_Source\PSoC4/cyCapsense_INT.c **** * Cypress hereby grants to licensee a personal, non-exclusive, non-transferable
  18:Generated_Source\PSoC4/cyCapsense_INT.c **** * license to copy, use, modify, create derivative works of, and compile the
  19:Generated_Source\PSoC4/cyCapsense_INT.c **** * Cypress Source Code and derivative works for the sole purpose of creating
  20:Generated_Source\PSoC4/cyCapsense_INT.c **** * custom software in support of licensee product to be used only in conjunction
  21:Generated_Source\PSoC4/cyCapsense_INT.c **** * with a Cypress integrated circuit as specified in the applicable agreement.
  22:Generated_Source\PSoC4/cyCapsense_INT.c **** * Any reproduction, modification, translation, compilation, or representation of
  23:Generated_Source\PSoC4/cyCapsense_INT.c **** * this software except as specified above is prohibited without the express
  24:Generated_Source\PSoC4/cyCapsense_INT.c **** * written permission of Cypress.
  25:Generated_Source\PSoC4/cyCapsense_INT.c **** *
  26:Generated_Source\PSoC4/cyCapsense_INT.c **** * Disclaimer: CYPRESS MAKES NO WARRANTY OF ANY KIND, EXPRESS OR IMPLIED, WITH
  27:Generated_Source\PSoC4/cyCapsense_INT.c **** * REGARD TO THIS MATERIAL, INCLUDING, BUT NOT LIMITED TO, THE IMPLIED
  28:Generated_Source\PSoC4/cyCapsense_INT.c **** * WARRANTIES OF MERCHANTABILITY AND FITNESS FOR A PARTICULAR PURPOSE.
  29:Generated_Source\PSoC4/cyCapsense_INT.c **** * Cypress reserves the right to make changes without further notice to the
  30:Generated_Source\PSoC4/cyCapsense_INT.c **** * materials described herein. Cypress does not assume any liability arising out
  31:Generated_Source\PSoC4/cyCapsense_INT.c **** * of the application or use of any product or circuit described herein. Cypress
ARM GAS  C:\Users\turan\AppData\Local\Temp\ccacGoag.s 			page 2


  32:Generated_Source\PSoC4/cyCapsense_INT.c **** * does not authorize its products for use as critical components in life-support
  33:Generated_Source\PSoC4/cyCapsense_INT.c **** * systems where a malfunction or failure may reasonably be expected to result in
  34:Generated_Source\PSoC4/cyCapsense_INT.c **** * significant injury to the user. The inclusion of Cypress' product in a life-
  35:Generated_Source\PSoC4/cyCapsense_INT.c **** * support systems application implies that the manufacturer assumes all risk of
  36:Generated_Source\PSoC4/cyCapsense_INT.c **** * such use and in doing so indemnifies Cypress against all charges. Use may be
  37:Generated_Source\PSoC4/cyCapsense_INT.c **** * limited by and subject to the applicable Cypress software license agreement.
  38:Generated_Source\PSoC4/cyCapsense_INT.c **** *******************************************************************************/
  39:Generated_Source\PSoC4/cyCapsense_INT.c **** #include "cytypes.h"
  40:Generated_Source\PSoC4/cyCapsense_INT.c **** #include "cyfitter.h"
  41:Generated_Source\PSoC4/cyCapsense_INT.c **** #include "cyCapsense_Configuration.h"
  42:Generated_Source\PSoC4/cyCapsense_INT.c **** #include "cyCapsense_Structure.h"
  43:Generated_Source\PSoC4/cyCapsense_INT.c **** #include "cyCapsense_Sensing.h"
  44:Generated_Source\PSoC4/cyCapsense_INT.c **** #if (cyCapsense_ENABLE == cyCapsense_CSD_EN)
  45:Generated_Source\PSoC4/cyCapsense_INT.c ****     #include "cyCapsense_SensingCSD_LL.h"
  46:Generated_Source\PSoC4/cyCapsense_INT.c **** #endif /* (cyCapsense_ENABLE == cyCapsense_CSD_EN) */
  47:Generated_Source\PSoC4/cyCapsense_INT.c **** #include "cyapicallbacks.h"
  48:Generated_Source\PSoC4/cyCapsense_INT.c **** 
  49:Generated_Source\PSoC4/cyCapsense_INT.c **** /*******************************************************************************
  50:Generated_Source\PSoC4/cyCapsense_INT.c **** * Static Function Prototypes
  51:Generated_Source\PSoC4/cyCapsense_INT.c **** *******************************************************************************/
  52:Generated_Source\PSoC4/cyCapsense_INT.c **** /**
  53:Generated_Source\PSoC4/cyCapsense_INT.c **** * \cond SECTION_C_INTERNAL
  54:Generated_Source\PSoC4/cyCapsense_INT.c **** * \addtogroup group_c_internal
  55:Generated_Source\PSoC4/cyCapsense_INT.c **** * \{
  56:Generated_Source\PSoC4/cyCapsense_INT.c **** */
  57:Generated_Source\PSoC4/cyCapsense_INT.c **** 
  58:Generated_Source\PSoC4/cyCapsense_INT.c **** #if (((cyCapsense_ENABLE == cyCapsense_CSD_EN) || (cyCapsense_ENABLE == cyCapsense_CSD_CSX_EN)) && 
  59:Generated_Source\PSoC4/cyCapsense_INT.c ****      (cyCapsense_ENABLE == cyCapsense_MULTI_FREQ_SCAN_EN))
  60:Generated_Source\PSoC4/cyCapsense_INT.c ****     static void cyCapsense_SsNextFrequencyScan(void);
  61:Generated_Source\PSoC4/cyCapsense_INT.c **** #endif /* (((cyCapsense_ENABLE == cyCapsense_CSD_EN) || (cyCapsense_ENABLE == cyCapsense_CSD_CSX_EN
  62:Generated_Source\PSoC4/cyCapsense_INT.c ****             (cyCapsense_ENABLE == cyCapsense_MULTI_FREQ_SCAN_EN)) */
  63:Generated_Source\PSoC4/cyCapsense_INT.c **** 
  64:Generated_Source\PSoC4/cyCapsense_INT.c **** #if ((cyCapsense_ENABLE == cyCapsense_CSD_EN) || (cyCapsense_ENABLE == cyCapsense_CSD_CSX_EN))
  65:Generated_Source\PSoC4/cyCapsense_INT.c ****     static void cyCapsense_SsCSDPostScan(void);
  66:Generated_Source\PSoC4/cyCapsense_INT.c ****     static void cyCapsense_SsCSDInitNextScan(void);
  67:Generated_Source\PSoC4/cyCapsense_INT.c **** #endif /* ((cyCapsense_ENABLE == cyCapsense_CSD_EN) || (cyCapsense_ENABLE == cyCapsense_CSD_CSX_EN)
  68:Generated_Source\PSoC4/cyCapsense_INT.c **** /** \}
  69:Generated_Source\PSoC4/cyCapsense_INT.c **** * \endcond */
  70:Generated_Source\PSoC4/cyCapsense_INT.c **** 
  71:Generated_Source\PSoC4/cyCapsense_INT.c **** 
  72:Generated_Source\PSoC4/cyCapsense_INT.c **** /**
  73:Generated_Source\PSoC4/cyCapsense_INT.c **** * \cond SECTION_C_INTERRUPT
  74:Generated_Source\PSoC4/cyCapsense_INT.c **** * \addtogroup group_c_interrupt
  75:Generated_Source\PSoC4/cyCapsense_INT.c **** * \{
  76:Generated_Source\PSoC4/cyCapsense_INT.c **** */
  77:Generated_Source\PSoC4/cyCapsense_INT.c **** 
  78:Generated_Source\PSoC4/cyCapsense_INT.c **** 
  79:Generated_Source\PSoC4/cyCapsense_INT.c **** #if ((cyCapsense_ENABLE == cyCapsense_CSD_EN) || (cyCapsense_ENABLE == cyCapsense_CSD_CSX_EN))
  80:Generated_Source\PSoC4/cyCapsense_INT.c **** 
  81:Generated_Source\PSoC4/cyCapsense_INT.c **** #if (cyCapsense_ENABLE == cyCapsense_CSDV2)
  82:Generated_Source\PSoC4/cyCapsense_INT.c ****     /* Fourth-generation HW block part */
  83:Generated_Source\PSoC4/cyCapsense_INT.c **** 
  84:Generated_Source\PSoC4/cyCapsense_INT.c ****     /*******************************************************************************
  85:Generated_Source\PSoC4/cyCapsense_INT.c ****     * Function Name: cyCapsense_CSDPostSingleScan
  86:Generated_Source\PSoC4/cyCapsense_INT.c ****     ****************************************************************************//**
  87:Generated_Source\PSoC4/cyCapsense_INT.c ****     *
  88:Generated_Source\PSoC4/cyCapsense_INT.c ****     * \brief
ARM GAS  C:\Users\turan\AppData\Local\Temp\ccacGoag.s 			page 3


  89:Generated_Source\PSoC4/cyCapsense_INT.c ****     *  This is an internal ISR function for the single-sensor scanning implementation.
  90:Generated_Source\PSoC4/cyCapsense_INT.c ****     *
  91:Generated_Source\PSoC4/cyCapsense_INT.c ****     * \details
  92:Generated_Source\PSoC4/cyCapsense_INT.c ****     *  This ISR handler is triggered when the user calls the
  93:Generated_Source\PSoC4/cyCapsense_INT.c ****     *  cyCapsense_CSDScanExt() function.
  94:Generated_Source\PSoC4/cyCapsense_INT.c ****     *
  95:Generated_Source\PSoC4/cyCapsense_INT.c ****     *  The following tasks are performed for Third-generation HW block:
  96:Generated_Source\PSoC4/cyCapsense_INT.c ****     *    1. Disable the CSD interrupt.
  97:Generated_Source\PSoC4/cyCapsense_INT.c ****     *    2. Read the Counter register and update the data structure with raw data.
  98:Generated_Source\PSoC4/cyCapsense_INT.c ****     *    3. Connect the Vref buffer to the AMUX bus.
  99:Generated_Source\PSoC4/cyCapsense_INT.c ****     *    4. Update the Scan Counter.
 100:Generated_Source\PSoC4/cyCapsense_INT.c ****     *    5. Reset the BUSY flag.
 101:Generated_Source\PSoC4/cyCapsense_INT.c ****     *    6. Enable the CSD interrupt.
 102:Generated_Source\PSoC4/cyCapsense_INT.c ****     *
 103:Generated_Source\PSoC4/cyCapsense_INT.c ****     *  The following tasks are performed for Fourth-generation HW block:
 104:Generated_Source\PSoC4/cyCapsense_INT.c ****     *    1. Check if the raw data is not noisy.
 105:Generated_Source\PSoC4/cyCapsense_INT.c ****     *    2. Read the Counter register and update the data structure with raw data.
 106:Generated_Source\PSoC4/cyCapsense_INT.c ****     *    3. Configure and start the scan for the next frequency if the
 107:Generated_Source\PSoC4/cyCapsense_INT.c ****     *      multi-frequency is enabled.
 108:Generated_Source\PSoC4/cyCapsense_INT.c ****     *    4. Update the Scan Counter.
 109:Generated_Source\PSoC4/cyCapsense_INT.c ****     *    5. Reset the BUSY flag.
 110:Generated_Source\PSoC4/cyCapsense_INT.c ****     *    6. Enable the CSD interrupt.
 111:Generated_Source\PSoC4/cyCapsense_INT.c ****     *
 112:Generated_Source\PSoC4/cyCapsense_INT.c ****     *  The ISR handler changes the IMO and initializes scanning for the next frequency
 113:Generated_Source\PSoC4/cyCapsense_INT.c ****     *  channels when multi-frequency scanning is enabled.
 114:Generated_Source\PSoC4/cyCapsense_INT.c ****     *
 115:Generated_Source\PSoC4/cyCapsense_INT.c ****     *  This function has two Macro Callbacks that allow calling the user code
 116:Generated_Source\PSoC4/cyCapsense_INT.c ****     *  from macros specified in Component's generated code. Refer to the
 117:Generated_Source\PSoC4/cyCapsense_INT.c ****     *  \ref group_c_macrocallbacks section of the PSoC Creator User Guide
 118:Generated_Source\PSoC4/cyCapsense_INT.c ****     *  for details.
 119:Generated_Source\PSoC4/cyCapsense_INT.c ****     *
 120:Generated_Source\PSoC4/cyCapsense_INT.c ****     *******************************************************************************/
 121:Generated_Source\PSoC4/cyCapsense_INT.c ****     CY_ISR(cyCapsense_CSDPostSingleScan)
 122:Generated_Source\PSoC4/cyCapsense_INT.c ****     {
 123:Generated_Source\PSoC4/cyCapsense_INT.c ****         #ifdef cyCapsense_ENTRY_CALLBACK
 124:Generated_Source\PSoC4/cyCapsense_INT.c ****             cyCapsense_EntryCallback();
 125:Generated_Source\PSoC4/cyCapsense_INT.c ****         #endif /* cyCapsense_ENTRY_CALLBACK */
 126:Generated_Source\PSoC4/cyCapsense_INT.c **** 
 127:Generated_Source\PSoC4/cyCapsense_INT.c ****         /* Clear pending interrupt */
 128:Generated_Source\PSoC4/cyCapsense_INT.c ****         CY_SET_REG32(cyCapsense_INTR_PTR, cyCapsense_INTR_SET_MASK);
 129:Generated_Source\PSoC4/cyCapsense_INT.c **** 
 130:Generated_Source\PSoC4/cyCapsense_INT.c ****         #if (cyCapsense_ENABLE == cyCapsense_CSD_NOISE_METRIC_EN)
 131:Generated_Source\PSoC4/cyCapsense_INT.c ****             if ((cyCapsense_CSD_NOISE_METRIC_TH < ((CY_GET_REG32(cyCapsense_RESULT_VAL1_PTR) &
 132:Generated_Source\PSoC4/cyCapsense_INT.c ****                                                         cyCapsense_RESULT_VAL1_BAD_CONVS_MASK) >>
 133:Generated_Source\PSoC4/cyCapsense_INT.c ****                                                         cyCapsense_RESULT_VAL1_BAD_CONVS_SHIFT)) &&
 134:Generated_Source\PSoC4/cyCapsense_INT.c ****                                                         (0u < cyCapsense_badConversionsNum))
 135:Generated_Source\PSoC4/cyCapsense_INT.c ****             {
 136:Generated_Source\PSoC4/cyCapsense_INT.c ****                 /* Decrement bad conversions number */
 137:Generated_Source\PSoC4/cyCapsense_INT.c ****                 cyCapsense_badConversionsNum--;
 138:Generated_Source\PSoC4/cyCapsense_INT.c **** 
 139:Generated_Source\PSoC4/cyCapsense_INT.c ****                 /* Start the re-scan */
 140:Generated_Source\PSoC4/cyCapsense_INT.c ****                 CY_SET_REG32(cyCapsense_SEQ_START_PTR, cyCapsense_SEQ_START_AZ0_SKIP_MASK |
 141:Generated_Source\PSoC4/cyCapsense_INT.c ****                                                              cyCapsense_SEQ_START_AZ1_SKIP_MASK |
 142:Generated_Source\PSoC4/cyCapsense_INT.c ****                                                              cyCapsense_SEQ_START_START_MASK);
 143:Generated_Source\PSoC4/cyCapsense_INT.c ****             }
 144:Generated_Source\PSoC4/cyCapsense_INT.c ****             else
 145:Generated_Source\PSoC4/cyCapsense_INT.c ****             {
ARM GAS  C:\Users\turan\AppData\Local\Temp\ccacGoag.s 			page 4


 146:Generated_Source\PSoC4/cyCapsense_INT.c ****         #endif /* (cyCapsense_ENABLE == cyCapsense_CSD_NOISE_METRIC_EN) */
 147:Generated_Source\PSoC4/cyCapsense_INT.c **** 
 148:Generated_Source\PSoC4/cyCapsense_INT.c ****             cyCapsense_SsCSDPostScan();
 149:Generated_Source\PSoC4/cyCapsense_INT.c **** 
 150:Generated_Source\PSoC4/cyCapsense_INT.c ****             #if (cyCapsense_ENABLE == cyCapsense_MULTI_FREQ_SCAN_EN)
 151:Generated_Source\PSoC4/cyCapsense_INT.c ****                 if (cyCapsense_FREQ_CHANNEL_2 > cyCapsense_scanFreqIndex)
 152:Generated_Source\PSoC4/cyCapsense_INT.c ****                 {
 153:Generated_Source\PSoC4/cyCapsense_INT.c ****                     /* Scan the next channel */
 154:Generated_Source\PSoC4/cyCapsense_INT.c ****                     cyCapsense_SsNextFrequencyScan();
 155:Generated_Source\PSoC4/cyCapsense_INT.c ****                 }
 156:Generated_Source\PSoC4/cyCapsense_INT.c ****                 else
 157:Generated_Source\PSoC4/cyCapsense_INT.c ****                 {
 158:Generated_Source\PSoC4/cyCapsense_INT.c ****                     /* All channels are scanned. Set IMO to zero channel */
 159:Generated_Source\PSoC4/cyCapsense_INT.c ****                     cyCapsense_scanFreqIndex = cyCapsense_FREQ_CHANNEL_0;
 160:Generated_Source\PSoC4/cyCapsense_INT.c **** 
 161:Generated_Source\PSoC4/cyCapsense_INT.c ****                     #if (cyCapsense_MFS_IMO == cyCapsense_MFS_METHOD)
 162:Generated_Source\PSoC4/cyCapsense_INT.c ****                         cyCapsense_SsChangeImoFreq(cyCapsense_FREQ_CHANNEL_0);
 163:Generated_Source\PSoC4/cyCapsense_INT.c ****                     #else
 164:Generated_Source\PSoC4/cyCapsense_INT.c ****                         cyCapsense_SsChangeClkFreq(cyCapsense_FREQ_CHANNEL_0);
 165:Generated_Source\PSoC4/cyCapsense_INT.c ****                     #endif /* (cyCapsense_MFS_IMO == cyCapsense_MFS_METHOD) */
 166:Generated_Source\PSoC4/cyCapsense_INT.c **** 
 167:Generated_Source\PSoC4/cyCapsense_INT.c ****                     #if (cyCapsense_ENABLE == cyCapsense_BLOCK_OFF_AFTER_SCAN_EN)
 168:Generated_Source\PSoC4/cyCapsense_INT.c ****                         /* Disable Fourth-generation HW block */
 169:Generated_Source\PSoC4/cyCapsense_INT.c ****                         CY_SET_REG32(cyCapsense_CONFIG_PTR, cyCapsense_configCsd);
 170:Generated_Source\PSoC4/cyCapsense_INT.c ****                     #endif /* (cyCapsense_ENABLE == cyCapsense_BLOCK_OFF_AFTER_SCAN_EN) */
 171:Generated_Source\PSoC4/cyCapsense_INT.c **** 
 172:Generated_Source\PSoC4/cyCapsense_INT.c ****                     /* Update Scan Counter */
 173:Generated_Source\PSoC4/cyCapsense_INT.c ****                     cyCapsense_dsRam.scanCounter++;
 174:Generated_Source\PSoC4/cyCapsense_INT.c **** 
 175:Generated_Source\PSoC4/cyCapsense_INT.c ****                     /* Sensor is totally scanned. Reset BUSY flag */
 176:Generated_Source\PSoC4/cyCapsense_INT.c ****                     cyCapsense_dsRam.status &= ~(cyCapsense_SW_STS_BUSY | cyCapsense_WDGT_SW_STS_BU
 177:Generated_Source\PSoC4/cyCapsense_INT.c ****                 }
 178:Generated_Source\PSoC4/cyCapsense_INT.c ****             #else
 179:Generated_Source\PSoC4/cyCapsense_INT.c ****                 {
 180:Generated_Source\PSoC4/cyCapsense_INT.c ****                     #if (cyCapsense_ENABLE == cyCapsense_BLOCK_OFF_AFTER_SCAN_EN)
 181:Generated_Source\PSoC4/cyCapsense_INT.c ****                         /* Disable Fourth-generation HW block */
 182:Generated_Source\PSoC4/cyCapsense_INT.c ****                         CY_SET_REG32(cyCapsense_CONFIG_PTR, cyCapsense_configCsd);
 183:Generated_Source\PSoC4/cyCapsense_INT.c ****                     #endif /* (cyCapsense_ENABLE == cyCapsense_BLOCK_OFF_AFTER_SCAN_EN) */
 184:Generated_Source\PSoC4/cyCapsense_INT.c **** 
 185:Generated_Source\PSoC4/cyCapsense_INT.c ****                     /* Update Scan Counter */
 186:Generated_Source\PSoC4/cyCapsense_INT.c ****                     cyCapsense_dsRam.scanCounter++;
 187:Generated_Source\PSoC4/cyCapsense_INT.c **** 
 188:Generated_Source\PSoC4/cyCapsense_INT.c ****                     /* Sensor is totally scanned. Reset BUSY flag */
 189:Generated_Source\PSoC4/cyCapsense_INT.c ****                     cyCapsense_dsRam.status &= ~(cyCapsense_SW_STS_BUSY | cyCapsense_WDGT_SW_STS_BU
 190:Generated_Source\PSoC4/cyCapsense_INT.c ****                 }
 191:Generated_Source\PSoC4/cyCapsense_INT.c ****             #endif /* (cyCapsense_ENABLE == cyCapsense_MULTI_FREQ_SCAN_EN) */
 192:Generated_Source\PSoC4/cyCapsense_INT.c ****     #if (cyCapsense_ENABLE == cyCapsense_CSD_NOISE_METRIC_EN)
 193:Generated_Source\PSoC4/cyCapsense_INT.c ****         }
 194:Generated_Source\PSoC4/cyCapsense_INT.c ****     #endif /* (cyCapsense_ENABLE == cyCapsense_CSD_NOISE_METRIC_EN) */
 195:Generated_Source\PSoC4/cyCapsense_INT.c **** 
 196:Generated_Source\PSoC4/cyCapsense_INT.c ****         #ifdef cyCapsense_EXIT_CALLBACK
 197:Generated_Source\PSoC4/cyCapsense_INT.c ****             cyCapsense_ExitCallback();
 198:Generated_Source\PSoC4/cyCapsense_INT.c ****         #endif /* cyCapsense_EXIT_CALLBACK */
 199:Generated_Source\PSoC4/cyCapsense_INT.c ****     }
 200:Generated_Source\PSoC4/cyCapsense_INT.c **** 
 201:Generated_Source\PSoC4/cyCapsense_INT.c **** 
 202:Generated_Source\PSoC4/cyCapsense_INT.c ****     /*******************************************************************************
ARM GAS  C:\Users\turan\AppData\Local\Temp\ccacGoag.s 			page 5


 203:Generated_Source\PSoC4/cyCapsense_INT.c ****     * Function Name: cyCapsense_CSDPostMultiScan
 204:Generated_Source\PSoC4/cyCapsense_INT.c ****     ****************************************************************************//**
 205:Generated_Source\PSoC4/cyCapsense_INT.c ****     *
 206:Generated_Source\PSoC4/cyCapsense_INT.c ****     * \brief
 207:Generated_Source\PSoC4/cyCapsense_INT.c ****     *  This is an internal ISR function for the multiple-sensor scanning
 208:Generated_Source\PSoC4/cyCapsense_INT.c ****     *  implementation.
 209:Generated_Source\PSoC4/cyCapsense_INT.c ****     *
 210:Generated_Source\PSoC4/cyCapsense_INT.c ****     * \details
 211:Generated_Source\PSoC4/cyCapsense_INT.c ****     *  This ISR handler is triggered when the user calls the
 212:Generated_Source\PSoC4/cyCapsense_INT.c ****     *  cyCapsense_Scan() or cyCapsense_ScanAllWidgets() APIs.
 213:Generated_Source\PSoC4/cyCapsense_INT.c ****     *
 214:Generated_Source\PSoC4/cyCapsense_INT.c ****     *  The following tasks are performed:
 215:Generated_Source\PSoC4/cyCapsense_INT.c ****     *    1. Disable the CSD interrupt.
 216:Generated_Source\PSoC4/cyCapsense_INT.c ****     *    2. Read the Counter register and update the data structure with raw data.
 217:Generated_Source\PSoC4/cyCapsense_INT.c ****     *    3. Connect the Vref buffer to the AMUX bus.
 218:Generated_Source\PSoC4/cyCapsense_INT.c ****     *    4. Disable the CSD block (after the widget has been scanned).
 219:Generated_Source\PSoC4/cyCapsense_INT.c ****     *    5. Update the Scan Counter.
 220:Generated_Source\PSoC4/cyCapsense_INT.c ****     *    6. Reset the BUSY flag.
 221:Generated_Source\PSoC4/cyCapsense_INT.c ****     *    7. Enable the CSD interrupt.
 222:Generated_Source\PSoC4/cyCapsense_INT.c ****     *
 223:Generated_Source\PSoC4/cyCapsense_INT.c ****     *  The ISR handler initializes scanning for the previous sensor when the
 224:Generated_Source\PSoC4/cyCapsense_INT.c ****     *  widget has more than one sensor.
 225:Generated_Source\PSoC4/cyCapsense_INT.c ****     *  The ISR handler initializes scanning for the next widget when the
 226:Generated_Source\PSoC4/cyCapsense_INT.c ****     *  cyCapsense_ScanAllWidgets() APIs are called and the project has
 227:Generated_Source\PSoC4/cyCapsense_INT.c ****     *  more than one widget.
 228:Generated_Source\PSoC4/cyCapsense_INT.c ****     *  The ISR handler changes the IMO and initializes scanning for the next
 229:Generated_Source\PSoC4/cyCapsense_INT.c ****     *  frequency channels when multi-frequency scanning is enabled.
 230:Generated_Source\PSoC4/cyCapsense_INT.c ****     *
 231:Generated_Source\PSoC4/cyCapsense_INT.c ****     *  This function has two Macro Callbacks that allow calling the user
 232:Generated_Source\PSoC4/cyCapsense_INT.c ****     *  code from macros specified in Component's generated code. Refer to the
 233:Generated_Source\PSoC4/cyCapsense_INT.c ****     *  \ref group_c_macrocallbacks section of the PSoC Creator User Guide
 234:Generated_Source\PSoC4/cyCapsense_INT.c ****     *  for details.
 235:Generated_Source\PSoC4/cyCapsense_INT.c ****     *
 236:Generated_Source\PSoC4/cyCapsense_INT.c ****     *******************************************************************************/
 237:Generated_Source\PSoC4/cyCapsense_INT.c ****     CY_ISR(cyCapsense_CSDPostMultiScan)
 238:Generated_Source\PSoC4/cyCapsense_INT.c ****     {
 239:Generated_Source\PSoC4/cyCapsense_INT.c ****         /* Declare and initialize ptr to sensor IO structure to appropriate address */
 240:Generated_Source\PSoC4/cyCapsense_INT.c ****         cyCapsense_FLASH_IO_STRUCT const *curSnsIOPtr = (cyCapsense_FLASH_IO_STRUCT const *)
 241:Generated_Source\PSoC4/cyCapsense_INT.c ****                                                           cyCapsense_dsFlash.wdgtArray[cyCapsense_w
 242:Generated_Source\PSoC4/cyCapsense_INT.c ****                                                           + cyCapsense_sensorIndex;
 243:Generated_Source\PSoC4/cyCapsense_INT.c **** 
 244:Generated_Source\PSoC4/cyCapsense_INT.c ****         #ifdef cyCapsense_ENTRY_CALLBACK
 245:Generated_Source\PSoC4/cyCapsense_INT.c ****             cyCapsense_EntryCallback();
 246:Generated_Source\PSoC4/cyCapsense_INT.c ****         #endif /* cyCapsense_ENTRY_CALLBACK */
 247:Generated_Source\PSoC4/cyCapsense_INT.c **** 
 248:Generated_Source\PSoC4/cyCapsense_INT.c ****         /* Clear pending interrupt */
 249:Generated_Source\PSoC4/cyCapsense_INT.c ****         CY_SET_REG32(cyCapsense_INTR_PTR, cyCapsense_INTR_SET_MASK);
 250:Generated_Source\PSoC4/cyCapsense_INT.c **** 
 251:Generated_Source\PSoC4/cyCapsense_INT.c ****         #if (cyCapsense_ENABLE == cyCapsense_CSD_NOISE_METRIC_EN)
 252:Generated_Source\PSoC4/cyCapsense_INT.c ****             if ((cyCapsense_CSD_NOISE_METRIC_TH < ((CY_GET_REG32(cyCapsense_RESULT_VAL1_PTR) &
 253:Generated_Source\PSoC4/cyCapsense_INT.c ****                                                       cyCapsense_RESULT_VAL1_BAD_CONVS_MASK) >>
 254:Generated_Source\PSoC4/cyCapsense_INT.c ****                                                       cyCapsense_RESULT_VAL1_BAD_CONVS_SHIFT)) &&
 255:Generated_Source\PSoC4/cyCapsense_INT.c ****                                                       (0u < cyCapsense_badConversionsNum))
 256:Generated_Source\PSoC4/cyCapsense_INT.c ****             {
 257:Generated_Source\PSoC4/cyCapsense_INT.c ****                 /* Decrement bad conversions number */
 258:Generated_Source\PSoC4/cyCapsense_INT.c ****                 cyCapsense_badConversionsNum--;
 259:Generated_Source\PSoC4/cyCapsense_INT.c **** 
ARM GAS  C:\Users\turan\AppData\Local\Temp\ccacGoag.s 			page 6


 260:Generated_Source\PSoC4/cyCapsense_INT.c ****                 /* Start the re-scan */
 261:Generated_Source\PSoC4/cyCapsense_INT.c ****                 CY_SET_REG32(cyCapsense_SEQ_START_PTR, cyCapsense_SEQ_START_AZ0_SKIP_MASK |
 262:Generated_Source\PSoC4/cyCapsense_INT.c ****                                                              cyCapsense_SEQ_START_AZ1_SKIP_MASK |
 263:Generated_Source\PSoC4/cyCapsense_INT.c ****                                                              cyCapsense_SEQ_START_START_MASK);
 264:Generated_Source\PSoC4/cyCapsense_INT.c ****             }
 265:Generated_Source\PSoC4/cyCapsense_INT.c ****             else
 266:Generated_Source\PSoC4/cyCapsense_INT.c ****             {
 267:Generated_Source\PSoC4/cyCapsense_INT.c ****         #endif /* (cyCapsense_ENABLE == cyCapsense_CSD_NOISE_METRIC_EN) */
 268:Generated_Source\PSoC4/cyCapsense_INT.c **** 
 269:Generated_Source\PSoC4/cyCapsense_INT.c ****             cyCapsense_SsCSDPostScan();
 270:Generated_Source\PSoC4/cyCapsense_INT.c **** 
 271:Generated_Source\PSoC4/cyCapsense_INT.c ****             /* Disable sensor when all frequency channels are scanned */
 272:Generated_Source\PSoC4/cyCapsense_INT.c ****             #if (cyCapsense_ENABLE == cyCapsense_MULTI_FREQ_SCAN_EN)
 273:Generated_Source\PSoC4/cyCapsense_INT.c ****                 if (cyCapsense_FREQ_CHANNEL_2 == cyCapsense_scanFreqIndex)
 274:Generated_Source\PSoC4/cyCapsense_INT.c ****             #endif /* (cyCapsense_ENABLE == cyCapsense_MULTI_FREQ_SCAN_EN) */
 275:Generated_Source\PSoC4/cyCapsense_INT.c ****             {
 276:Generated_Source\PSoC4/cyCapsense_INT.c ****                 /* Disable sensor */
 277:Generated_Source\PSoC4/cyCapsense_INT.c ****                 cyCapsense_CSDDisconnectSns(curSnsIOPtr);
 278:Generated_Source\PSoC4/cyCapsense_INT.c ****             }
 279:Generated_Source\PSoC4/cyCapsense_INT.c **** 
 280:Generated_Source\PSoC4/cyCapsense_INT.c ****             #if (cyCapsense_ENABLE == cyCapsense_MULTI_FREQ_SCAN_EN)
 281:Generated_Source\PSoC4/cyCapsense_INT.c ****                 if (cyCapsense_FREQ_CHANNEL_2 > cyCapsense_scanFreqIndex)
 282:Generated_Source\PSoC4/cyCapsense_INT.c ****                 {
 283:Generated_Source\PSoC4/cyCapsense_INT.c ****                      /* Scan the next channel */
 284:Generated_Source\PSoC4/cyCapsense_INT.c ****                     cyCapsense_SsNextFrequencyScan();
 285:Generated_Source\PSoC4/cyCapsense_INT.c ****                 }
 286:Generated_Source\PSoC4/cyCapsense_INT.c ****                 else
 287:Generated_Source\PSoC4/cyCapsense_INT.c ****                 {
 288:Generated_Source\PSoC4/cyCapsense_INT.c ****                      /* All channels are scanned. Set IMO to zero channel */
 289:Generated_Source\PSoC4/cyCapsense_INT.c ****                     cyCapsense_scanFreqIndex = cyCapsense_FREQ_CHANNEL_0;
 290:Generated_Source\PSoC4/cyCapsense_INT.c **** 
 291:Generated_Source\PSoC4/cyCapsense_INT.c ****                     #if (cyCapsense_MFS_IMO == cyCapsense_MFS_METHOD)
 292:Generated_Source\PSoC4/cyCapsense_INT.c ****                         cyCapsense_SsChangeImoFreq(cyCapsense_FREQ_CHANNEL_0);
 293:Generated_Source\PSoC4/cyCapsense_INT.c ****                     #else
 294:Generated_Source\PSoC4/cyCapsense_INT.c ****                         cyCapsense_SsChangeClkFreq(cyCapsense_FREQ_CHANNEL_0);
 295:Generated_Source\PSoC4/cyCapsense_INT.c ****                     #endif /* (cyCapsense_MFS_IMO == cyCapsense_MFS_METHOD) */
 296:Generated_Source\PSoC4/cyCapsense_INT.c **** 
 297:Generated_Source\PSoC4/cyCapsense_INT.c ****                      /* Scan the next sensor */
 298:Generated_Source\PSoC4/cyCapsense_INT.c ****                     cyCapsense_SsCSDInitNextScan();
 299:Generated_Source\PSoC4/cyCapsense_INT.c ****                 }
 300:Generated_Source\PSoC4/cyCapsense_INT.c ****             #else
 301:Generated_Source\PSoC4/cyCapsense_INT.c ****                 /* Scan the next sensor */
 302:Generated_Source\PSoC4/cyCapsense_INT.c ****                 cyCapsense_SsCSDInitNextScan();
 303:Generated_Source\PSoC4/cyCapsense_INT.c ****             #endif /* (cyCapsense_ENABLE == cyCapsense_MULTI_FREQ_SCAN_EN) */
 304:Generated_Source\PSoC4/cyCapsense_INT.c ****         #if (cyCapsense_ENABLE == cyCapsense_CSD_NOISE_METRIC_EN)
 305:Generated_Source\PSoC4/cyCapsense_INT.c ****             }
 306:Generated_Source\PSoC4/cyCapsense_INT.c ****         #endif /* (cyCapsense_ENABLE == cyCapsense_CSD_NOISE_METRIC_EN) */
 307:Generated_Source\PSoC4/cyCapsense_INT.c **** 
 308:Generated_Source\PSoC4/cyCapsense_INT.c ****         #ifdef cyCapsense_EXIT_CALLBACK
 309:Generated_Source\PSoC4/cyCapsense_INT.c ****             cyCapsense_ExitCallback();
 310:Generated_Source\PSoC4/cyCapsense_INT.c ****         #endif /* cyCapsense_EXIT_CALLBACK */
 311:Generated_Source\PSoC4/cyCapsense_INT.c ****     }
 312:Generated_Source\PSoC4/cyCapsense_INT.c **** 
 313:Generated_Source\PSoC4/cyCapsense_INT.c **** 
 314:Generated_Source\PSoC4/cyCapsense_INT.c ****     #if (cyCapsense_ENABLE == cyCapsense_CSD_GANGED_SNS_EN)
 315:Generated_Source\PSoC4/cyCapsense_INT.c ****     /*******************************************************************************
 316:Generated_Source\PSoC4/cyCapsense_INT.c ****     * Function Name: cyCapsense_CSDPostMultiScanGanged
ARM GAS  C:\Users\turan\AppData\Local\Temp\ccacGoag.s 			page 7


 317:Generated_Source\PSoC4/cyCapsense_INT.c ****     ****************************************************************************//**
 318:Generated_Source\PSoC4/cyCapsense_INT.c ****     *
 319:Generated_Source\PSoC4/cyCapsense_INT.c ****     * \brief
 320:Generated_Source\PSoC4/cyCapsense_INT.c ****     *  This is an internal ISR function for the multiple-sensor scanning
 321:Generated_Source\PSoC4/cyCapsense_INT.c ****     *  implementation for ganged sensors.
 322:Generated_Source\PSoC4/cyCapsense_INT.c ****     *
 323:Generated_Source\PSoC4/cyCapsense_INT.c ****     * \details
 324:Generated_Source\PSoC4/cyCapsense_INT.c ****     *  This ISR handler is triggered when the user calls the
 325:Generated_Source\PSoC4/cyCapsense_INT.c ****     *  cyCapsense_Scan() API for a ganged sensor or the
 326:Generated_Source\PSoC4/cyCapsense_INT.c ****     *  cyCapsense_ScanAllWidgets() API in the project with ganged sensors.
 327:Generated_Source\PSoC4/cyCapsense_INT.c ****     *
 328:Generated_Source\PSoC4/cyCapsense_INT.c ****     *  The following tasks are performed:
 329:Generated_Source\PSoC4/cyCapsense_INT.c ****     *    1. Disable the CSD interrupt.
 330:Generated_Source\PSoC4/cyCapsense_INT.c ****     *    2. Read the Counter register and update the data structure with raw data.
 331:Generated_Source\PSoC4/cyCapsense_INT.c ****     *    3. Connect the Vref buffer to the AMUX bus.
 332:Generated_Source\PSoC4/cyCapsense_INT.c ****     *    4. Disable the CSD block (after the widget has been scanned).
 333:Generated_Source\PSoC4/cyCapsense_INT.c ****     *    5. Update the Scan Counter.
 334:Generated_Source\PSoC4/cyCapsense_INT.c ****     *    6. Reset the BUSY flag.
 335:Generated_Source\PSoC4/cyCapsense_INT.c ****     *    7. Enable the CSD interrupt.
 336:Generated_Source\PSoC4/cyCapsense_INT.c ****     *
 337:Generated_Source\PSoC4/cyCapsense_INT.c ****     *  The ISR handler initializes scanning for the previous sensor when the
 338:Generated_Source\PSoC4/cyCapsense_INT.c ****     *  widget has more than one sensor.
 339:Generated_Source\PSoC4/cyCapsense_INT.c ****     *  The ISR handler initializes scanning for the next widget when the
 340:Generated_Source\PSoC4/cyCapsense_INT.c ****     *  cyCapsense_ScanAllWidgets() APIs are called and the project has
 341:Generated_Source\PSoC4/cyCapsense_INT.c ****     *  more than one widget.
 342:Generated_Source\PSoC4/cyCapsense_INT.c ****     *  The ISR handler changes the IMO and initializes scanning for the next
 343:Generated_Source\PSoC4/cyCapsense_INT.c ****     *  frequency channels when multi-frequency scanning is enabled.
 344:Generated_Source\PSoC4/cyCapsense_INT.c ****     *
 345:Generated_Source\PSoC4/cyCapsense_INT.c ****     *  This function has two Macro Callbacks that allow calling the user
 346:Generated_Source\PSoC4/cyCapsense_INT.c ****     *  code from macros specified in Component's generated code. Refer to the
 347:Generated_Source\PSoC4/cyCapsense_INT.c ****     *  \ref group_c_macrocallbacks section of the PSoC Creator User Guide
 348:Generated_Source\PSoC4/cyCapsense_INT.c ****     *  for details.
 349:Generated_Source\PSoC4/cyCapsense_INT.c ****     *
 350:Generated_Source\PSoC4/cyCapsense_INT.c ****     *******************************************************************************/
 351:Generated_Source\PSoC4/cyCapsense_INT.c ****     CY_ISR(cyCapsense_CSDPostMultiScanGanged)
 352:Generated_Source\PSoC4/cyCapsense_INT.c ****     {
 353:Generated_Source\PSoC4/cyCapsense_INT.c ****         #ifdef cyCapsense_ENTRY_CALLBACK
 354:Generated_Source\PSoC4/cyCapsense_INT.c ****             cyCapsense_EntryCallback();
 355:Generated_Source\PSoC4/cyCapsense_INT.c ****         #endif /* cyCapsense_ENTRY_CALLBACK */
 356:Generated_Source\PSoC4/cyCapsense_INT.c **** 
 357:Generated_Source\PSoC4/cyCapsense_INT.c ****         /* Clear pending interrupt */
 358:Generated_Source\PSoC4/cyCapsense_INT.c ****         CY_SET_REG32(cyCapsense_INTR_PTR, cyCapsense_INTR_SET_MASK);
 359:Generated_Source\PSoC4/cyCapsense_INT.c **** 
 360:Generated_Source\PSoC4/cyCapsense_INT.c ****         #if (cyCapsense_ENABLE == cyCapsense_CSD_NOISE_METRIC_EN)
 361:Generated_Source\PSoC4/cyCapsense_INT.c ****             if ((cyCapsense_CSD_NOISE_METRIC_TH < ((CY_GET_REG32(cyCapsense_RESULT_VAL1_PTR) &
 362:Generated_Source\PSoC4/cyCapsense_INT.c ****                                                       cyCapsense_RESULT_VAL1_BAD_CONVS_MASK) >>
 363:Generated_Source\PSoC4/cyCapsense_INT.c ****                                                       cyCapsense_RESULT_VAL1_BAD_CONVS_SHIFT)) &&
 364:Generated_Source\PSoC4/cyCapsense_INT.c ****                                                       (0u < cyCapsense_badConversionsNum))
 365:Generated_Source\PSoC4/cyCapsense_INT.c ****             {
 366:Generated_Source\PSoC4/cyCapsense_INT.c ****                 /* Decrement bad conversions number */
 367:Generated_Source\PSoC4/cyCapsense_INT.c ****                 cyCapsense_badConversionsNum--;
 368:Generated_Source\PSoC4/cyCapsense_INT.c **** 
 369:Generated_Source\PSoC4/cyCapsense_INT.c ****                 /* Start the re-scan */
 370:Generated_Source\PSoC4/cyCapsense_INT.c ****                 CY_SET_REG32(cyCapsense_SEQ_START_PTR, cyCapsense_SEQ_START_AZ0_SKIP_MASK |
 371:Generated_Source\PSoC4/cyCapsense_INT.c ****                                                              cyCapsense_SEQ_START_AZ1_SKIP_MASK |
 372:Generated_Source\PSoC4/cyCapsense_INT.c ****                                                              cyCapsense_SEQ_START_START_MASK);
 373:Generated_Source\PSoC4/cyCapsense_INT.c ****             }
ARM GAS  C:\Users\turan\AppData\Local\Temp\ccacGoag.s 			page 8


 374:Generated_Source\PSoC4/cyCapsense_INT.c ****             else
 375:Generated_Source\PSoC4/cyCapsense_INT.c ****             {
 376:Generated_Source\PSoC4/cyCapsense_INT.c ****         #endif /* (cyCapsense_ENABLE == cyCapsense_CSD_NOISE_METRIC_EN) */
 377:Generated_Source\PSoC4/cyCapsense_INT.c **** 
 378:Generated_Source\PSoC4/cyCapsense_INT.c ****             cyCapsense_SsCSDPostScan();
 379:Generated_Source\PSoC4/cyCapsense_INT.c **** 
 380:Generated_Source\PSoC4/cyCapsense_INT.c ****             #if (cyCapsense_ENABLE == cyCapsense_MULTI_FREQ_SCAN_EN)
 381:Generated_Source\PSoC4/cyCapsense_INT.c ****                 if (cyCapsense_FREQ_CHANNEL_2 == cyCapsense_scanFreqIndex)
 382:Generated_Source\PSoC4/cyCapsense_INT.c ****             #endif /* (cyCapsense_ENABLE == cyCapsense_MULTI_FREQ_SCAN_EN) */
 383:Generated_Source\PSoC4/cyCapsense_INT.c ****             {
 384:Generated_Source\PSoC4/cyCapsense_INT.c ****                 cyCapsense_SsCSDDisconnectSnsExt((uint32)cyCapsense_widgetIndex, (uint32)cyCapsense
 385:Generated_Source\PSoC4/cyCapsense_INT.c ****             }
 386:Generated_Source\PSoC4/cyCapsense_INT.c **** 
 387:Generated_Source\PSoC4/cyCapsense_INT.c ****             #if (cyCapsense_ENABLE == cyCapsense_MULTI_FREQ_SCAN_EN)
 388:Generated_Source\PSoC4/cyCapsense_INT.c ****                 if (cyCapsense_FREQ_CHANNEL_2 > cyCapsense_scanFreqIndex)
 389:Generated_Source\PSoC4/cyCapsense_INT.c ****                 {
 390:Generated_Source\PSoC4/cyCapsense_INT.c ****                      /* Scan the next channel */
 391:Generated_Source\PSoC4/cyCapsense_INT.c ****                     cyCapsense_SsNextFrequencyScan();
 392:Generated_Source\PSoC4/cyCapsense_INT.c ****                 }
 393:Generated_Source\PSoC4/cyCapsense_INT.c ****                 else
 394:Generated_Source\PSoC4/cyCapsense_INT.c ****                 {
 395:Generated_Source\PSoC4/cyCapsense_INT.c ****                     /* All channels are scanned. Set IMO to zero channel */
 396:Generated_Source\PSoC4/cyCapsense_INT.c ****                     cyCapsense_scanFreqIndex = cyCapsense_FREQ_CHANNEL_0;
 397:Generated_Source\PSoC4/cyCapsense_INT.c **** 
 398:Generated_Source\PSoC4/cyCapsense_INT.c ****                     #if (cyCapsense_MFS_IMO == cyCapsense_MFS_METHOD)
 399:Generated_Source\PSoC4/cyCapsense_INT.c ****                         cyCapsense_SsChangeImoFreq(cyCapsense_FREQ_CHANNEL_0);
 400:Generated_Source\PSoC4/cyCapsense_INT.c ****                     #else
 401:Generated_Source\PSoC4/cyCapsense_INT.c ****                         cyCapsense_SsChangeClkFreq(cyCapsense_FREQ_CHANNEL_0);
 402:Generated_Source\PSoC4/cyCapsense_INT.c ****                     #endif /* (cyCapsense_MFS_IMO == cyCapsense_MFS_METHOD) */
 403:Generated_Source\PSoC4/cyCapsense_INT.c **** 
 404:Generated_Source\PSoC4/cyCapsense_INT.c ****                      /* Scan the next sensor */
 405:Generated_Source\PSoC4/cyCapsense_INT.c ****                     cyCapsense_SsCSDInitNextScan();
 406:Generated_Source\PSoC4/cyCapsense_INT.c ****                 }
 407:Generated_Source\PSoC4/cyCapsense_INT.c ****             #else
 408:Generated_Source\PSoC4/cyCapsense_INT.c ****                  /* Scan the next sensor */
 409:Generated_Source\PSoC4/cyCapsense_INT.c ****                 cyCapsense_SsCSDInitNextScan();
 410:Generated_Source\PSoC4/cyCapsense_INT.c ****             #endif /* (cyCapsense_ENABLE == cyCapsense_MULTI_FREQ_SCAN_EN) */
 411:Generated_Source\PSoC4/cyCapsense_INT.c ****         #if (cyCapsense_ENABLE == cyCapsense_CSD_NOISE_METRIC_EN)
 412:Generated_Source\PSoC4/cyCapsense_INT.c ****             }
 413:Generated_Source\PSoC4/cyCapsense_INT.c ****         #endif /* (cyCapsense_ENABLE == cyCapsense_CSD_NOISE_METRIC_EN) */
 414:Generated_Source\PSoC4/cyCapsense_INT.c **** 
 415:Generated_Source\PSoC4/cyCapsense_INT.c ****         #ifdef cyCapsense_EXIT_CALLBACK
 416:Generated_Source\PSoC4/cyCapsense_INT.c ****             cyCapsense_ExitCallback();
 417:Generated_Source\PSoC4/cyCapsense_INT.c ****         #endif /* cyCapsense_EXIT_CALLBACK */
 418:Generated_Source\PSoC4/cyCapsense_INT.c ****     }
 419:Generated_Source\PSoC4/cyCapsense_INT.c ****     #endif /* (cyCapsense_ENABLE == cyCapsense_CSD_GANGED_SNS_EN) */
 420:Generated_Source\PSoC4/cyCapsense_INT.c **** 
 421:Generated_Source\PSoC4/cyCapsense_INT.c **** #else
 422:Generated_Source\PSoC4/cyCapsense_INT.c **** 
 423:Generated_Source\PSoC4/cyCapsense_INT.c ****     /* Third-generation HW block part */
 424:Generated_Source\PSoC4/cyCapsense_INT.c **** 
 425:Generated_Source\PSoC4/cyCapsense_INT.c ****     /*******************************************************************************
 426:Generated_Source\PSoC4/cyCapsense_INT.c ****     * Function Name: cyCapsense_CSDPostSingleScan
 427:Generated_Source\PSoC4/cyCapsense_INT.c ****     ****************************************************************************//**
 428:Generated_Source\PSoC4/cyCapsense_INT.c ****     *
 429:Generated_Source\PSoC4/cyCapsense_INT.c ****     * \brief
 430:Generated_Source\PSoC4/cyCapsense_INT.c ****     *  This is an internal ISR function for the single-sensor scanning implementation.
ARM GAS  C:\Users\turan\AppData\Local\Temp\ccacGoag.s 			page 9


 431:Generated_Source\PSoC4/cyCapsense_INT.c ****     *
 432:Generated_Source\PSoC4/cyCapsense_INT.c ****     * \details
 433:Generated_Source\PSoC4/cyCapsense_INT.c ****     *  This ISR handler is triggered when the user calls the
 434:Generated_Source\PSoC4/cyCapsense_INT.c ****     *  cyCapsense_CSDScanExt() function.
 435:Generated_Source\PSoC4/cyCapsense_INT.c ****     *
 436:Generated_Source\PSoC4/cyCapsense_INT.c ****     *  The following tasks are performed for Third-generation HW block:
 437:Generated_Source\PSoC4/cyCapsense_INT.c ****     *    1. Disable the CSD interrupt.
 438:Generated_Source\PSoC4/cyCapsense_INT.c ****     *    2. Read the Counter register and update the data structure with raw data.
 439:Generated_Source\PSoC4/cyCapsense_INT.c ****     *    3. Connect the Vref buffer to the AMUX bus.
 440:Generated_Source\PSoC4/cyCapsense_INT.c ****     *    4. Update the Scan Counter.
 441:Generated_Source\PSoC4/cyCapsense_INT.c ****     *    5. Reset the BUSY flag.
 442:Generated_Source\PSoC4/cyCapsense_INT.c ****     *    6. Enable the CSD interrupt.
 443:Generated_Source\PSoC4/cyCapsense_INT.c ****     *
 444:Generated_Source\PSoC4/cyCapsense_INT.c ****     *  The following tasks are performed for Fourth-generation HW block:
 445:Generated_Source\PSoC4/cyCapsense_INT.c ****     *    1. Check if the raw data is not noisy.
 446:Generated_Source\PSoC4/cyCapsense_INT.c ****     *    2. Read the Counter register and update the data structure with raw data.
 447:Generated_Source\PSoC4/cyCapsense_INT.c ****     *    3. Configure and start the scan for the next frequency if the
 448:Generated_Source\PSoC4/cyCapsense_INT.c ****     *      multi-frequency is enabled.
 449:Generated_Source\PSoC4/cyCapsense_INT.c ****     *    4. Update the Scan Counter.
 450:Generated_Source\PSoC4/cyCapsense_INT.c ****     *    5. Reset the BUSY flag.
 451:Generated_Source\PSoC4/cyCapsense_INT.c ****     *    6. Enable the CSD interrupt.
 452:Generated_Source\PSoC4/cyCapsense_INT.c ****     *
 453:Generated_Source\PSoC4/cyCapsense_INT.c ****     *  The ISR handler changes the IMO and initializes scanning for the next frequency
 454:Generated_Source\PSoC4/cyCapsense_INT.c ****     *  channels when multi-frequency scanning is enabled.
 455:Generated_Source\PSoC4/cyCapsense_INT.c ****     *
 456:Generated_Source\PSoC4/cyCapsense_INT.c ****     *  This function has two Macro Callbacks that allow calling the user code
 457:Generated_Source\PSoC4/cyCapsense_INT.c ****     *  from macros specified in Component's generated code. Refer to the
 458:Generated_Source\PSoC4/cyCapsense_INT.c ****     *  \ref group_c_macrocallbacks section of the PSoC Creator User Guide
 459:Generated_Source\PSoC4/cyCapsense_INT.c ****     *  for details.
 460:Generated_Source\PSoC4/cyCapsense_INT.c ****     *
 461:Generated_Source\PSoC4/cyCapsense_INT.c ****     *******************************************************************************/
 462:Generated_Source\PSoC4/cyCapsense_INT.c ****     CY_ISR(cyCapsense_CSDPostSingleScan)
 463:Generated_Source\PSoC4/cyCapsense_INT.c ****     {
 464:Generated_Source\PSoC4/cyCapsense_INT.c ****         #ifdef cyCapsense_ENTRY_CALLBACK
 465:Generated_Source\PSoC4/cyCapsense_INT.c ****             cyCapsense_EntryCallback();
 466:Generated_Source\PSoC4/cyCapsense_INT.c ****         #endif /* cyCapsense_ENTRY_CALLBACK */
 467:Generated_Source\PSoC4/cyCapsense_INT.c **** 
 468:Generated_Source\PSoC4/cyCapsense_INT.c ****         /* Clear pending interrupt */
 469:Generated_Source\PSoC4/cyCapsense_INT.c ****         CY_SET_REG32(cyCapsense_INTR_PTR, cyCapsense_INTR_SET_MASK);
 470:Generated_Source\PSoC4/cyCapsense_INT.c **** 
 471:Generated_Source\PSoC4/cyCapsense_INT.c ****         /* Read Rawdata */
 472:Generated_Source\PSoC4/cyCapsense_INT.c ****         cyCapsense_SsCSDPostScan();
 473:Generated_Source\PSoC4/cyCapsense_INT.c **** 
 474:Generated_Source\PSoC4/cyCapsense_INT.c ****         #if (cyCapsense_ENABLE == cyCapsense_MULTI_FREQ_SCAN_EN)
 475:Generated_Source\PSoC4/cyCapsense_INT.c ****             if (cyCapsense_FREQ_CHANNEL_2 > cyCapsense_scanFreqIndex)
 476:Generated_Source\PSoC4/cyCapsense_INT.c ****             {
 477:Generated_Source\PSoC4/cyCapsense_INT.c ****                 /* Connect Vref Buffer to AMUX bus. Third-generation HW block is enabled */
 478:Generated_Source\PSoC4/cyCapsense_INT.c ****                 CY_SET_REG32(cyCapsense_CONFIG_PTR, cyCapsense_configCsd | cyCapsense_CTANK_PRECHAR
 479:Generated_Source\PSoC4/cyCapsense_INT.c **** 
 480:Generated_Source\PSoC4/cyCapsense_INT.c ****                 cyCapsense_SsNextFrequencyScan();
 481:Generated_Source\PSoC4/cyCapsense_INT.c ****             }
 482:Generated_Source\PSoC4/cyCapsense_INT.c ****             else
 483:Generated_Source\PSoC4/cyCapsense_INT.c ****             {
 484:Generated_Source\PSoC4/cyCapsense_INT.c ****                 cyCapsense_scanFreqIndex = cyCapsense_FREQ_CHANNEL_0;
 485:Generated_Source\PSoC4/cyCapsense_INT.c **** 
 486:Generated_Source\PSoC4/cyCapsense_INT.c ****                 #if (cyCapsense_MFS_IMO == cyCapsense_MFS_METHOD)
 487:Generated_Source\PSoC4/cyCapsense_INT.c ****                     cyCapsense_SsChangeImoFreq(cyCapsense_FREQ_CHANNEL_0);
ARM GAS  C:\Users\turan\AppData\Local\Temp\ccacGoag.s 			page 10


 488:Generated_Source\PSoC4/cyCapsense_INT.c ****                 #else
 489:Generated_Source\PSoC4/cyCapsense_INT.c ****                     cyCapsense_SsChangeClkFreq(cyCapsense_FREQ_CHANNEL_0);
 490:Generated_Source\PSoC4/cyCapsense_INT.c ****                 #endif /* (cyCapsense_MFS_IMO == cyCapsense_MFS_METHOD) */
 491:Generated_Source\PSoC4/cyCapsense_INT.c **** 
 492:Generated_Source\PSoC4/cyCapsense_INT.c ****                 #if (cyCapsense_ENABLE == cyCapsense_BLOCK_OFF_AFTER_SCAN_EN)
 493:Generated_Source\PSoC4/cyCapsense_INT.c ****                     /* Disable Third-generation HW block. Connect Vref Buffer to AMUX bus */
 494:Generated_Source\PSoC4/cyCapsense_INT.c ****                     #if ((cyCapsense_CSH_PRECHARGE_IO_BUF == cyCapsense_CSD_CSH_PRECHARGE_SRC) &&\
 495:Generated_Source\PSoC4/cyCapsense_INT.c ****                          (cyCapsense_ENABLE == cyCapsense_CSD_SHIELD_TANK_EN))
 496:Generated_Source\PSoC4/cyCapsense_INT.c ****                         CY_SET_REG32(cyCapsense_CONFIG_PTR, cyCapsense_configCsd | cyCapsense_CMOD_
 497:Generated_Source\PSoC4/cyCapsense_INT.c ****                     #else
 498:Generated_Source\PSoC4/cyCapsense_INT.c ****                         CY_SET_REG32(cyCapsense_CONFIG_PTR, cyCapsense_configCsd | cyCapsense_CTANK
 499:Generated_Source\PSoC4/cyCapsense_INT.c ****                     #endif /* ((cyCapsense_CSH_PRECHARGE_IO_BUF == cyCapsense_CSD_CSH_PRECHARGE_SRC
 500:Generated_Source\PSoC4/cyCapsense_INT.c ****                                (cyCapsense_ENABLE == cyCapsense_CSD_SHIELD_TANK_EN)) */
 501:Generated_Source\PSoC4/cyCapsense_INT.c ****                 #else
 502:Generated_Source\PSoC4/cyCapsense_INT.c ****                     /* Connect Vref Buffer to AMUX bus. Third-generation HW block is enabled */
 503:Generated_Source\PSoC4/cyCapsense_INT.c ****                     CY_SET_REG32(cyCapsense_CONFIG_PTR, cyCapsense_configCsd | cyCapsense_CTANK_PRE
 504:Generated_Source\PSoC4/cyCapsense_INT.c ****                 #endif /* (cyCapsense_ENABLE == cyCapsense_BLOCK_OFF_AFTER_SCAN_EN) */
 505:Generated_Source\PSoC4/cyCapsense_INT.c **** 
 506:Generated_Source\PSoC4/cyCapsense_INT.c ****                 /* Update Scan Counter */
 507:Generated_Source\PSoC4/cyCapsense_INT.c ****                 cyCapsense_dsRam.scanCounter++;
 508:Generated_Source\PSoC4/cyCapsense_INT.c **** 
 509:Generated_Source\PSoC4/cyCapsense_INT.c ****                 /* Sensor is totally scanned. Reset BUSY flag */
 510:Generated_Source\PSoC4/cyCapsense_INT.c ****                 cyCapsense_dsRam.status &= ~(cyCapsense_SW_STS_BUSY | cyCapsense_WDGT_SW_STS_BUSY);
 511:Generated_Source\PSoC4/cyCapsense_INT.c ****             }
 512:Generated_Source\PSoC4/cyCapsense_INT.c ****         #else
 513:Generated_Source\PSoC4/cyCapsense_INT.c ****             {
 514:Generated_Source\PSoC4/cyCapsense_INT.c ****                 #if (cyCapsense_ENABLE == cyCapsense_BLOCK_OFF_AFTER_SCAN_EN)
 515:Generated_Source\PSoC4/cyCapsense_INT.c ****                     /* Disable Third-generation HW block. Connect Vref Buffer to AMUX bus */
 516:Generated_Source\PSoC4/cyCapsense_INT.c ****                     #if ((cyCapsense_CSH_PRECHARGE_IO_BUF == cyCapsense_CSD_CSH_PRECHARGE_SRC) &&\
 517:Generated_Source\PSoC4/cyCapsense_INT.c ****                          (cyCapsense_ENABLE == cyCapsense_CSD_SHIELD_TANK_EN))
 518:Generated_Source\PSoC4/cyCapsense_INT.c ****                         CY_SET_REG32(cyCapsense_CONFIG_PTR, cyCapsense_configCsd | cyCapsense_CMOD_
 519:Generated_Source\PSoC4/cyCapsense_INT.c ****                     #else
 520:Generated_Source\PSoC4/cyCapsense_INT.c ****                         CY_SET_REG32(cyCapsense_CONFIG_PTR, cyCapsense_configCsd | cyCapsense_CTANK
 521:Generated_Source\PSoC4/cyCapsense_INT.c ****                     #endif /* ((cyCapsense_CSH_PRECHARGE_IO_BUF == cyCapsense_CSD_CSH_PRECHARGE_SRC
 522:Generated_Source\PSoC4/cyCapsense_INT.c ****                                (cyCapsense_ENABLE == cyCapsense_CSD_SHIELD_TANK_EN)) */
 523:Generated_Source\PSoC4/cyCapsense_INT.c ****                 #else
 524:Generated_Source\PSoC4/cyCapsense_INT.c ****                     /* Connect Vref Buffer to AMUX bus. Third-generation HW block is enabled */
 525:Generated_Source\PSoC4/cyCapsense_INT.c ****                     CY_SET_REG32(cyCapsense_CONFIG_PTR, cyCapsense_configCsd | cyCapsense_CTANK_PRE
 526:Generated_Source\PSoC4/cyCapsense_INT.c ****                 #endif /* (cyCapsense_ENABLE == cyCapsense_BLOCK_OFF_AFTER_SCAN_EN) */
 527:Generated_Source\PSoC4/cyCapsense_INT.c **** 
 528:Generated_Source\PSoC4/cyCapsense_INT.c ****                 /* Update Scan Counter */
 529:Generated_Source\PSoC4/cyCapsense_INT.c ****                 cyCapsense_dsRam.scanCounter++;
 530:Generated_Source\PSoC4/cyCapsense_INT.c **** 
 531:Generated_Source\PSoC4/cyCapsense_INT.c ****                 /* Sensor is totally scanned. Reset BUSY flag */
 532:Generated_Source\PSoC4/cyCapsense_INT.c ****                 cyCapsense_dsRam.status &= ~(cyCapsense_SW_STS_BUSY | cyCapsense_WDGT_SW_STS_BUSY);
 533:Generated_Source\PSoC4/cyCapsense_INT.c ****             }
 534:Generated_Source\PSoC4/cyCapsense_INT.c ****         #endif /* (cyCapsense_ENABLE == cyCapsense_MULTI_FREQ_SCAN_EN) */
 535:Generated_Source\PSoC4/cyCapsense_INT.c **** 
 536:Generated_Source\PSoC4/cyCapsense_INT.c ****         #ifdef cyCapsense_EXIT_CALLBACK
 537:Generated_Source\PSoC4/cyCapsense_INT.c ****             cyCapsense_ExitCallback();
 538:Generated_Source\PSoC4/cyCapsense_INT.c ****         #endif /* cyCapsense_EXIT_CALLBACK */
 539:Generated_Source\PSoC4/cyCapsense_INT.c ****     }
 540:Generated_Source\PSoC4/cyCapsense_INT.c **** 
 541:Generated_Source\PSoC4/cyCapsense_INT.c **** 
 542:Generated_Source\PSoC4/cyCapsense_INT.c ****     /*******************************************************************************
 543:Generated_Source\PSoC4/cyCapsense_INT.c ****     * Function Name: cyCapsense_CSDPostMultiScan
 544:Generated_Source\PSoC4/cyCapsense_INT.c ****     ****************************************************************************//**
ARM GAS  C:\Users\turan\AppData\Local\Temp\ccacGoag.s 			page 11


 545:Generated_Source\PSoC4/cyCapsense_INT.c ****     *
 546:Generated_Source\PSoC4/cyCapsense_INT.c ****     * \brief
 547:Generated_Source\PSoC4/cyCapsense_INT.c ****     *  This is an internal ISR function for the multiple-sensor scanning
 548:Generated_Source\PSoC4/cyCapsense_INT.c ****     *  implementation.
 549:Generated_Source\PSoC4/cyCapsense_INT.c ****     *
 550:Generated_Source\PSoC4/cyCapsense_INT.c ****     * \details
 551:Generated_Source\PSoC4/cyCapsense_INT.c ****     *  This ISR handler is triggered when the user calls the
 552:Generated_Source\PSoC4/cyCapsense_INT.c ****     *  cyCapsense_Scan() or cyCapsense_ScanAllWidgets() APIs.
 553:Generated_Source\PSoC4/cyCapsense_INT.c ****     *
 554:Generated_Source\PSoC4/cyCapsense_INT.c ****     *  The following tasks are performed:
 555:Generated_Source\PSoC4/cyCapsense_INT.c ****     *    1. Disable the CSD interrupt.
 556:Generated_Source\PSoC4/cyCapsense_INT.c ****     *    2. Read the Counter register and update the data structure with raw data.
 557:Generated_Source\PSoC4/cyCapsense_INT.c ****     *    3. Connect the Vref buffer to the AMUX bus.
 558:Generated_Source\PSoC4/cyCapsense_INT.c ****     *    4. Disable the CSD block (after the widget has been scanned).
 559:Generated_Source\PSoC4/cyCapsense_INT.c ****     *    5. Update the Scan Counter.
 560:Generated_Source\PSoC4/cyCapsense_INT.c ****     *    6. Reset the BUSY flag.
 561:Generated_Source\PSoC4/cyCapsense_INT.c ****     *    7. Enable the CSD interrupt.
 562:Generated_Source\PSoC4/cyCapsense_INT.c ****     *
 563:Generated_Source\PSoC4/cyCapsense_INT.c ****     *  The ISR handler initializes scanning for the previous sensor when the
 564:Generated_Source\PSoC4/cyCapsense_INT.c ****     *  widget has more than one sensor.
 565:Generated_Source\PSoC4/cyCapsense_INT.c ****     *  The ISR handler initializes scanning for the next widget when the
 566:Generated_Source\PSoC4/cyCapsense_INT.c ****     *  cyCapsense_ScanAllWidgets() APIs are called and the project has
 567:Generated_Source\PSoC4/cyCapsense_INT.c ****     *  more than one widget.
 568:Generated_Source\PSoC4/cyCapsense_INT.c ****     *  The ISR handler changes the IMO and initializes scanning for the next
 569:Generated_Source\PSoC4/cyCapsense_INT.c ****     *  frequency channels when multi-frequency scanning is enabled.
 570:Generated_Source\PSoC4/cyCapsense_INT.c ****     *
 571:Generated_Source\PSoC4/cyCapsense_INT.c ****     *  This function has two Macro Callbacks that allow calling the user
 572:Generated_Source\PSoC4/cyCapsense_INT.c ****     *  code from macros specified in Component's generated code. Refer to the
 573:Generated_Source\PSoC4/cyCapsense_INT.c ****     *  \ref group_c_macrocallbacks section of the PSoC Creator User Guide
 574:Generated_Source\PSoC4/cyCapsense_INT.c ****     *  for details.
 575:Generated_Source\PSoC4/cyCapsense_INT.c ****     *
 576:Generated_Source\PSoC4/cyCapsense_INT.c ****     *******************************************************************************/
 577:Generated_Source\PSoC4/cyCapsense_INT.c ****     CY_ISR(cyCapsense_CSDPostMultiScan)
 578:Generated_Source\PSoC4/cyCapsense_INT.c ****     {
 579:Generated_Source\PSoC4/cyCapsense_INT.c ****         /* Declare and initialize ptr to sensor IO structure to appropriate address        */
 580:Generated_Source\PSoC4/cyCapsense_INT.c ****         cyCapsense_FLASH_IO_STRUCT const *curSnsIOPtr = (cyCapsense_FLASH_IO_STRUCT const *)
 581:Generated_Source\PSoC4/cyCapsense_INT.c ****                                                           cyCapsense_dsFlash.wdgtArray[cyCapsense_w
 582:Generated_Source\PSoC4/cyCapsense_INT.c ****                                                           + cyCapsense_sensorIndex;
 583:Generated_Source\PSoC4/cyCapsense_INT.c **** 
 584:Generated_Source\PSoC4/cyCapsense_INT.c ****         #ifdef cyCapsense_ENTRY_CALLBACK
 585:Generated_Source\PSoC4/cyCapsense_INT.c ****             cyCapsense_EntryCallback();
 586:Generated_Source\PSoC4/cyCapsense_INT.c ****         #endif /* cyCapsense_ENTRY_CALLBACK */
 587:Generated_Source\PSoC4/cyCapsense_INT.c **** 
 588:Generated_Source\PSoC4/cyCapsense_INT.c ****         /* Clear pending interrupt */
 589:Generated_Source\PSoC4/cyCapsense_INT.c ****         CY_SET_REG32(cyCapsense_INTR_PTR, cyCapsense_INTR_SET_MASK);
 590:Generated_Source\PSoC4/cyCapsense_INT.c **** 
 591:Generated_Source\PSoC4/cyCapsense_INT.c ****          /* Read Rawdata */
 592:Generated_Source\PSoC4/cyCapsense_INT.c ****         cyCapsense_SsCSDPostScan();
 593:Generated_Source\PSoC4/cyCapsense_INT.c **** 
 594:Generated_Source\PSoC4/cyCapsense_INT.c ****         /* Connect Vref Buffer to AMUX bus */
 595:Generated_Source\PSoC4/cyCapsense_INT.c ****         CY_SET_REG32(cyCapsense_CONFIG_PTR, cyCapsense_configCsd | cyCapsense_CTANK_PRECHARGE_CONFI
 596:Generated_Source\PSoC4/cyCapsense_INT.c **** 
 597:Generated_Source\PSoC4/cyCapsense_INT.c ****         #if (cyCapsense_ENABLE == cyCapsense_MULTI_FREQ_SCAN_EN)
 598:Generated_Source\PSoC4/cyCapsense_INT.c ****             /* Disable sensor when all frequency channels are scanned */
 599:Generated_Source\PSoC4/cyCapsense_INT.c ****             if (cyCapsense_FREQ_CHANNEL_2 == cyCapsense_scanFreqIndex)
 600:Generated_Source\PSoC4/cyCapsense_INT.c ****             {
 601:Generated_Source\PSoC4/cyCapsense_INT.c ****                 /* Disable sensor */
ARM GAS  C:\Users\turan\AppData\Local\Temp\ccacGoag.s 			page 12


 602:Generated_Source\PSoC4/cyCapsense_INT.c ****                 cyCapsense_CSDDisconnectSns(curSnsIOPtr);
 603:Generated_Source\PSoC4/cyCapsense_INT.c ****             }
 604:Generated_Source\PSoC4/cyCapsense_INT.c ****         #else
 605:Generated_Source\PSoC4/cyCapsense_INT.c ****             /* Disable sensor */
 606:Generated_Source\PSoC4/cyCapsense_INT.c ****             cyCapsense_CSDDisconnectSns(curSnsIOPtr);
 607:Generated_Source\PSoC4/cyCapsense_INT.c ****         #endif /* (cyCapsense_ENABLE == cyCapsense_MULTI_FREQ_SCAN_EN) */
 608:Generated_Source\PSoC4/cyCapsense_INT.c **** 
 609:Generated_Source\PSoC4/cyCapsense_INT.c ****         #if (cyCapsense_ENABLE == cyCapsense_MULTI_FREQ_SCAN_EN)
 610:Generated_Source\PSoC4/cyCapsense_INT.c ****             if (cyCapsense_FREQ_CHANNEL_2 > cyCapsense_scanFreqIndex)
 611:Generated_Source\PSoC4/cyCapsense_INT.c ****             {
 612:Generated_Source\PSoC4/cyCapsense_INT.c ****                  /* Scan the next channel */
 613:Generated_Source\PSoC4/cyCapsense_INT.c ****                 cyCapsense_SsNextFrequencyScan();
 614:Generated_Source\PSoC4/cyCapsense_INT.c ****             }
 615:Generated_Source\PSoC4/cyCapsense_INT.c ****             else
 616:Generated_Source\PSoC4/cyCapsense_INT.c ****             {
 617:Generated_Source\PSoC4/cyCapsense_INT.c ****                  /* All channels are scanned. Set IMO to zero channel */
 618:Generated_Source\PSoC4/cyCapsense_INT.c ****                 cyCapsense_scanFreqIndex = cyCapsense_FREQ_CHANNEL_0;
 619:Generated_Source\PSoC4/cyCapsense_INT.c **** 
 620:Generated_Source\PSoC4/cyCapsense_INT.c ****                 #if (cyCapsense_MFS_IMO == cyCapsense_MFS_METHOD)
 621:Generated_Source\PSoC4/cyCapsense_INT.c ****                     cyCapsense_SsChangeImoFreq(cyCapsense_FREQ_CHANNEL_0);
 622:Generated_Source\PSoC4/cyCapsense_INT.c ****                 #else
 623:Generated_Source\PSoC4/cyCapsense_INT.c ****                     cyCapsense_SsChangeClkFreq(cyCapsense_FREQ_CHANNEL_0);
 624:Generated_Source\PSoC4/cyCapsense_INT.c ****                 #endif /* (cyCapsense_MFS_IMO == cyCapsense_MFS_METHOD) */
 625:Generated_Source\PSoC4/cyCapsense_INT.c **** 
 626:Generated_Source\PSoC4/cyCapsense_INT.c ****                  /* Scan the next sensor */
 627:Generated_Source\PSoC4/cyCapsense_INT.c ****                 cyCapsense_SsCSDInitNextScan();
 628:Generated_Source\PSoC4/cyCapsense_INT.c ****             }
 629:Generated_Source\PSoC4/cyCapsense_INT.c ****         #else
 630:Generated_Source\PSoC4/cyCapsense_INT.c ****             /* Scan the next sensor */
 631:Generated_Source\PSoC4/cyCapsense_INT.c ****             cyCapsense_SsCSDInitNextScan();
 632:Generated_Source\PSoC4/cyCapsense_INT.c ****         #endif /* (cyCapsense_ENABLE == cyCapsense_MULTI_FREQ_SCAN_EN) */
 633:Generated_Source\PSoC4/cyCapsense_INT.c **** 
 634:Generated_Source\PSoC4/cyCapsense_INT.c ****         #ifdef cyCapsense_EXIT_CALLBACK
 635:Generated_Source\PSoC4/cyCapsense_INT.c ****             cyCapsense_ExitCallback();
 636:Generated_Source\PSoC4/cyCapsense_INT.c ****         #endif /* cyCapsense_EXIT_CALLBACK */
 637:Generated_Source\PSoC4/cyCapsense_INT.c ****     }
 638:Generated_Source\PSoC4/cyCapsense_INT.c **** 
 639:Generated_Source\PSoC4/cyCapsense_INT.c **** 
 640:Generated_Source\PSoC4/cyCapsense_INT.c ****     #if (cyCapsense_ENABLE == cyCapsense_CSD_GANGED_SNS_EN)
 641:Generated_Source\PSoC4/cyCapsense_INT.c ****     /*******************************************************************************
 642:Generated_Source\PSoC4/cyCapsense_INT.c ****     * Function Name: cyCapsense_CSDPostMultiScanGanged
 643:Generated_Source\PSoC4/cyCapsense_INT.c ****     ****************************************************************************//**
 644:Generated_Source\PSoC4/cyCapsense_INT.c ****     *
 645:Generated_Source\PSoC4/cyCapsense_INT.c ****     * \brief
 646:Generated_Source\PSoC4/cyCapsense_INT.c ****     *  This is an internal ISR function for the multiple-sensor scanning
 647:Generated_Source\PSoC4/cyCapsense_INT.c ****     *  implementation for ganged sensors.
 648:Generated_Source\PSoC4/cyCapsense_INT.c ****     *
 649:Generated_Source\PSoC4/cyCapsense_INT.c ****     * \details
 650:Generated_Source\PSoC4/cyCapsense_INT.c ****     *  This ISR handler is triggered when the user calls the
 651:Generated_Source\PSoC4/cyCapsense_INT.c ****     *  cyCapsense_Scan() API for a ganged sensor or the
 652:Generated_Source\PSoC4/cyCapsense_INT.c ****     *  cyCapsense_ScanAllWidgets() API in the project with ganged sensors.
 653:Generated_Source\PSoC4/cyCapsense_INT.c ****     *
 654:Generated_Source\PSoC4/cyCapsense_INT.c ****     *  The following tasks are performed:
 655:Generated_Source\PSoC4/cyCapsense_INT.c ****     *    1. Disable the CSD interrupt.
 656:Generated_Source\PSoC4/cyCapsense_INT.c ****     *    2. Read the Counter register and update the data structure with raw data.
 657:Generated_Source\PSoC4/cyCapsense_INT.c ****     *    3. Connect the Vref buffer to the AMUX bus.
 658:Generated_Source\PSoC4/cyCapsense_INT.c ****     *    4. Disable the CSD block (after the widget has been scanned).
ARM GAS  C:\Users\turan\AppData\Local\Temp\ccacGoag.s 			page 13


 659:Generated_Source\PSoC4/cyCapsense_INT.c ****     *    5. Update the Scan Counter.
 660:Generated_Source\PSoC4/cyCapsense_INT.c ****     *    6. Reset the BUSY flag.
 661:Generated_Source\PSoC4/cyCapsense_INT.c ****     *    7. Enable the CSD interrupt.
 662:Generated_Source\PSoC4/cyCapsense_INT.c ****     *
 663:Generated_Source\PSoC4/cyCapsense_INT.c ****     *  The ISR handler initializes scanning for the previous sensor when the
 664:Generated_Source\PSoC4/cyCapsense_INT.c ****     *  widget has more than one sensor.
 665:Generated_Source\PSoC4/cyCapsense_INT.c ****     *  The ISR handler initializes scanning for the next widget when the
 666:Generated_Source\PSoC4/cyCapsense_INT.c ****     *  cyCapsense_ScanAllWidgets() APIs are called and the project has
 667:Generated_Source\PSoC4/cyCapsense_INT.c ****     *  more than one widget.
 668:Generated_Source\PSoC4/cyCapsense_INT.c ****     *  The ISR handler changes the IMO and initializes scanning for the next
 669:Generated_Source\PSoC4/cyCapsense_INT.c ****     *  frequency channels when multi-frequency scanning is enabled.
 670:Generated_Source\PSoC4/cyCapsense_INT.c ****     *
 671:Generated_Source\PSoC4/cyCapsense_INT.c ****     *  This function has two Macro Callbacks that allow calling the user
 672:Generated_Source\PSoC4/cyCapsense_INT.c ****     *  code from macros specified in Component's generated code. Refer to the
 673:Generated_Source\PSoC4/cyCapsense_INT.c ****     *  \ref group_c_macrocallbacks section of the PSoC Creator User Guide
 674:Generated_Source\PSoC4/cyCapsense_INT.c ****     *  for details.
 675:Generated_Source\PSoC4/cyCapsense_INT.c ****     *
 676:Generated_Source\PSoC4/cyCapsense_INT.c ****     *******************************************************************************/
 677:Generated_Source\PSoC4/cyCapsense_INT.c ****     CY_ISR(cyCapsense_CSDPostMultiScanGanged)
 678:Generated_Source\PSoC4/cyCapsense_INT.c ****     {
 679:Generated_Source\PSoC4/cyCapsense_INT.c ****         #ifdef cyCapsense_ENTRY_CALLBACK
 680:Generated_Source\PSoC4/cyCapsense_INT.c ****             cyCapsense_EntryCallback();
 681:Generated_Source\PSoC4/cyCapsense_INT.c ****         #endif /* cyCapsense_ENTRY_CALLBACK */
 682:Generated_Source\PSoC4/cyCapsense_INT.c **** 
 683:Generated_Source\PSoC4/cyCapsense_INT.c ****         /* Clear pending interrupt */
 684:Generated_Source\PSoC4/cyCapsense_INT.c ****         CY_SET_REG32(cyCapsense_INTR_PTR, cyCapsense_INTR_SET_MASK);
 685:Generated_Source\PSoC4/cyCapsense_INT.c **** 
 686:Generated_Source\PSoC4/cyCapsense_INT.c ****          /* Read Rawdata */
 687:Generated_Source\PSoC4/cyCapsense_INT.c ****         cyCapsense_SsCSDPostScan();
 688:Generated_Source\PSoC4/cyCapsense_INT.c **** 
 689:Generated_Source\PSoC4/cyCapsense_INT.c ****         /* Connect Vref Buffer to AMUX bus */
 690:Generated_Source\PSoC4/cyCapsense_INT.c ****         CY_SET_REG32(cyCapsense_CONFIG_PTR, cyCapsense_configCsd | cyCapsense_CTANK_PRECHARGE_CONFI
 691:Generated_Source\PSoC4/cyCapsense_INT.c **** 
 692:Generated_Source\PSoC4/cyCapsense_INT.c ****         #if (cyCapsense_ENABLE == cyCapsense_MULTI_FREQ_SCAN_EN)
 693:Generated_Source\PSoC4/cyCapsense_INT.c ****             if (cyCapsense_FREQ_CHANNEL_2 == cyCapsense_scanFreqIndex)
 694:Generated_Source\PSoC4/cyCapsense_INT.c ****             {
 695:Generated_Source\PSoC4/cyCapsense_INT.c ****                 cyCapsense_SsCSDDisconnectSnsExt((uint32)cyCapsense_widgetIndex, (uint32)cyCapsense
 696:Generated_Source\PSoC4/cyCapsense_INT.c ****             }
 697:Generated_Source\PSoC4/cyCapsense_INT.c ****         #else
 698:Generated_Source\PSoC4/cyCapsense_INT.c ****             cyCapsense_SsCSDDisconnectSnsExt((uint32)cyCapsense_widgetIndex, (uint32)cyCapsense_sen
 699:Generated_Source\PSoC4/cyCapsense_INT.c ****         #endif /* (cyCapsense_ENABLE == cyCapsense_MULTI_FREQ_SCAN_EN) */
 700:Generated_Source\PSoC4/cyCapsense_INT.c **** 
 701:Generated_Source\PSoC4/cyCapsense_INT.c ****         #if (cyCapsense_ENABLE == cyCapsense_MULTI_FREQ_SCAN_EN)
 702:Generated_Source\PSoC4/cyCapsense_INT.c ****             if (cyCapsense_FREQ_CHANNEL_2 > cyCapsense_scanFreqIndex)
 703:Generated_Source\PSoC4/cyCapsense_INT.c ****             {
 704:Generated_Source\PSoC4/cyCapsense_INT.c ****                  /* Scan the next channel */
 705:Generated_Source\PSoC4/cyCapsense_INT.c ****                 cyCapsense_SsNextFrequencyScan();
 706:Generated_Source\PSoC4/cyCapsense_INT.c ****             }
 707:Generated_Source\PSoC4/cyCapsense_INT.c ****             else
 708:Generated_Source\PSoC4/cyCapsense_INT.c ****             {
 709:Generated_Source\PSoC4/cyCapsense_INT.c ****                 /* All channels are scanned. Set IMO to zero channel */
 710:Generated_Source\PSoC4/cyCapsense_INT.c ****                 cyCapsense_scanFreqIndex = cyCapsense_FREQ_CHANNEL_0;
 711:Generated_Source\PSoC4/cyCapsense_INT.c **** 
 712:Generated_Source\PSoC4/cyCapsense_INT.c ****                 #if (cyCapsense_MFS_IMO == cyCapsense_MFS_METHOD)
 713:Generated_Source\PSoC4/cyCapsense_INT.c ****                     cyCapsense_SsChangeImoFreq(cyCapsense_FREQ_CHANNEL_0);
 714:Generated_Source\PSoC4/cyCapsense_INT.c ****                 #else
 715:Generated_Source\PSoC4/cyCapsense_INT.c ****                     cyCapsense_SsChangeClkFreq(cyCapsense_FREQ_CHANNEL_0);
ARM GAS  C:\Users\turan\AppData\Local\Temp\ccacGoag.s 			page 14


 716:Generated_Source\PSoC4/cyCapsense_INT.c ****                 #endif /* (cyCapsense_MFS_IMO == cyCapsense_MFS_METHOD) */
 717:Generated_Source\PSoC4/cyCapsense_INT.c **** 
 718:Generated_Source\PSoC4/cyCapsense_INT.c ****                  /* Scan the next sensor */
 719:Generated_Source\PSoC4/cyCapsense_INT.c ****                 cyCapsense_SsCSDInitNextScan();
 720:Generated_Source\PSoC4/cyCapsense_INT.c ****             }
 721:Generated_Source\PSoC4/cyCapsense_INT.c ****         #else
 722:Generated_Source\PSoC4/cyCapsense_INT.c ****              /* Scan the next sensor */
 723:Generated_Source\PSoC4/cyCapsense_INT.c ****             cyCapsense_SsCSDInitNextScan();
 724:Generated_Source\PSoC4/cyCapsense_INT.c ****         #endif /* (cyCapsense_ENABLE == cyCapsense_MULTI_FREQ_SCAN_EN) */
 725:Generated_Source\PSoC4/cyCapsense_INT.c **** 
 726:Generated_Source\PSoC4/cyCapsense_INT.c ****         #ifdef cyCapsense_EXIT_CALLBACK
 727:Generated_Source\PSoC4/cyCapsense_INT.c ****             cyCapsense_ExitCallback();
 728:Generated_Source\PSoC4/cyCapsense_INT.c ****         #endif /* cyCapsense_EXIT_CALLBACK */
 729:Generated_Source\PSoC4/cyCapsense_INT.c ****     }
 730:Generated_Source\PSoC4/cyCapsense_INT.c ****     #endif /* (cyCapsense_ENABLE == cyCapsense_CSD_GANGED_SNS_EN) */
 731:Generated_Source\PSoC4/cyCapsense_INT.c **** 
 732:Generated_Source\PSoC4/cyCapsense_INT.c **** #endif /* (cyCapsense_ENABLE == cyCapsense_CSDV2) */
 733:Generated_Source\PSoC4/cyCapsense_INT.c **** 
 734:Generated_Source\PSoC4/cyCapsense_INT.c **** #endif /* ((cyCapsense_ENABLE == cyCapsense_CSD_EN) || (cyCapsense_ENABLE == cyCapsense_CSD_CSX_EN)
 735:Generated_Source\PSoC4/cyCapsense_INT.c **** 
 736:Generated_Source\PSoC4/cyCapsense_INT.c **** /** \}
 737:Generated_Source\PSoC4/cyCapsense_INT.c ****  * \endcond */
 738:Generated_Source\PSoC4/cyCapsense_INT.c **** 
 739:Generated_Source\PSoC4/cyCapsense_INT.c **** 
 740:Generated_Source\PSoC4/cyCapsense_INT.c **** #if ((cyCapsense_ENABLE == cyCapsense_CSD_EN) || (cyCapsense_ENABLE == cyCapsense_CSD_CSX_EN))
 741:Generated_Source\PSoC4/cyCapsense_INT.c **** 
 742:Generated_Source\PSoC4/cyCapsense_INT.c **** /*******************************************************************************
 743:Generated_Source\PSoC4/cyCapsense_INT.c **** * Function Name: cyCapsense_SsCSDPostScan
 744:Generated_Source\PSoC4/cyCapsense_INT.c **** ****************************************************************************//**
 745:Generated_Source\PSoC4/cyCapsense_INT.c **** *
 746:Generated_Source\PSoC4/cyCapsense_INT.c **** * \brief
 747:Generated_Source\PSoC4/cyCapsense_INT.c **** *   This function reads rawdata and releases required HW resources after scan.
 748:Generated_Source\PSoC4/cyCapsense_INT.c **** *
 749:Generated_Source\PSoC4/cyCapsense_INT.c **** * \details
 750:Generated_Source\PSoC4/cyCapsense_INT.c **** *   This function performs following tasks after scan:
 751:Generated_Source\PSoC4/cyCapsense_INT.c **** *   - Reads SlotResult from Raw Counter;
 752:Generated_Source\PSoC4/cyCapsense_INT.c **** *   - Inits bad Conversions number;
 753:Generated_Source\PSoC4/cyCapsense_INT.c **** *   - Disconnects Vrefhi from AMUBUF positive input;
 754:Generated_Source\PSoC4/cyCapsense_INT.c **** *   - Disconnects AMUBUF output from CSDBUSB with sych PHI2+HSCMP;
 755:Generated_Source\PSoC4/cyCapsense_INT.c **** *   - Opens HCBV and HCBG switches.
 756:Generated_Source\PSoC4/cyCapsense_INT.c **** *
 757:Generated_Source\PSoC4/cyCapsense_INT.c **** *******************************************************************************/
 758:Generated_Source\PSoC4/cyCapsense_INT.c **** static void cyCapsense_SsCSDPostScan(void)
 759:Generated_Source\PSoC4/cyCapsense_INT.c **** {
  27              		.loc 1 759 0
  28              		.cfi_startproc
  29              		@ args = 0, pretend = 0, frame = 0
  30              		@ frame_needed = 0, uses_anonymous_args = 0
  31              		@ link register save eliminated.
 760:Generated_Source\PSoC4/cyCapsense_INT.c ****     #if (cyCapsense_ENABLE == cyCapsense_CSDV2)
 761:Generated_Source\PSoC4/cyCapsense_INT.c **** 
 762:Generated_Source\PSoC4/cyCapsense_INT.c ****         uint32 tmpRawData;
 763:Generated_Source\PSoC4/cyCapsense_INT.c ****         uint32 tmpMaxCount;
 764:Generated_Source\PSoC4/cyCapsense_INT.c ****         cyCapsense_RAM_WD_BASE_STRUCT const *ptrWdgt = (cyCapsense_RAM_WD_BASE_STRUCT *)
 765:Generated_Source\PSoC4/cyCapsense_INT.c ****                                             cyCapsense_dsFlash.wdgtArray[cyCapsense_widgetIndex].pt
 766:Generated_Source\PSoC4/cyCapsense_INT.c **** 
 767:Generated_Source\PSoC4/cyCapsense_INT.c ****         /* Read SlotResult from Raw Counter */
ARM GAS  C:\Users\turan\AppData\Local\Temp\ccacGoag.s 			page 15


 768:Generated_Source\PSoC4/cyCapsense_INT.c ****         tmpRawData = cyCapsense_RESULT_VAL1_VALUE_MASK & CY_GET_REG32(cyCapsense_COUNTER_PTR);
 769:Generated_Source\PSoC4/cyCapsense_INT.c **** 
 770:Generated_Source\PSoC4/cyCapsense_INT.c ****         tmpMaxCount = ((1uL << ptrWdgt->resolution) - 1uL);
 771:Generated_Source\PSoC4/cyCapsense_INT.c ****         if(tmpRawData < tmpMaxCount)
 772:Generated_Source\PSoC4/cyCapsense_INT.c ****         {
 773:Generated_Source\PSoC4/cyCapsense_INT.c ****             cyCapsense_curRamSnsPtr->raw[cyCapsense_scanFreqIndex] = LO16(tmpRawData);
 774:Generated_Source\PSoC4/cyCapsense_INT.c ****         }
 775:Generated_Source\PSoC4/cyCapsense_INT.c ****         else
 776:Generated_Source\PSoC4/cyCapsense_INT.c ****         {
 777:Generated_Source\PSoC4/cyCapsense_INT.c ****             cyCapsense_curRamSnsPtr->raw[cyCapsense_scanFreqIndex] = LO16(tmpMaxCount);
 778:Generated_Source\PSoC4/cyCapsense_INT.c ****         }
 779:Generated_Source\PSoC4/cyCapsense_INT.c **** 
 780:Generated_Source\PSoC4/cyCapsense_INT.c ****         #if (cyCapsense_ENABLE == cyCapsense_CSD_NOISE_METRIC_EN)
 781:Generated_Source\PSoC4/cyCapsense_INT.c ****             /* Init bad Conversions number */
 782:Generated_Source\PSoC4/cyCapsense_INT.c ****             cyCapsense_badConversionsNum = cyCapsense_BAD_CONVERSIONS_NUM;
 783:Generated_Source\PSoC4/cyCapsense_INT.c ****         #endif /* (cyCapsense_ENABLE == cyCapsense_CSD_NOISE_METRIC_EN) */
 784:Generated_Source\PSoC4/cyCapsense_INT.c **** 
 785:Generated_Source\PSoC4/cyCapsense_INT.c ****         #if (cyCapsense_ENABLE == cyCapsense_CSD_SHIELD_EN)
 786:Generated_Source\PSoC4/cyCapsense_INT.c ****             /* Open HCBV and HCBG switches */
 787:Generated_Source\PSoC4/cyCapsense_INT.c ****             CY_SET_REG32(cyCapsense_SW_SHIELD_SEL_PTR, cyCapsense_SW_SHIELD_SEL_SW_HCBV_STATIC_OPEN
 788:Generated_Source\PSoC4/cyCapsense_INT.c ****                                                              cyCapsense_SW_SHIELD_SEL_SW_HCBG_STATI
 789:Generated_Source\PSoC4/cyCapsense_INT.c ****         #endif /* (cyCapsense_ENABLE == cyCapsense_CSD_SHIELD_EN) */
 790:Generated_Source\PSoC4/cyCapsense_INT.c **** 
 791:Generated_Source\PSoC4/cyCapsense_INT.c ****     #else
 792:Generated_Source\PSoC4/cyCapsense_INT.c **** 
 793:Generated_Source\PSoC4/cyCapsense_INT.c ****         /* Read SlotResult from Raw Counter */
 794:Generated_Source\PSoC4/cyCapsense_INT.c ****        cyCapsense_curRamSnsPtr->raw[cyCapsense_scanFreqIndex] = (uint16)CY_GET_REG32(cyCapsense_COU
  32              		.loc 1 794 0
  33 0000 044B     		ldr	r3, .L2
  34 0002 1A68     		ldr	r2, [r3]
  35 0004 044B     		ldr	r3, .L2+4
  36 0006 1B78     		ldrb	r3, [r3]
  37 0008 0449     		ldr	r1, .L2+8
  38 000a 0968     		ldr	r1, [r1]
  39 000c 5B00     		lsls	r3, r3, #1
  40 000e D152     		strh	r1, [r2, r3]
 795:Generated_Source\PSoC4/cyCapsense_INT.c **** 
 796:Generated_Source\PSoC4/cyCapsense_INT.c ****     #endif /* (cyCapsense_ENABLE == cyCapsense_CSDV2) */
 797:Generated_Source\PSoC4/cyCapsense_INT.c **** }
  41              		.loc 1 797 0
  42              		@ sp needed
  43 0010 7047     		bx	lr
  44              	.L3:
  45 0012 C046     		.align	2
  46              	.L2:
  47 0014 00000000 		.word	cyCapsense_curRamSnsPtr
  48 0018 00000000 		.word	cyCapsense_scanFreqIndex
  49 001c 0C002840 		.word	1076363276
  50              		.cfi_endproc
  51              	.LFE3:
  52              		.size	cyCapsense_SsCSDPostScan, .-cyCapsense_SsCSDPostScan
  53              		.section	.text.cyCapsense_SsCSDInitNextScan,"ax",%progbits
  54              		.align	2
  55              		.code	16
  56              		.thumb_func
  57              		.type	cyCapsense_SsCSDInitNextScan, %function
  58              	cyCapsense_SsCSDInitNextScan:
ARM GAS  C:\Users\turan\AppData\Local\Temp\ccacGoag.s 			page 16


  59              	.LFB4:
 798:Generated_Source\PSoC4/cyCapsense_INT.c **** 
 799:Generated_Source\PSoC4/cyCapsense_INT.c **** 
 800:Generated_Source\PSoC4/cyCapsense_INT.c **** /*******************************************************************************
 801:Generated_Source\PSoC4/cyCapsense_INT.c **** * Function Name: cyCapsense_SsCSDInitNextScan
 802:Generated_Source\PSoC4/cyCapsense_INT.c **** ****************************************************************************//**
 803:Generated_Source\PSoC4/cyCapsense_INT.c **** *
 804:Generated_Source\PSoC4/cyCapsense_INT.c **** * \brief
 805:Generated_Source\PSoC4/cyCapsense_INT.c **** *   This function initializes the next sensor scan.
 806:Generated_Source\PSoC4/cyCapsense_INT.c **** *
 807:Generated_Source\PSoC4/cyCapsense_INT.c **** * \details
 808:Generated_Source\PSoC4/cyCapsense_INT.c **** *   The function increments the sensor index, updates sense clock for matrix
 809:Generated_Source\PSoC4/cyCapsense_INT.c **** *   or touchpad widgets only, sets up Compensation IDAC, enables the sensor and
 810:Generated_Source\PSoC4/cyCapsense_INT.c **** *   scans it. When all the sensors are scanned it continues to set up the next widget
 811:Generated_Source\PSoC4/cyCapsense_INT.c **** *   until all the widgets are scanned. The CSD block is disabled when all the widgets are
 812:Generated_Source\PSoC4/cyCapsense_INT.c **** *   scanned.
 813:Generated_Source\PSoC4/cyCapsense_INT.c **** *
 814:Generated_Source\PSoC4/cyCapsense_INT.c **** *******************************************************************************/
 815:Generated_Source\PSoC4/cyCapsense_INT.c **** static void cyCapsense_SsCSDInitNextScan(void)
 816:Generated_Source\PSoC4/cyCapsense_INT.c **** {
  60              		.loc 1 816 0
  61              		.cfi_startproc
  62              		@ args = 0, pretend = 0, frame = 0
  63              		@ frame_needed = 0, uses_anonymous_args = 0
  64 0000 10B5     		push	{r4, lr}
  65              		.cfi_def_cfa_offset 8
  66              		.cfi_offset 4, -8
  67              		.cfi_offset 14, -4
 817:Generated_Source\PSoC4/cyCapsense_INT.c ****     /* Declare and initialize ptr to widget and sensor structures to appropriate address */
 818:Generated_Source\PSoC4/cyCapsense_INT.c ****     #if (((cyCapsense_ENABLE == cyCapsense_CSD_IDAC_COMP_EN) || \
 819:Generated_Source\PSoC4/cyCapsense_INT.c ****           (cyCapsense_CSD_MATRIX_WIDGET_EN || cyCapsense_CSD_TOUCHPAD_WIDGET_EN)) || \
 820:Generated_Source\PSoC4/cyCapsense_INT.c ****           (((cyCapsense_DISABLE == cyCapsense_CSD_COMMON_SNS_CLK_EN) && \
 821:Generated_Source\PSoC4/cyCapsense_INT.c ****           (cyCapsense_ENABLE == cyCapsense_CSDV2) && \
 822:Generated_Source\PSoC4/cyCapsense_INT.c ****           (cyCapsense_CSD_MATRIX_WIDGET_EN || cyCapsense_CSD_TOUCHPAD_WIDGET_EN))))
 823:Generated_Source\PSoC4/cyCapsense_INT.c ****         cyCapsense_RAM_WD_BASE_STRUCT *ptrWdgt = (cyCapsense_RAM_WD_BASE_STRUCT *)
 824:Generated_Source\PSoC4/cyCapsense_INT.c ****                                                         cyCapsense_dsFlash.wdgtArray[cyCapsense_wid
 825:Generated_Source\PSoC4/cyCapsense_INT.c ****     #endif
 826:Generated_Source\PSoC4/cyCapsense_INT.c **** 
 827:Generated_Source\PSoC4/cyCapsense_INT.c ****     /* Check if all the sensors are scanned in widget */
 828:Generated_Source\PSoC4/cyCapsense_INT.c ****     if (((uint8)cyCapsense_dsFlash.wdgtArray[(cyCapsense_widgetIndex)].totalNumSns - 1u) > cyCapsen
  68              		.loc 1 828 0
  69 0002 204B     		ldr	r3, .L8
  70 0004 1B78     		ldrb	r3, [r3]
  71 0006 5B01     		lsls	r3, r3, #5
  72 0008 1F4A     		ldr	r2, .L8+4
  73 000a D318     		adds	r3, r2, r3
  74 000c 1A7E     		ldrb	r2, [r3, #24]
  75 000e 013A     		subs	r2, r2, #1
  76 0010 1E4B     		ldr	r3, .L8+8
  77 0012 1B78     		ldrb	r3, [r3]
  78 0014 DBB2     		uxtb	r3, r3
  79 0016 9A42     		cmp	r2, r3
  80 0018 1BD9     		bls	.L5
 829:Generated_Source\PSoC4/cyCapsense_INT.c ****     {
 830:Generated_Source\PSoC4/cyCapsense_INT.c ****         /* Increment sensor index to configure next sensor in widget */
 831:Generated_Source\PSoC4/cyCapsense_INT.c ****         cyCapsense_sensorIndex++;
  81              		.loc 1 831 0
ARM GAS  C:\Users\turan\AppData\Local\Temp\ccacGoag.s 			page 17


  82 001a 1C4A     		ldr	r2, .L8+8
  83 001c 1378     		ldrb	r3, [r2]
  84 001e 0133     		adds	r3, r3, #1
  85 0020 DBB2     		uxtb	r3, r3
  86 0022 1370     		strb	r3, [r2]
 832:Generated_Source\PSoC4/cyCapsense_INT.c **** 
 833:Generated_Source\PSoC4/cyCapsense_INT.c ****         /* Update global pointer to cyCapsense_RAM_SNS_STRUCT to current sensor  */
 834:Generated_Source\PSoC4/cyCapsense_INT.c ****         cyCapsense_curRamSnsPtr = (cyCapsense_RAM_SNS_STRUCT *)
  87              		.loc 1 834 0
  88 0024 1748     		ldr	r0, .L8
  89 0026 0378     		ldrb	r3, [r0]
 835:Generated_Source\PSoC4/cyCapsense_INT.c ****                                                   cyCapsense_dsFlash.wdgtArray[cyCapsense_widgetInd
  90              		.loc 1 835 0
  91 0028 5B01     		lsls	r3, r3, #5
  92 002a 1749     		ldr	r1, .L8+4
  93 002c CB18     		adds	r3, r1, r3
  94 002e 9C68     		ldr	r4, [r3, #8]
 836:Generated_Source\PSoC4/cyCapsense_INT.c ****                                                   + cyCapsense_sensorIndex;
  95              		.loc 1 836 0
  96 0030 1378     		ldrb	r3, [r2]
  97 0032 DBB2     		uxtb	r3, r3
  98 0034 9900     		lsls	r1, r3, #2
  99 0036 CB18     		adds	r3, r1, r3
 100 0038 5900     		lsls	r1, r3, #1
 101 003a 6118     		adds	r1, r4, r1
 834:Generated_Source\PSoC4/cyCapsense_INT.c ****                                                   cyCapsense_dsFlash.wdgtArray[cyCapsense_widgetInd
 102              		.loc 1 834 0
 103 003c 144B     		ldr	r3, .L8+12
 104 003e 1960     		str	r1, [r3]
 837:Generated_Source\PSoC4/cyCapsense_INT.c **** 
 838:Generated_Source\PSoC4/cyCapsense_INT.c ****         /* Configure clock divider to row or column */
 839:Generated_Source\PSoC4/cyCapsense_INT.c ****         #if ((cyCapsense_DISABLE == cyCapsense_CSD_COMMON_SNS_CLK_EN) && \
 840:Generated_Source\PSoC4/cyCapsense_INT.c ****              (cyCapsense_CSD_MATRIX_WIDGET_EN || cyCapsense_CSD_TOUCHPAD_WIDGET_EN))
 841:Generated_Source\PSoC4/cyCapsense_INT.c ****             if ((cyCapsense_WD_TOUCHPAD_E == (cyCapsense_WD_TYPE_ENUM)cyCapsense_dsFlash.wdgtArray[
 842:Generated_Source\PSoC4/cyCapsense_INT.c ****                 (cyCapsense_WD_MATRIX_BUTTON_E == (cyCapsense_WD_TYPE_ENUM)cyCapsense_dsFlash.wdgtA
 843:Generated_Source\PSoC4/cyCapsense_INT.c ****             {
 844:Generated_Source\PSoC4/cyCapsense_INT.c ****                 cyCapsense_SsCSDConfigClock();
 845:Generated_Source\PSoC4/cyCapsense_INT.c **** 
 846:Generated_Source\PSoC4/cyCapsense_INT.c ****                 #if (cyCapsense_ENABLE == cyCapsense_CSDV2)
 847:Generated_Source\PSoC4/cyCapsense_INT.c ****                      /* Set up scanning resolution */
 848:Generated_Source\PSoC4/cyCapsense_INT.c ****                     cyCapsense_SsCSDCalculateScanDuration(ptrWdgt);
 849:Generated_Source\PSoC4/cyCapsense_INT.c ****                 #endif /* (cyCapsense_ENABLE == cyCapsense_CSDV2) */
 850:Generated_Source\PSoC4/cyCapsense_INT.c ****             }
 851:Generated_Source\PSoC4/cyCapsense_INT.c ****         #endif /* ((cyCapsense_DISABLE == cyCapsense_CSD_COMMON_SNS_CLK_EN) && \
 852:Generated_Source\PSoC4/cyCapsense_INT.c ****                    (cyCapsense_CSD_MATRIX_WIDGET_EN || cyCapsense_CSD_TOUCHPAD_WIDGET_EN))) */
 853:Generated_Source\PSoC4/cyCapsense_INT.c **** 
 854:Generated_Source\PSoC4/cyCapsense_INT.c ****         /* Setup Compensation IDAC for next sensor in widget */
 855:Generated_Source\PSoC4/cyCapsense_INT.c ****         #if ((cyCapsense_ENABLE == cyCapsense_CSD_IDAC_COMP_EN) || \
 856:Generated_Source\PSoC4/cyCapsense_INT.c ****              (cyCapsense_CSD_MATRIX_WIDGET_EN || cyCapsense_CSD_TOUCHPAD_WIDGET_EN))
 857:Generated_Source\PSoC4/cyCapsense_INT.c ****             cyCapsense_SsCSDSetUpIdacs(ptrWdgt);
 858:Generated_Source\PSoC4/cyCapsense_INT.c ****         #endif /* ((cyCapsense_ENABLE == cyCapsense_CSD_IDAC_COMP_EN) || \
 859:Generated_Source\PSoC4/cyCapsense_INT.c ****                    (cyCapsense_CSD_MATRIX_WIDGET_EN || cyCapsense_CSD_TOUCHPAD_WIDGET_EN)) */
 860:Generated_Source\PSoC4/cyCapsense_INT.c **** 
 861:Generated_Source\PSoC4/cyCapsense_INT.c ****         /* Enable sensor */
 862:Generated_Source\PSoC4/cyCapsense_INT.c ****         cyCapsense_SsCSDConnectSensorExt((uint32)cyCapsense_widgetIndex, (uint32)cyCapsense_sensorI
 105              		.loc 1 862 0
 106 0040 0078     		ldrb	r0, [r0]
ARM GAS  C:\Users\turan\AppData\Local\Temp\ccacGoag.s 			page 18


 107 0042 C0B2     		uxtb	r0, r0
 108 0044 1178     		ldrb	r1, [r2]
 109 0046 C9B2     		uxtb	r1, r1
 110 0048 FFF7FEFF 		bl	cyCapsense_SsCSDConnectSensorExt
 111              	.LVL0:
 863:Generated_Source\PSoC4/cyCapsense_INT.c **** 
 864:Generated_Source\PSoC4/cyCapsense_INT.c ****         /* Proceed scanning */
 865:Generated_Source\PSoC4/cyCapsense_INT.c ****         cyCapsense_SsCSDStartSample();
 112              		.loc 1 865 0
 113 004c FFF7FEFF 		bl	cyCapsense_SsCSDStartSample
 114              	.LVL1:
 115 0050 16E0     		b	.L4
 116              	.L5:
 866:Generated_Source\PSoC4/cyCapsense_INT.c ****     }
 867:Generated_Source\PSoC4/cyCapsense_INT.c ****     /* Call scan next widget API if requested, if not, complete the scan  */
 868:Generated_Source\PSoC4/cyCapsense_INT.c ****     else
 869:Generated_Source\PSoC4/cyCapsense_INT.c ****     {
 870:Generated_Source\PSoC4/cyCapsense_INT.c ****         cyCapsense_sensorIndex = 0u;
 117              		.loc 1 870 0
 118 0052 0022     		movs	r2, #0
 119 0054 0D4B     		ldr	r3, .L8+8
 120 0056 1A70     		strb	r2, [r3]
 871:Generated_Source\PSoC4/cyCapsense_INT.c **** 
 872:Generated_Source\PSoC4/cyCapsense_INT.c ****         /* Current widget is totally scanned. Reset WIDGET BUSY flag */
 873:Generated_Source\PSoC4/cyCapsense_INT.c ****         cyCapsense_dsRam.status &= ~cyCapsense_WDGT_SW_STS_BUSY;
 121              		.loc 1 873 0
 122 0058 0E4A     		ldr	r2, .L8+16
 123 005a D168     		ldr	r1, [r2, #12]
 124 005c 0E4B     		ldr	r3, .L8+20
 125 005e 0B40     		ands	r3, r1
 126 0060 D360     		str	r3, [r2, #12]
 874:Generated_Source\PSoC4/cyCapsense_INT.c **** 
 875:Generated_Source\PSoC4/cyCapsense_INT.c ****         /* Check if all the widgets have been scanned */
 876:Generated_Source\PSoC4/cyCapsense_INT.c ****         if (cyCapsense_ENABLE == cyCapsense_requestScanAllWidget)
 127              		.loc 1 876 0
 128 0062 0E4B     		ldr	r3, .L8+24
 129 0064 1B78     		ldrb	r3, [r3]
 130 0066 012B     		cmp	r3, #1
 131 0068 02D1     		bne	.L7
 877:Generated_Source\PSoC4/cyCapsense_INT.c ****         {
 878:Generated_Source\PSoC4/cyCapsense_INT.c ****             /* Configure and begin scanning next widget */
 879:Generated_Source\PSoC4/cyCapsense_INT.c ****             cyCapsense_SsPostAllWidgetsScan();
 132              		.loc 1 879 0
 133 006a FFF7FEFF 		bl	cyCapsense_SsPostAllWidgetsScan
 134              	.LVL2:
 135 006e 07E0     		b	.L4
 136              	.L7:
 880:Generated_Source\PSoC4/cyCapsense_INT.c ****         }
 881:Generated_Source\PSoC4/cyCapsense_INT.c ****         else
 882:Generated_Source\PSoC4/cyCapsense_INT.c ****         {
 883:Generated_Source\PSoC4/cyCapsense_INT.c ****             #if (cyCapsense_ENABLE == cyCapsense_BLOCK_OFF_AFTER_SCAN_EN)
 884:Generated_Source\PSoC4/cyCapsense_INT.c ****                 #if (cyCapsense_ENABLE == cyCapsense_CSDV2)
 885:Generated_Source\PSoC4/cyCapsense_INT.c ****                     /* Disable the CSD block */
 886:Generated_Source\PSoC4/cyCapsense_INT.c ****                     CY_SET_REG32(cyCapsense_CONFIG_PTR, cyCapsense_configCsd);
 887:Generated_Source\PSoC4/cyCapsense_INT.c ****                 #else
 888:Generated_Source\PSoC4/cyCapsense_INT.c ****                     /* Disable the CSD block. Connect Vref Buffer to AMUX bus */
 889:Generated_Source\PSoC4/cyCapsense_INT.c ****                     #if ((cyCapsense_CSH_PRECHARGE_IO_BUF == cyCapsense_CSD_CSH_PRECHARGE_SRC) &&\
ARM GAS  C:\Users\turan\AppData\Local\Temp\ccacGoag.s 			page 19


 890:Generated_Source\PSoC4/cyCapsense_INT.c ****                          (cyCapsense_ENABLE == cyCapsense_CSD_SHIELD_TANK_EN))
 891:Generated_Source\PSoC4/cyCapsense_INT.c ****                         CY_SET_REG32(cyCapsense_CONFIG_PTR, cyCapsense_configCsd | cyCapsense_CMOD_
 892:Generated_Source\PSoC4/cyCapsense_INT.c ****                     #else
 893:Generated_Source\PSoC4/cyCapsense_INT.c ****                         CY_SET_REG32(cyCapsense_CONFIG_PTR, cyCapsense_configCsd | cyCapsense_CTANK
 894:Generated_Source\PSoC4/cyCapsense_INT.c ****                     #endif /* ((cyCapsense_CSH_PRECHARGE_IO_BUF == cyCapsense_CSD_CSH_PRECHARGE_SRC
 895:Generated_Source\PSoC4/cyCapsense_INT.c ****                                (cyCapsense_ENABLE == cyCapsense_CSD_SHIELD_TANK_EN)) */
 896:Generated_Source\PSoC4/cyCapsense_INT.c ****                 #endif /* (cyCapsense_ENABLE == cyCapsense_CSDV2) */
 897:Generated_Source\PSoC4/cyCapsense_INT.c ****             #endif /* (cyCapsense_ENABLE == cyCapsense_BLOCK_OFF_AFTER_SCAN_EN) */
 898:Generated_Source\PSoC4/cyCapsense_INT.c **** 
 899:Generated_Source\PSoC4/cyCapsense_INT.c ****             /* All widgets are totally scanned. Reset BUSY flag */
 900:Generated_Source\PSoC4/cyCapsense_INT.c ****             cyCapsense_dsRam.status &= ~cyCapsense_SW_STS_BUSY;
 137              		.loc 1 900 0
 138 0070 084B     		ldr	r3, .L8+16
 139 0072 DA68     		ldr	r2, [r3, #12]
 140 0074 8021     		movs	r1, #128
 141 0076 8A43     		bics	r2, r1
 142 0078 DA60     		str	r2, [r3, #12]
 901:Generated_Source\PSoC4/cyCapsense_INT.c **** 
 902:Generated_Source\PSoC4/cyCapsense_INT.c ****             /* Update scan Counter */
 903:Generated_Source\PSoC4/cyCapsense_INT.c ****             cyCapsense_dsRam.scanCounter++;
 143              		.loc 1 903 0
 144 007a 1A89     		ldrh	r2, [r3, #8]
 145 007c 0132     		adds	r2, r2, #1
 146 007e 1A81     		strh	r2, [r3, #8]
 147              	.L4:
 904:Generated_Source\PSoC4/cyCapsense_INT.c ****         }
 905:Generated_Source\PSoC4/cyCapsense_INT.c ****     }
 906:Generated_Source\PSoC4/cyCapsense_INT.c **** }
 148              		.loc 1 906 0
 149              		@ sp needed
 150 0080 10BD     		pop	{r4, pc}
 151              	.L9:
 152 0082 C046     		.align	2
 153              	.L8:
 154 0084 00000000 		.word	cyCapsense_widgetIndex
 155 0088 00000000 		.word	cyCapsense_dsFlash
 156 008c 00000000 		.word	cyCapsense_sensorIndex
 157 0090 00000000 		.word	cyCapsense_curRamSnsPtr
 158 0094 00000000 		.word	cyCapsense_dsRam
 159 0098 FFFFFEFF 		.word	-65537
 160 009c 00000000 		.word	cyCapsense_requestScanAllWidget
 161              		.cfi_endproc
 162              	.LFE4:
 163              		.size	cyCapsense_SsCSDInitNextScan, .-cyCapsense_SsCSDInitNextScan
 164              		.section	.text.cyCapsense_CSDPostSingleScan,"ax",%progbits
 165              		.align	2
 166              		.global	cyCapsense_CSDPostSingleScan
 167              		.code	16
 168              		.thumb_func
 169              		.type	cyCapsense_CSDPostSingleScan, %function
 170              	cyCapsense_CSDPostSingleScan:
 171              	.LFB1:
 463:Generated_Source\PSoC4/cyCapsense_INT.c ****         #ifdef cyCapsense_ENTRY_CALLBACK
 172              		.loc 1 463 0
 173              		.cfi_startproc
 174              		@ args = 0, pretend = 0, frame = 0
 175              		@ frame_needed = 0, uses_anonymous_args = 0
ARM GAS  C:\Users\turan\AppData\Local\Temp\ccacGoag.s 			page 20


 176 0000 10B5     		push	{r4, lr}
 177              		.cfi_def_cfa_offset 8
 178              		.cfi_offset 4, -8
 179              		.cfi_offset 14, -4
 469:Generated_Source\PSoC4/cyCapsense_INT.c **** 
 180              		.loc 1 469 0
 181 0002 0122     		movs	r2, #1
 182 0004 094B     		ldr	r3, .L11
 183 0006 1A60     		str	r2, [r3]
 472:Generated_Source\PSoC4/cyCapsense_INT.c **** 
 184              		.loc 1 472 0
 185 0008 FFF7FEFF 		bl	cyCapsense_SsCSDPostScan
 186              	.LVL3:
 525:Generated_Source\PSoC4/cyCapsense_INT.c ****                 #endif /* (cyCapsense_ENABLE == cyCapsense_BLOCK_OFF_AFTER_SCAN_EN) */
 187              		.loc 1 525 0
 188 000c 084B     		ldr	r3, .L11+4
 189 000e 1B68     		ldr	r3, [r3]
 190 0010 084A     		ldr	r2, .L11+8
 191 0012 1343     		orrs	r3, r2
 192 0014 084A     		ldr	r2, .L11+12
 193 0016 1360     		str	r3, [r2]
 529:Generated_Source\PSoC4/cyCapsense_INT.c **** 
 194              		.loc 1 529 0
 195 0018 084B     		ldr	r3, .L11+16
 196 001a 1A89     		ldrh	r2, [r3, #8]
 197 001c 0132     		adds	r2, r2, #1
 198 001e 1A81     		strh	r2, [r3, #8]
 532:Generated_Source\PSoC4/cyCapsense_INT.c ****             }
 199              		.loc 1 532 0
 200 0020 D968     		ldr	r1, [r3, #12]
 201 0022 074A     		ldr	r2, .L11+20
 202 0024 0A40     		ands	r2, r1
 203 0026 DA60     		str	r2, [r3, #12]
 539:Generated_Source\PSoC4/cyCapsense_INT.c **** 
 204              		.loc 1 539 0
 205              		@ sp needed
 206 0028 10BD     		pop	{r4, pc}
 207              	.L12:
 208 002a C046     		.align	2
 209              	.L11:
 210 002c 14002840 		.word	1076363284
 211 0030 00000000 		.word	cyCapsense_configCsd
 212 0034 2008E881 		.word	-2115500000
 213 0038 04002840 		.word	1076363268
 214 003c 00000000 		.word	cyCapsense_dsRam
 215 0040 7FFFFEFF 		.word	-65665
 216              		.cfi_endproc
 217              	.LFE1:
 218              		.size	cyCapsense_CSDPostSingleScan, .-cyCapsense_CSDPostSingleScan
 219              		.section	.text.cyCapsense_CSDPostMultiScan,"ax",%progbits
 220              		.align	2
 221              		.global	cyCapsense_CSDPostMultiScan
 222              		.code	16
 223              		.thumb_func
 224              		.type	cyCapsense_CSDPostMultiScan, %function
 225              	cyCapsense_CSDPostMultiScan:
 226              	.LFB2:
ARM GAS  C:\Users\turan\AppData\Local\Temp\ccacGoag.s 			page 21


 578:Generated_Source\PSoC4/cyCapsense_INT.c ****         /* Declare and initialize ptr to sensor IO structure to appropriate address        */
 227              		.loc 1 578 0
 228              		.cfi_startproc
 229              		@ args = 0, pretend = 0, frame = 0
 230              		@ frame_needed = 0, uses_anonymous_args = 0
 231 0000 10B5     		push	{r4, lr}
 232              		.cfi_def_cfa_offset 8
 233              		.cfi_offset 4, -8
 234              		.cfi_offset 14, -4
 580:Generated_Source\PSoC4/cyCapsense_INT.c ****                                                           cyCapsense_dsFlash.wdgtArray[cyCapsense_w
 235              		.loc 1 580 0
 236 0002 0E4B     		ldr	r3, .L14
 237 0004 1B78     		ldrb	r3, [r3]
 581:Generated_Source\PSoC4/cyCapsense_INT.c ****                                                           + cyCapsense_sensorIndex;
 238              		.loc 1 581 0
 239 0006 5B01     		lsls	r3, r3, #5
 240 0008 0D4A     		ldr	r2, .L14+4
 241 000a 9C58     		ldr	r4, [r3, r2]
 582:Generated_Source\PSoC4/cyCapsense_INT.c **** 
 242              		.loc 1 582 0
 243 000c 0D4B     		ldr	r3, .L14+8
 244 000e 1A78     		ldrb	r2, [r3]
 245 0010 D2B2     		uxtb	r2, r2
 246 0012 D100     		lsls	r1, r2, #3
 247 0014 8A1A     		subs	r2, r1, r2
 248 0016 9300     		lsls	r3, r2, #2
 580:Generated_Source\PSoC4/cyCapsense_INT.c ****                                                           cyCapsense_dsFlash.wdgtArray[cyCapsense_w
 249              		.loc 1 580 0
 250 0018 E418     		adds	r4, r4, r3
 251              	.LVL4:
 589:Generated_Source\PSoC4/cyCapsense_INT.c **** 
 252              		.loc 1 589 0
 253 001a 0122     		movs	r2, #1
 254 001c 0A4B     		ldr	r3, .L14+12
 255 001e 1A60     		str	r2, [r3]
 592:Generated_Source\PSoC4/cyCapsense_INT.c **** 
 256              		.loc 1 592 0
 257 0020 FFF7FEFF 		bl	cyCapsense_SsCSDPostScan
 258              	.LVL5:
 595:Generated_Source\PSoC4/cyCapsense_INT.c **** 
 259              		.loc 1 595 0
 260 0024 094B     		ldr	r3, .L14+16
 261 0026 1B68     		ldr	r3, [r3]
 262 0028 094A     		ldr	r2, .L14+20
 263 002a 1343     		orrs	r3, r2
 264 002c 094A     		ldr	r2, .L14+24
 265 002e 1360     		str	r3, [r2]
 606:Generated_Source\PSoC4/cyCapsense_INT.c ****         #endif /* (cyCapsense_ENABLE == cyCapsense_MULTI_FREQ_SCAN_EN) */
 266              		.loc 1 606 0
 267 0030 2000     		movs	r0, r4
 268 0032 FFF7FEFF 		bl	cyCapsense_CSDDisconnectSns
 269              	.LVL6:
 631:Generated_Source\PSoC4/cyCapsense_INT.c ****         #endif /* (cyCapsense_ENABLE == cyCapsense_MULTI_FREQ_SCAN_EN) */
 270              		.loc 1 631 0
 271 0036 FFF7FEFF 		bl	cyCapsense_SsCSDInitNextScan
 272              	.LVL7:
 637:Generated_Source\PSoC4/cyCapsense_INT.c **** 
ARM GAS  C:\Users\turan\AppData\Local\Temp\ccacGoag.s 			page 22


 273              		.loc 1 637 0
 274              		@ sp needed
 275              	.LVL8:
 276 003a 10BD     		pop	{r4, pc}
 277              	.L15:
 278              		.align	2
 279              	.L14:
 280 003c 00000000 		.word	cyCapsense_widgetIndex
 281 0040 00000000 		.word	cyCapsense_dsFlash
 282 0044 00000000 		.word	cyCapsense_sensorIndex
 283 0048 14002840 		.word	1076363284
 284 004c 00000000 		.word	cyCapsense_configCsd
 285 0050 2008E881 		.word	-2115500000
 286 0054 04002840 		.word	1076363268
 287              		.cfi_endproc
 288              	.LFE2:
 289              		.size	cyCapsense_CSDPostMultiScan, .-cyCapsense_CSDPostMultiScan
 290              		.text
 291              	.Letext0:
 292              		.file 2 "Generated_Source\\PSoC4\\cytypes.h"
 293              		.file 3 "Generated_Source\\PSoC4\\cyCapsense_Configuration.h"
 294              		.file 4 "Generated_Source\\PSoC4\\cyCapsense_SmartSense_LL.h"
 295              		.file 5 "Generated_Source\\PSoC4\\cyCapsense_Structure.h"
 296              		.file 6 "Generated_Source\\PSoC4\\cyCapsense_Sensing.h"
 297              		.file 7 "Generated_Source\\PSoC4\\cyCapsense_SensingCSD_LL.h"