ARM GAS  C:\Users\turan\AppData\Local\Temp\ccayhG5j.s 			page 1


   1              		.syntax unified
   2              		.cpu cortex-m0
   3              		.fpu softvfp
   4              		.eabi_attribute 20, 1
   5              		.eabi_attribute 21, 1
   6              		.eabi_attribute 23, 3
   7              		.eabi_attribute 24, 1
   8              		.eabi_attribute 25, 1
   9              		.eabi_attribute 26, 1
  10              		.eabi_attribute 30, 1
  11              		.eabi_attribute 34, 0
  12              		.eabi_attribute 18, 4
  13              		.thumb
  14              		.syntax unified
  15              		.file	"cyCapsense_1_Tuner.c"
  16              		.text
  17              	.Ltext0:
  18              		.cfi_sections	.debug_frame
  19              		.section	.text.cyCapsense_1_TuInitialize,"ax",%progbits
  20              		.align	2
  21              		.global	cyCapsense_1_TuInitialize
  22              		.code	16
  23              		.thumb_func
  24              		.type	cyCapsense_1_TuInitialize, %function
  25              	cyCapsense_1_TuInitialize:
  26              	.LFB1:
  27              		.file 1 "Generated_Source\\PSoC4\\cyCapsense_1_Tuner.c"
   1:Generated_Source\PSoC4/cyCapsense_1_Tuner.c **** /***************************************************************************//**
   2:Generated_Source\PSoC4/cyCapsense_1_Tuner.c **** * \file cyCapsense_1_Tuner.c
   3:Generated_Source\PSoC4/cyCapsense_1_Tuner.c **** * \version 6.0
   4:Generated_Source\PSoC4/cyCapsense_1_Tuner.c **** *
   5:Generated_Source\PSoC4/cyCapsense_1_Tuner.c **** * \brief
   6:Generated_Source\PSoC4/cyCapsense_1_Tuner.c **** *   This file provides the source code for the Tuner module API of the Component.
   7:Generated_Source\PSoC4/cyCapsense_1_Tuner.c **** *
   8:Generated_Source\PSoC4/cyCapsense_1_Tuner.c **** * \see cyCapsense_1 v6.0 Datasheet
   9:Generated_Source\PSoC4/cyCapsense_1_Tuner.c **** *
  10:Generated_Source\PSoC4/cyCapsense_1_Tuner.c **** *//*****************************************************************************
  11:Generated_Source\PSoC4/cyCapsense_1_Tuner.c **** * Copyright (2016-2018), Cypress Semiconductor Corporation.
  12:Generated_Source\PSoC4/cyCapsense_1_Tuner.c **** ********************************************************************************
  13:Generated_Source\PSoC4/cyCapsense_1_Tuner.c **** * This software is owned by Cypress Semiconductor Corporation (Cypress) and is
  14:Generated_Source\PSoC4/cyCapsense_1_Tuner.c **** * protected by and subject to worldwide patent protection (United States and
  15:Generated_Source\PSoC4/cyCapsense_1_Tuner.c **** * foreign), United States copyright laws and international treaty provisions.
  16:Generated_Source\PSoC4/cyCapsense_1_Tuner.c **** * Cypress hereby grants to licensee a personal, non-exclusive, non-transferable
  17:Generated_Source\PSoC4/cyCapsense_1_Tuner.c **** * license to copy, use, modify, create derivative works of, and compile the
  18:Generated_Source\PSoC4/cyCapsense_1_Tuner.c **** * Cypress Source Code and derivative works for the sole purpose of creating
  19:Generated_Source\PSoC4/cyCapsense_1_Tuner.c **** * custom software in support of licensee product to be used only in conjunction
  20:Generated_Source\PSoC4/cyCapsense_1_Tuner.c **** * with a Cypress integrated circuit as specified in the applicable agreement.
  21:Generated_Source\PSoC4/cyCapsense_1_Tuner.c **** * Any reproduction, modification, translation, compilation, or representation of
  22:Generated_Source\PSoC4/cyCapsense_1_Tuner.c **** * this software except as specified above is prohibited without the express
  23:Generated_Source\PSoC4/cyCapsense_1_Tuner.c **** * written permission of Cypress.
  24:Generated_Source\PSoC4/cyCapsense_1_Tuner.c **** *
  25:Generated_Source\PSoC4/cyCapsense_1_Tuner.c **** * Disclaimer: CYPRESS MAKES NO WARRANTY OF ANY KIND, EXPRESS OR IMPLIED, WITH
  26:Generated_Source\PSoC4/cyCapsense_1_Tuner.c **** * REGARD TO THIS MATERIAL, INCLUDING, BUT NOT LIMITED TO, THE IMPLIED
  27:Generated_Source\PSoC4/cyCapsense_1_Tuner.c **** * WARRANTIES OF MERCHANTABILITY AND FITNESS FOR A PARTICULAR PURPOSE.
  28:Generated_Source\PSoC4/cyCapsense_1_Tuner.c **** * Cypress reserves the right to make changes without further notice to the
  29:Generated_Source\PSoC4/cyCapsense_1_Tuner.c **** * materials described herein. Cypress does not assume any liability arising out
  30:Generated_Source\PSoC4/cyCapsense_1_Tuner.c **** * of the application or use of any product or circuit described herein. Cypress
ARM GAS  C:\Users\turan\AppData\Local\Temp\ccayhG5j.s 			page 2


  31:Generated_Source\PSoC4/cyCapsense_1_Tuner.c **** * does not authorize its products for use as critical components in life-support
  32:Generated_Source\PSoC4/cyCapsense_1_Tuner.c **** * systems where a malfunction or failure may reasonably be expected to result in
  33:Generated_Source\PSoC4/cyCapsense_1_Tuner.c **** * significant injury to the user. The inclusion of Cypress' product in a life-
  34:Generated_Source\PSoC4/cyCapsense_1_Tuner.c **** * support systems application implies that the manufacturer assumes all risk of
  35:Generated_Source\PSoC4/cyCapsense_1_Tuner.c **** * such use and in doing so indemnifies Cypress against all charges. Use may be
  36:Generated_Source\PSoC4/cyCapsense_1_Tuner.c **** * limited by and subject to the applicable Cypress software license agreement.
  37:Generated_Source\PSoC4/cyCapsense_1_Tuner.c **** *******************************************************************************/
  38:Generated_Source\PSoC4/cyCapsense_1_Tuner.c **** 
  39:Generated_Source\PSoC4/cyCapsense_1_Tuner.c **** #include "cytypes.h"
  40:Generated_Source\PSoC4/cyCapsense_1_Tuner.c **** #include "CyLib.h"
  41:Generated_Source\PSoC4/cyCapsense_1_Tuner.c **** #include "cyCapsense_1_Structure.h"
  42:Generated_Source\PSoC4/cyCapsense_1_Tuner.c **** #include "cyCapsense_1_Tuner.h"
  43:Generated_Source\PSoC4/cyCapsense_1_Tuner.c **** #include "cyCapsense_1_Control.h"
  44:Generated_Source\PSoC4/cyCapsense_1_Tuner.c **** #include "cyCapsense_1_Configuration.h"
  45:Generated_Source\PSoC4/cyCapsense_1_Tuner.c **** 
  46:Generated_Source\PSoC4/cyCapsense_1_Tuner.c **** /* Tuner states definition */
  47:Generated_Source\PSoC4/cyCapsense_1_Tuner.c **** #define TU_FSM_RUNNING      (0u)
  48:Generated_Source\PSoC4/cyCapsense_1_Tuner.c **** #define TU_FSM_SUSPENDED    (1u)
  49:Generated_Source\PSoC4/cyCapsense_1_Tuner.c **** #define TU_FSM_SNR_TEST     (2u)
  50:Generated_Source\PSoC4/cyCapsense_1_Tuner.c **** #define TU_FSM_ONE_SCAN     (3u)
  51:Generated_Source\PSoC4/cyCapsense_1_Tuner.c **** 
  52:Generated_Source\PSoC4/cyCapsense_1_Tuner.c **** /* Tuner state variable */
  53:Generated_Source\PSoC4/cyCapsense_1_Tuner.c **** static uint32 tunerFsm = TU_FSM_RUNNING;
  54:Generated_Source\PSoC4/cyCapsense_1_Tuner.c **** 
  55:Generated_Source\PSoC4/cyCapsense_1_Tuner.c **** 
  56:Generated_Source\PSoC4/cyCapsense_1_Tuner.c **** /*******************************************************************************
  57:Generated_Source\PSoC4/cyCapsense_1_Tuner.c **** * Function Name: cyCapsense_1_TuInitialize
  58:Generated_Source\PSoC4/cyCapsense_1_Tuner.c **** ****************************************************************************//**
  59:Generated_Source\PSoC4/cyCapsense_1_Tuner.c **** *
  60:Generated_Source\PSoC4/cyCapsense_1_Tuner.c **** * \brief
  61:Generated_Source\PSoC4/cyCapsense_1_Tuner.c **** *   This function initializes the communication interface with the Tuner GUI.
  62:Generated_Source\PSoC4/cyCapsense_1_Tuner.c **** *
  63:Generated_Source\PSoC4/cyCapsense_1_Tuner.c **** * \details
  64:Generated_Source\PSoC4/cyCapsense_1_Tuner.c **** *   This API sets the tuner state machine to the default state. It is called by
  65:Generated_Source\PSoC4/cyCapsense_1_Tuner.c **** *   the cyCapsense_1_Start() API.
  66:Generated_Source\PSoC4/cyCapsense_1_Tuner.c **** *
  67:Generated_Source\PSoC4/cyCapsense_1_Tuner.c **** *******************************************************************************/
  68:Generated_Source\PSoC4/cyCapsense_1_Tuner.c **** void cyCapsense_1_TuInitialize(void)
  69:Generated_Source\PSoC4/cyCapsense_1_Tuner.c **** {
  28              		.loc 1 69 0
  29              		.cfi_startproc
  30              		@ args = 0, pretend = 0, frame = 0
  31              		@ frame_needed = 0, uses_anonymous_args = 0
  32              		@ link register save eliminated.
  33              	.LVL0:
  70:Generated_Source\PSoC4/cyCapsense_1_Tuner.c ****     volatile cyCapsense_1_RAM_STRUCT *ptrDsRam = &cyCapsense_1_dsRam;
  71:Generated_Source\PSoC4/cyCapsense_1_Tuner.c **** 
  72:Generated_Source\PSoC4/cyCapsense_1_Tuner.c ****     ptrDsRam->tunerCmd = (uint16)cyCapsense_1_TU_CMD_NONE_E;
  34              		.loc 1 72 0
  35 0000 0023     		movs	r3, #0
  36 0002 024A     		ldr	r2, .L2
  37 0004 D380     		strh	r3, [r2, #6]
  73:Generated_Source\PSoC4/cyCapsense_1_Tuner.c ****     tunerFsm = TU_FSM_RUNNING;
  38              		.loc 1 73 0
  39 0006 024A     		ldr	r2, .L2+4
  40 0008 1360     		str	r3, [r2]
  74:Generated_Source\PSoC4/cyCapsense_1_Tuner.c **** }
ARM GAS  C:\Users\turan\AppData\Local\Temp\ccayhG5j.s 			page 3


  41              		.loc 1 74 0
  42              		@ sp needed
  43 000a 7047     		bx	lr
  44              	.L3:
  45              		.align	2
  46              	.L2:
  47 000c 00000000 		.word	cyCapsense_1_dsRam
  48 0010 00000000 		.word	.LANCHOR0
  49              		.cfi_endproc
  50              	.LFE1:
  51              		.size	cyCapsense_1_TuInitialize, .-cyCapsense_1_TuInitialize
  52              		.section	.text.cyCapsense_1_RunTuner,"ax",%progbits
  53              		.align	2
  54              		.global	cyCapsense_1_RunTuner
  55              		.code	16
  56              		.thumb_func
  57              		.type	cyCapsense_1_RunTuner, %function
  58              	cyCapsense_1_RunTuner:
  59              	.LFB2:
  75:Generated_Source\PSoC4/cyCapsense_1_Tuner.c **** 
  76:Generated_Source\PSoC4/cyCapsense_1_Tuner.c **** /*******************************************************************************
  77:Generated_Source\PSoC4/cyCapsense_1_Tuner.c **** * Function Name: cyCapsense_1_RunTuner
  78:Generated_Source\PSoC4/cyCapsense_1_Tuner.c **** ****************************************************************************//**
  79:Generated_Source\PSoC4/cyCapsense_1_Tuner.c **** *
  80:Generated_Source\PSoC4/cyCapsense_1_Tuner.c **** * \brief
  81:Generated_Source\PSoC4/cyCapsense_1_Tuner.c **** *  Establishes synchronized communication with the Tuner application.
  82:Generated_Source\PSoC4/cyCapsense_1_Tuner.c **** *
  83:Generated_Source\PSoC4/cyCapsense_1_Tuner.c **** * \details
  84:Generated_Source\PSoC4/cyCapsense_1_Tuner.c **** *  This function is used to establish synchronized communication between the
  85:Generated_Source\PSoC4/cyCapsense_1_Tuner.c **** *  cyCapsense_1 Component and Tuner application (or other host controllers).
  86:Generated_Source\PSoC4/cyCapsense_1_Tuner.c **** *  This function is called periodically in the application program loop
  87:Generated_Source\PSoC4/cyCapsense_1_Tuner.c **** *  to serve the Tuner application (or host controller) requests and commands.
  88:Generated_Source\PSoC4/cyCapsense_1_Tuner.c **** *  In most cases, the best place to call this function is after processing and
  89:Generated_Source\PSoC4/cyCapsense_1_Tuner.c **** *  before next scanning.
  90:Generated_Source\PSoC4/cyCapsense_1_Tuner.c **** *
  91:Generated_Source\PSoC4/cyCapsense_1_Tuner.c **** *  If this function is absent in the application program, then communication is
  92:Generated_Source\PSoC4/cyCapsense_1_Tuner.c **** *  asynchronous and the following disadvantages are applicable:
  93:Generated_Source\PSoC4/cyCapsense_1_Tuner.c **** *    - The raw counts displayed in the tuner may be filtered and/or unfiltered.
  94:Generated_Source\PSoC4/cyCapsense_1_Tuner.c **** *      As a result, noise and SNR measurements will not be accurate.
  95:Generated_Source\PSoC4/cyCapsense_1_Tuner.c **** *    - The Tuner tool may read the sensor data such as raw counts from a scan
  96:Generated_Source\PSoC4/cyCapsense_1_Tuner.c **** *      multiple times, as a result, noise and SNR measurement will not be
  97:Generated_Source\PSoC4/cyCapsense_1_Tuner.c **** *      accurate.
  98:Generated_Source\PSoC4/cyCapsense_1_Tuner.c **** *    - The Tuner tool and host controller should not change the Component parameters
  99:Generated_Source\PSoC4/cyCapsense_1_Tuner.c **** *      via the tuner interface. Changing the Component parameters via the tuner
 100:Generated_Source\PSoC4/cyCapsense_1_Tuner.c **** *      interface in the async mode will result in Component abnormal behavior.
 101:Generated_Source\PSoC4/cyCapsense_1_Tuner.c **** *
 102:Generated_Source\PSoC4/cyCapsense_1_Tuner.c **** *  Note that calling this function is not mandatory for the application, but
 103:Generated_Source\PSoC4/cyCapsense_1_Tuner.c **** *  required only to synchronize the communication with the host controller or
 104:Generated_Source\PSoC4/cyCapsense_1_Tuner.c **** *  tuner application.
 105:Generated_Source\PSoC4/cyCapsense_1_Tuner.c **** *
 106:Generated_Source\PSoC4/cyCapsense_1_Tuner.c **** * \return
 107:Generated_Source\PSoC4/cyCapsense_1_Tuner.c **** *  In some cases, the application program may need to know if the Component was
 108:Generated_Source\PSoC4/cyCapsense_1_Tuner.c **** *  re-initialized. The return indicates if a restart command was executed or not:
 109:Generated_Source\PSoC4/cyCapsense_1_Tuner.c **** *    - cyCapsense_1_STATUS_RESTART_DONE - Based on a received command, the
 110:Generated_Source\PSoC4/cyCapsense_1_Tuner.c **** *      Component was restarted.
 111:Generated_Source\PSoC4/cyCapsense_1_Tuner.c **** *    -  cyCapsense_1_STATUS_RESTART_NONE - No restart was executed by this
 112:Generated_Source\PSoC4/cyCapsense_1_Tuner.c **** *      function.
ARM GAS  C:\Users\turan\AppData\Local\Temp\ccayhG5j.s 			page 4


 113:Generated_Source\PSoC4/cyCapsense_1_Tuner.c **** *
 114:Generated_Source\PSoC4/cyCapsense_1_Tuner.c **** *******************************************************************************/
 115:Generated_Source\PSoC4/cyCapsense_1_Tuner.c **** uint32 cyCapsense_1_RunTuner(void)
 116:Generated_Source\PSoC4/cyCapsense_1_Tuner.c **** {
  60              		.loc 1 116 0
  61              		.cfi_startproc
  62              		@ args = 0, pretend = 0, frame = 0
  63              		@ frame_needed = 0, uses_anonymous_args = 0
  64 0000 70B5     		push	{r4, r5, r6, lr}
  65              		.cfi_def_cfa_offset 16
  66              		.cfi_offset 4, -16
  67              		.cfi_offset 5, -12
  68              		.cfi_offset 6, -8
  69              		.cfi_offset 14, -4
  70              	.LVL1:
 117:Generated_Source\PSoC4/cyCapsense_1_Tuner.c ****     uint8 interruptState;
 118:Generated_Source\PSoC4/cyCapsense_1_Tuner.c ****     uint32 widgetId;
 119:Generated_Source\PSoC4/cyCapsense_1_Tuner.c ****     uint32 sensorId;
 120:Generated_Source\PSoC4/cyCapsense_1_Tuner.c ****     uint32 updateFlag = 0Lu;
 121:Generated_Source\PSoC4/cyCapsense_1_Tuner.c ****     cyCapsense_1_TU_CMD_ENUM command;
 122:Generated_Source\PSoC4/cyCapsense_1_Tuner.c ****     uint32 tunerStatus = cyCapsense_1_STATUS_RESTART_NONE;
  71              		.loc 1 122 0
  72 0002 0025     		movs	r5, #0
 120:Generated_Source\PSoC4/cyCapsense_1_Tuner.c ****     cyCapsense_1_TU_CMD_ENUM command;
  73              		.loc 1 120 0
  74 0004 0026     		movs	r6, #0
  75              	.LVL2:
  76              	.L16:
 123:Generated_Source\PSoC4/cyCapsense_1_Tuner.c **** 
 124:Generated_Source\PSoC4/cyCapsense_1_Tuner.c ****     volatile cyCapsense_1_RAM_STRUCT *ptrDsRam;
 125:Generated_Source\PSoC4/cyCapsense_1_Tuner.c ****     volatile cyCapsense_1_RAM_SNS_STRUCT *ptrSnsTmp;
 126:Generated_Source\PSoC4/cyCapsense_1_Tuner.c **** 
 127:Generated_Source\PSoC4/cyCapsense_1_Tuner.c ****     ptrDsRam = &cyCapsense_1_dsRam;
 128:Generated_Source\PSoC4/cyCapsense_1_Tuner.c **** 
 129:Generated_Source\PSoC4/cyCapsense_1_Tuner.c ****     do
 130:Generated_Source\PSoC4/cyCapsense_1_Tuner.c ****     {
 131:Generated_Source\PSoC4/cyCapsense_1_Tuner.c ****         /* ONE_SCAN command could be interpreted as two commands:
 132:Generated_Source\PSoC4/cyCapsense_1_Tuner.c ****         * RESUME till next call of this function and then
 133:Generated_Source\PSoC4/cyCapsense_1_Tuner.c ****         * SUSPEND till next command receiving.
 134:Generated_Source\PSoC4/cyCapsense_1_Tuner.c ****         */
 135:Generated_Source\PSoC4/cyCapsense_1_Tuner.c ****         if (TU_FSM_ONE_SCAN == tunerFsm)
  77              		.loc 1 135 0
  78 0006 3B4B     		ldr	r3, .L18
  79 0008 1B68     		ldr	r3, [r3]
  80 000a 032B     		cmp	r3, #3
  81 000c 06D1     		bne	.L5
 136:Generated_Source\PSoC4/cyCapsense_1_Tuner.c ****         {
 137:Generated_Source\PSoC4/cyCapsense_1_Tuner.c ****             interruptState = CyEnterCriticalSection();
  82              		.loc 1 137 0
  83 000e FFF7FEFF 		bl	CyEnterCriticalSection
  84              	.LVL3:
 138:Generated_Source\PSoC4/cyCapsense_1_Tuner.c ****             ptrDsRam->tunerCmd = (uint16)cyCapsense_1_TU_CMD_SUSPEND_E;
  85              		.loc 1 138 0
  86 0012 0122     		movs	r2, #1
  87 0014 384B     		ldr	r3, .L18+4
  88 0016 DA80     		strh	r2, [r3, #6]
 139:Generated_Source\PSoC4/cyCapsense_1_Tuner.c ****             CyExitCriticalSection(interruptState);
ARM GAS  C:\Users\turan\AppData\Local\Temp\ccayhG5j.s 			page 5


  89              		.loc 1 139 0
  90 0018 FFF7FEFF 		bl	CyExitCriticalSection
  91              	.LVL4:
  92              	.L5:
 140:Generated_Source\PSoC4/cyCapsense_1_Tuner.c ****         }
 141:Generated_Source\PSoC4/cyCapsense_1_Tuner.c ****         command = (cyCapsense_1_TU_CMD_ENUM)ptrDsRam->tunerCmd;
  93              		.loc 1 141 0
  94 001c 364B     		ldr	r3, .L18+4
  95 001e DC88     		ldrh	r4, [r3, #6]
  96 0020 E4B2     		uxtb	r4, r4
  97              	.LVL5:
 142:Generated_Source\PSoC4/cyCapsense_1_Tuner.c **** 
 143:Generated_Source\PSoC4/cyCapsense_1_Tuner.c ****         /* Check command register */
 144:Generated_Source\PSoC4/cyCapsense_1_Tuner.c ****         switch (command)
  98              		.loc 1 144 0
  99 0022 062C     		cmp	r4, #6
 100 0024 23D8     		bhi	.L6
 101 0026 A300     		lsls	r3, r4, #2
 102 0028 344A     		ldr	r2, .L18+8
 103 002a D358     		ldr	r3, [r2, r3]
 104 002c 9F46     		mov	pc, r3
 105              		.section	.rodata
 106              		.align	2
 107              	.L8:
 108 0000 6E000000 		.word	.L6
 109 0004 2E000000 		.word	.L7
 110 0008 38000000 		.word	.L9
 111 000c 42000000 		.word	.L10
 112 0010 52000000 		.word	.L11
 113 0014 5C000000 		.word	.L12
 114 0018 66000000 		.word	.L13
 115              		.section	.text.cyCapsense_1_RunTuner
 116              	.L7:
 145:Generated_Source\PSoC4/cyCapsense_1_Tuner.c ****         {
 146:Generated_Source\PSoC4/cyCapsense_1_Tuner.c ****         case cyCapsense_1_TU_CMD_SUSPEND_E:
 147:Generated_Source\PSoC4/cyCapsense_1_Tuner.c ****             tunerFsm = TU_FSM_SUSPENDED;
 117              		.loc 1 147 0
 118 002e 0122     		movs	r2, #1
 119 0030 304B     		ldr	r3, .L18
 120 0032 1A60     		str	r2, [r3]
 121              	.LVL6:
 148:Generated_Source\PSoC4/cyCapsense_1_Tuner.c ****             updateFlag = 1Lu;
 122              		.loc 1 148 0
 123 0034 0126     		movs	r6, #1
 149:Generated_Source\PSoC4/cyCapsense_1_Tuner.c ****             break;
 124              		.loc 1 149 0
 125 0036 1AE0     		b	.L6
 126              	.LVL7:
 127              	.L9:
 150:Generated_Source\PSoC4/cyCapsense_1_Tuner.c **** 
 151:Generated_Source\PSoC4/cyCapsense_1_Tuner.c ****         case cyCapsense_1_TU_CMD_RESUME_E:
 152:Generated_Source\PSoC4/cyCapsense_1_Tuner.c ****             tunerFsm = TU_FSM_RUNNING;
 128              		.loc 1 152 0
 129 0038 0022     		movs	r2, #0
 130 003a 2E4B     		ldr	r3, .L18
 131 003c 1A60     		str	r2, [r3]
 132              	.LVL8:
ARM GAS  C:\Users\turan\AppData\Local\Temp\ccayhG5j.s 			page 6


 153:Generated_Source\PSoC4/cyCapsense_1_Tuner.c ****             updateFlag = 1Lu;
 133              		.loc 1 153 0
 134 003e 0126     		movs	r6, #1
 154:Generated_Source\PSoC4/cyCapsense_1_Tuner.c ****             break;
 135              		.loc 1 154 0
 136 0040 15E0     		b	.L6
 137              	.LVL9:
 138              	.L10:
 155:Generated_Source\PSoC4/cyCapsense_1_Tuner.c **** 
 156:Generated_Source\PSoC4/cyCapsense_1_Tuner.c ****         case cyCapsense_1_TU_CMD_RESTART_E:
 157:Generated_Source\PSoC4/cyCapsense_1_Tuner.c ****             (void)cyCapsense_1_Start();
 139              		.loc 1 157 0
 140 0042 FFF7FEFF 		bl	cyCapsense_1_Start
 141              	.LVL10:
 158:Generated_Source\PSoC4/cyCapsense_1_Tuner.c ****             tunerStatus = cyCapsense_1_STATUS_RESTART_DONE;
 159:Generated_Source\PSoC4/cyCapsense_1_Tuner.c ****             tunerFsm = TU_FSM_RUNNING;
 142              		.loc 1 159 0
 143 0046 0022     		movs	r2, #0
 144 0048 2A4B     		ldr	r3, .L18
 145 004a 1A60     		str	r2, [r3]
 146              	.LVL11:
 158:Generated_Source\PSoC4/cyCapsense_1_Tuner.c ****             tunerStatus = cyCapsense_1_STATUS_RESTART_DONE;
 147              		.loc 1 158 0
 148 004c 0125     		movs	r5, #1
 160:Generated_Source\PSoC4/cyCapsense_1_Tuner.c ****             updateFlag = 1Lu;
 149              		.loc 1 160 0
 150 004e 0126     		movs	r6, #1
 161:Generated_Source\PSoC4/cyCapsense_1_Tuner.c ****             break;
 151              		.loc 1 161 0
 152 0050 0DE0     		b	.L6
 153              	.LVL12:
 154              	.L11:
 162:Generated_Source\PSoC4/cyCapsense_1_Tuner.c **** 
 163:Generated_Source\PSoC4/cyCapsense_1_Tuner.c ****         case cyCapsense_1_TU_CMD_RUN_SNR_TEST_E:
 164:Generated_Source\PSoC4/cyCapsense_1_Tuner.c ****             tunerFsm = TU_FSM_SNR_TEST;
 155              		.loc 1 164 0
 156 0052 0222     		movs	r2, #2
 157 0054 274B     		ldr	r3, .L18
 158 0056 1A60     		str	r2, [r3]
 159              	.LVL13:
 165:Generated_Source\PSoC4/cyCapsense_1_Tuner.c ****             updateFlag = 1Lu;
 160              		.loc 1 165 0
 161 0058 0126     		movs	r6, #1
 166:Generated_Source\PSoC4/cyCapsense_1_Tuner.c ****             break;
 162              		.loc 1 166 0
 163 005a 08E0     		b	.L6
 164              	.LVL14:
 165              	.L12:
 167:Generated_Source\PSoC4/cyCapsense_1_Tuner.c **** 
 168:Generated_Source\PSoC4/cyCapsense_1_Tuner.c ****         case cyCapsense_1_TU_CMD_PING_E:
 169:Generated_Source\PSoC4/cyCapsense_1_Tuner.c ****             tunerFsm = TU_FSM_RUNNING;
 166              		.loc 1 169 0
 167 005c 0022     		movs	r2, #0
 168 005e 254B     		ldr	r3, .L18
 169 0060 1A60     		str	r2, [r3]
 170              	.LVL15:
 170:Generated_Source\PSoC4/cyCapsense_1_Tuner.c ****             updateFlag = 1Lu;
ARM GAS  C:\Users\turan\AppData\Local\Temp\ccayhG5j.s 			page 7


 171              		.loc 1 170 0
 172 0062 0126     		movs	r6, #1
 171:Generated_Source\PSoC4/cyCapsense_1_Tuner.c ****             break;
 173              		.loc 1 171 0
 174 0064 03E0     		b	.L6
 175              	.LVL16:
 176              	.L13:
 172:Generated_Source\PSoC4/cyCapsense_1_Tuner.c **** 
 173:Generated_Source\PSoC4/cyCapsense_1_Tuner.c ****         case cyCapsense_1_TU_CMD_ONE_SCAN_E:
 174:Generated_Source\PSoC4/cyCapsense_1_Tuner.c ****             tunerFsm = TU_FSM_ONE_SCAN;
 177              		.loc 1 174 0
 178 0066 0322     		movs	r2, #3
 179 0068 224B     		ldr	r3, .L18
 180 006a 1A60     		str	r2, [r3]
 181              	.LVL17:
 175:Generated_Source\PSoC4/cyCapsense_1_Tuner.c ****             updateFlag = 0Lu;
 182              		.loc 1 175 0
 183 006c 0026     		movs	r6, #0
 184              	.LVL18:
 185              	.L6:
 176:Generated_Source\PSoC4/cyCapsense_1_Tuner.c ****             break;
 177:Generated_Source\PSoC4/cyCapsense_1_Tuner.c **** 
 178:Generated_Source\PSoC4/cyCapsense_1_Tuner.c ****         default:
 179:Generated_Source\PSoC4/cyCapsense_1_Tuner.c ****             break;
 180:Generated_Source\PSoC4/cyCapsense_1_Tuner.c ****         }
 181:Generated_Source\PSoC4/cyCapsense_1_Tuner.c **** 
 182:Generated_Source\PSoC4/cyCapsense_1_Tuner.c ****         /* Set Complete flag in command register if needed */
 183:Generated_Source\PSoC4/cyCapsense_1_Tuner.c ****         if (0Lu != updateFlag)
 186              		.loc 1 183 0
 187 006e 002E     		cmp	r6, #0
 188 0070 0FD0     		beq	.L14
 184:Generated_Source\PSoC4/cyCapsense_1_Tuner.c ****         {
 185:Generated_Source\PSoC4/cyCapsense_1_Tuner.c ****             interruptState = CyEnterCriticalSection();
 189              		.loc 1 185 0
 190 0072 FFF7FEFF 		bl	CyEnterCriticalSection
 191              	.LVL19:
 186:Generated_Source\PSoC4/cyCapsense_1_Tuner.c **** 
 187:Generated_Source\PSoC4/cyCapsense_1_Tuner.c ****             /* Check if command wasn't overwritten with new command */
 188:Generated_Source\PSoC4/cyCapsense_1_Tuner.c ****             if (command == (cyCapsense_1_TU_CMD_ENUM)ptrDsRam->tunerCmd)
 192              		.loc 1 188 0
 193 0076 204B     		ldr	r3, .L18+4
 194 0078 DB88     		ldrh	r3, [r3, #6]
 195 007a DBB2     		uxtb	r3, r3
 196 007c 9C42     		cmp	r4, r3
 197 007e 05D1     		bne	.L15
 189:Generated_Source\PSoC4/cyCapsense_1_Tuner.c ****             {
 190:Generated_Source\PSoC4/cyCapsense_1_Tuner.c ****                 ptrDsRam->tunerCmd |= cyCapsense_1_TU_CMD_COMPLETE_BIT;
 198              		.loc 1 190 0
 199 0080 1D4A     		ldr	r2, .L18+4
 200 0082 D188     		ldrh	r1, [r2, #6]
 201 0084 1E4B     		ldr	r3, .L18+12
 202 0086 0B43     		orrs	r3, r1
 203 0088 9BB2     		uxth	r3, r3
 204 008a D380     		strh	r3, [r2, #6]
 205              	.L15:
 191:Generated_Source\PSoC4/cyCapsense_1_Tuner.c ****             }
 192:Generated_Source\PSoC4/cyCapsense_1_Tuner.c ****             CyExitCriticalSection(interruptState);
ARM GAS  C:\Users\turan\AppData\Local\Temp\ccayhG5j.s 			page 8


 206              		.loc 1 192 0
 207 008c FFF7FEFF 		bl	CyExitCriticalSection
 208              	.LVL20:
 193:Generated_Source\PSoC4/cyCapsense_1_Tuner.c **** 
 194:Generated_Source\PSoC4/cyCapsense_1_Tuner.c ****             updateFlag = 0Lu;
 209              		.loc 1 194 0
 210 0090 0026     		movs	r6, #0
 211              	.LVL21:
 212              	.L14:
 195:Generated_Source\PSoC4/cyCapsense_1_Tuner.c ****         }
 196:Generated_Source\PSoC4/cyCapsense_1_Tuner.c ****     } while (TU_FSM_SUSPENDED == tunerFsm);
 213              		.loc 1 196 0
 214 0092 184B     		ldr	r3, .L18
 215 0094 1B68     		ldr	r3, [r3]
 216 0096 012B     		cmp	r3, #1
 217 0098 B5D0     		beq	.L16
 197:Generated_Source\PSoC4/cyCapsense_1_Tuner.c **** 
 198:Generated_Source\PSoC4/cyCapsense_1_Tuner.c ****     /* Check for SNR Test mode and do appropriate actions */
 199:Generated_Source\PSoC4/cyCapsense_1_Tuner.c ****     if (TU_FSM_SNR_TEST == tunerFsm)
 218              		.loc 1 199 0
 219 009a 022B     		cmp	r3, #2
 220 009c 28D1     		bne	.L17
 200:Generated_Source\PSoC4/cyCapsense_1_Tuner.c ****     {
 201:Generated_Source\PSoC4/cyCapsense_1_Tuner.c ****         widgetId = ptrDsRam->snrTestWidgetId;
 221              		.loc 1 201 0
 222 009e 164A     		ldr	r2, .L18+4
 223 00a0 3833     		adds	r3, r3, #56
 224 00a2 D35C     		ldrb	r3, [r2, r3]
 225 00a4 DBB2     		uxtb	r3, r3
 226              	.LVL22:
 202:Generated_Source\PSoC4/cyCapsense_1_Tuner.c ****         sensorId = ptrDsRam->snrTestSensorId;
 227              		.loc 1 202 0
 228 00a6 3B21     		movs	r1, #59
 229 00a8 525C     		ldrb	r2, [r2, r1]
 230 00aa D2B2     		uxtb	r2, r2
 231              	.LVL23:
 203:Generated_Source\PSoC4/cyCapsense_1_Tuner.c **** 
 204:Generated_Source\PSoC4/cyCapsense_1_Tuner.c ****         /* Check if widgetId and sensorId are in range,
 205:Generated_Source\PSoC4/cyCapsense_1_Tuner.c ****          * and data was updated in RAM (scan counter changed)
 206:Generated_Source\PSoC4/cyCapsense_1_Tuner.c ****          */
 207:Generated_Source\PSoC4/cyCapsense_1_Tuner.c ****         if ((widgetId < cyCapsense_1_TOTAL_WIDGETS)              &&
 232              		.loc 1 207 0
 233 00ac 002B     		cmp	r3, #0
 234 00ae 1FD1     		bne	.L17
 208:Generated_Source\PSoC4/cyCapsense_1_Tuner.c ****             (sensorId < cyCapsense_1_GET_SENSOR_COUNT(widgetId)) &&
 235              		.loc 1 208 0 discriminator 1
 236 00b0 5901     		lsls	r1, r3, #5
 237 00b2 1448     		ldr	r0, .L18+16
 238 00b4 4118     		adds	r1, r0, r1
 239 00b6 098B     		ldrh	r1, [r1, #24]
 207:Generated_Source\PSoC4/cyCapsense_1_Tuner.c ****             (sensorId < cyCapsense_1_GET_SENSOR_COUNT(widgetId)) &&
 240              		.loc 1 207 0 discriminator 1
 241 00b8 8A42     		cmp	r2, r1
 242 00ba 19D2     		bcs	.L17
 209:Generated_Source\PSoC4/cyCapsense_1_Tuner.c ****             (ptrDsRam->scanCounter != ptrDsRam->snrTestScanCounter))
 243              		.loc 1 209 0
 244 00bc 0E49     		ldr	r1, .L18+4
ARM GAS  C:\Users\turan\AppData\Local\Temp\ccayhG5j.s 			page 9


 245 00be 0889     		ldrh	r0, [r1, #8]
 246 00c0 80B2     		uxth	r0, r0
 247 00c2 898F     		ldrh	r1, [r1, #60]
 248 00c4 89B2     		uxth	r1, r1
 208:Generated_Source\PSoC4/cyCapsense_1_Tuner.c ****             (sensorId < cyCapsense_1_GET_SENSOR_COUNT(widgetId)) &&
 249              		.loc 1 208 0
 250 00c6 8842     		cmp	r0, r1
 251 00c8 12D0     		beq	.L17
 210:Generated_Source\PSoC4/cyCapsense_1_Tuner.c ****         {
 211:Generated_Source\PSoC4/cyCapsense_1_Tuner.c ****             /* Get access to the Sensor Object */
 212:Generated_Source\PSoC4/cyCapsense_1_Tuner.c ****             ptrSnsTmp = cyCapsense_1_dsFlash.wdgtArray[widgetId].ptr2SnsRam;
 252              		.loc 1 212 0
 253 00ca 5B01     		lsls	r3, r3, #5
 254              	.LVL24:
 255 00cc 0D49     		ldr	r1, .L18+16
 256 00ce CB18     		adds	r3, r1, r3
 257 00d0 9C68     		ldr	r4, [r3, #8]
 258              	.LVL25:
 213:Generated_Source\PSoC4/cyCapsense_1_Tuner.c ****             ptrSnsTmp += sensorId;
 259              		.loc 1 213 0
 260 00d2 9300     		lsls	r3, r2, #2
 261 00d4 9A18     		adds	r2, r3, r2
 262              	.LVL26:
 263 00d6 5300     		lsls	r3, r2, #1
 264 00d8 E418     		adds	r4, r4, r3
 265              	.LVL27:
 214:Generated_Source\PSoC4/cyCapsense_1_Tuner.c **** 
 215:Generated_Source\PSoC4/cyCapsense_1_Tuner.c ****             /* Update data in SNR Test Object */
 216:Generated_Source\PSoC4/cyCapsense_1_Tuner.c ****             interruptState = CyEnterCriticalSection();
 266              		.loc 1 216 0
 267 00da FFF7FEFF 		bl	CyEnterCriticalSection
 268              	.LVL28:
 217:Generated_Source\PSoC4/cyCapsense_1_Tuner.c ****             ptrDsRam->snrTestScanCounter = ptrDsRam->scanCounter;
 269              		.loc 1 217 0
 270 00de 064B     		ldr	r3, .L18+4
 271 00e0 1A89     		ldrh	r2, [r3, #8]
 272 00e2 92B2     		uxth	r2, r2
 273 00e4 9A87     		strh	r2, [r3, #60]
 218:Generated_Source\PSoC4/cyCapsense_1_Tuner.c ****             ptrDsRam->snrTestRawCount[0u] = ptrSnsTmp->raw[0u];
 274              		.loc 1 218 0
 275 00e6 2288     		ldrh	r2, [r4]
 276 00e8 92B2     		uxth	r2, r2
 277 00ea DA87     		strh	r2, [r3, #62]
 219:Generated_Source\PSoC4/cyCapsense_1_Tuner.c **** 
 220:Generated_Source\PSoC4/cyCapsense_1_Tuner.c ****             #if (0u != cyCapsense_1_MULTI_FREQ_SCAN_EN)
 221:Generated_Source\PSoC4/cyCapsense_1_Tuner.c ****                 ptrDsRam->snrTestRawCount[1u] = ptrSnsTmp->raw[1u];
 222:Generated_Source\PSoC4/cyCapsense_1_Tuner.c ****                 ptrDsRam->snrTestRawCount[2u] = ptrSnsTmp->raw[2u];
 223:Generated_Source\PSoC4/cyCapsense_1_Tuner.c ****             #endif
 224:Generated_Source\PSoC4/cyCapsense_1_Tuner.c **** 
 225:Generated_Source\PSoC4/cyCapsense_1_Tuner.c ****             CyExitCriticalSection(interruptState);
 278              		.loc 1 225 0
 279 00ec FFF7FEFF 		bl	CyExitCriticalSection
 280              	.LVL29:
 281              	.L17:
 226:Generated_Source\PSoC4/cyCapsense_1_Tuner.c ****         }
 227:Generated_Source\PSoC4/cyCapsense_1_Tuner.c ****     }
 228:Generated_Source\PSoC4/cyCapsense_1_Tuner.c ****     return tunerStatus;
ARM GAS  C:\Users\turan\AppData\Local\Temp\ccayhG5j.s 			page 10


 229:Generated_Source\PSoC4/cyCapsense_1_Tuner.c **** }
 282              		.loc 1 229 0
 283 00f0 2800     		movs	r0, r5
 284              		@ sp needed
 285              	.LVL30:
 286              	.LVL31:
 287 00f2 70BD     		pop	{r4, r5, r6, pc}
 288              	.L19:
 289              		.align	2
 290              	.L18:
 291 00f4 00000000 		.word	.LANCHOR0
 292 00f8 00000000 		.word	cyCapsense_1_dsRam
 293 00fc 00000000 		.word	.L8
 294 0100 0080FFFF 		.word	-32768
 295 0104 00000000 		.word	cyCapsense_1_dsFlash
 296              		.cfi_endproc
 297              	.LFE2:
 298              		.size	cyCapsense_1_RunTuner, .-cyCapsense_1_RunTuner
 299              		.bss
 300              		.align	2
 301              		.set	.LANCHOR0,. + 0
 302              		.type	tunerFsm, %object
 303              		.size	tunerFsm, 4
 304              	tunerFsm:
 305 0000 00000000 		.space	4
 306              		.text
 307              	.Letext0:
 308              		.file 2 "Generated_Source\\PSoC4\\cytypes.h"
 309              		.file 3 "Generated_Source\\PSoC4\\cyCapsense_1_Configuration.h"
 310              		.file 4 "Generated_Source\\PSoC4\\cyCapsense_1_SmartSense_LL.h"
 311              		.file 5 "Generated_Source\\PSoC4\\cyCapsense_1_Structure.h"
 312              		.file 6 "Generated_Source\\PSoC4\\cyCapsense_1_Tuner.h"
 313              		.file 7 "Generated_Source\\PSoC4\\CyLib.h"
 314              		.file 8 "Generated_Source\\PSoC4\\cyCapsense_1_Control.h"