ARM GAS  C:\Users\turan\AppData\Local\Temp\ccH9sbmL.s 			page 1


   1              		.syntax unified
   2              		.cpu cortex-m0
   3              		.fpu softvfp
   4              		.eabi_attribute 20, 1
   5              		.eabi_attribute 21, 1
   6              		.eabi_attribute 23, 3
   7              		.eabi_attribute 24, 1
   8              		.eabi_attribute 25, 1
   9              		.eabi_attribute 26, 1
  10              		.eabi_attribute 30, 1
  11              		.eabi_attribute 34, 0
  12              		.eabi_attribute 18, 4
  13              		.thumb
  14              		.syntax unified
  15              		.file	"platform.c"
  16              		.text
  17              	.Ltext0:
  18              		.cfi_sections	.debug_frame
  19              		.section	.text.globalIntEnable,"ax",%progbits
  20              		.align	2
  21              		.global	globalIntEnable
  22              		.code	16
  23              		.thumb_func
  24              		.type	globalIntEnable, %function
  25              	globalIntEnable:
  26              	.LFB44:
  27              		.file 1 "RCOS\\dev\\psoc4\\platform.c"
   1:RCOS\dev\psoc4/platform.c **** /** @file       psoc4/platform.c
   2:RCOS\dev\psoc4/platform.c ****  *  @brief      Platform specific modifications for PSOC4
   3:RCOS\dev\psoc4/platform.c ****  *  @copyright  (c) 2019-Arcelik - All Rights Reserved
   4:RCOS\dev\psoc4/platform.c ****  *              Permission to use, reproduce, copy, prepare derivative works,
   5:RCOS\dev\psoc4/platform.c ****  *              modify, distribute, perform, display or sell this software and/or
   6:RCOS\dev\psoc4/platform.c ****  *              its documentation for any purpose is prohibited without the express
   7:RCOS\dev\psoc4/platform.c ****  *              written consent of Arcelik A.S.
   8:RCOS\dev\psoc4/platform.c ****  *  @author     Mehmet Baris
   9:RCOS\dev\psoc4/platform.c ****  *  @date       04.05.2016
  10:RCOS\dev\psoc4/platform.c ****  */
  11:RCOS\dev\psoc4/platform.c **** #define FILE_PLATFORM_C
  12:RCOS\dev\psoc4/platform.c **** 
  13:RCOS\dev\psoc4/platform.c **** /*********************************************************************
  14:RCOS\dev\psoc4/platform.c ****  *  INCLUDES
  15:RCOS\dev\psoc4/platform.c ****  */
  16:RCOS\dev\psoc4/platform.c **** #include "rcos.h"
  17:RCOS\dev\psoc4/platform.c **** #include <string.h>
  18:RCOS\dev\psoc4/platform.c **** 
  19:RCOS\dev\psoc4/platform.c **** #ifndef RCOS_PLATFORM_PSOC4
  20:RCOS\dev\psoc4/platform.c **** #error this file is prepared for PSOC4 only
  21:RCOS\dev\psoc4/platform.c **** #endif
  22:RCOS\dev\psoc4/platform.c **** 
  23:RCOS\dev\psoc4/platform.c **** /** @addtogroup PSOC4
  24:RCOS\dev\psoc4/platform.c ****  *  @{
  25:RCOS\dev\psoc4/platform.c ****  */
  26:RCOS\dev\psoc4/platform.c **** 
  27:RCOS\dev\psoc4/platform.c **** /*********************************************************************
  28:RCOS\dev\psoc4/platform.c ****  *  EXPORTED TYPEDEFS
  29:RCOS\dev\psoc4/platform.c ****  */
  30:RCOS\dev\psoc4/platform.c **** 
ARM GAS  C:\Users\turan\AppData\Local\Temp\ccH9sbmL.s 			page 2


  31:RCOS\dev\psoc4/platform.c **** /*********************************************************************
  32:RCOS\dev\psoc4/platform.c ****  *  EXPORTED MACROS
  33:RCOS\dev\psoc4/platform.c ****  */
  34:RCOS\dev\psoc4/platform.c **** 
  35:RCOS\dev\psoc4/platform.c **** /*********************************************************************
  36:RCOS\dev\psoc4/platform.c ****  *  INTERFACES: CONSTANTS
  37:RCOS\dev\psoc4/platform.c ****  */
  38:RCOS\dev\psoc4/platform.c **** 
  39:RCOS\dev\psoc4/platform.c **** /*********************************************************************
  40:RCOS\dev\psoc4/platform.c ****  *  INTERFACES: VARIABLES
  41:RCOS\dev\psoc4/platform.c ****  */
  42:RCOS\dev\psoc4/platform.c **** 
  43:RCOS\dev\psoc4/platform.c **** /*********************************************************************
  44:RCOS\dev\psoc4/platform.c ****  *  INTERFACES: FUNCTIONS
  45:RCOS\dev\psoc4/platform.c ****  */
  46:RCOS\dev\psoc4/platform.c **** void platformInit(void)
  47:RCOS\dev\psoc4/platform.c **** {
  48:RCOS\dev\psoc4/platform.c ****     ADD_RCOS_VERSION("psoc4/platform", "2.0.2")
  49:RCOS\dev\psoc4/platform.c **** 
  50:RCOS\dev\psoc4/platform.c ****     globalIntEnable();
  51:RCOS\dev\psoc4/platform.c **** }
  52:RCOS\dev\psoc4/platform.c **** 
  53:RCOS\dev\psoc4/platform.c **** void globalIntEnable(void)
  54:RCOS\dev\psoc4/platform.c **** {
  28              		.loc 1 54 0
  29              		.cfi_startproc
  30              		@ args = 0, pretend = 0, frame = 0
  31              		@ frame_needed = 0, uses_anonymous_args = 0
  32              		@ link register save eliminated.
  55:RCOS\dev\psoc4/platform.c ****     CyGlobalIntEnable;
  33              		.loc 1 55 0
  34              		.syntax divided
  35              	@ 55 "RCOS\dev\psoc4\platform.c" 1
  36 0000 62B6     		CPSIE   i
  37              	@ 0 "" 2
  56:RCOS\dev\psoc4/platform.c **** }
  38              		.loc 1 56 0
  39              		.thumb
  40              		.syntax unified
  41              		@ sp needed
  42 0002 7047     		bx	lr
  43              		.cfi_endproc
  44              	.LFE44:
  45              		.size	globalIntEnable, .-globalIntEnable
  46              		.section	.text.platformInit,"ax",%progbits
  47              		.align	2
  48              		.global	platformInit
  49              		.code	16
  50              		.thumb_func
  51              		.type	platformInit, %function
  52              	platformInit:
  53              	.LFB43:
  47:RCOS\dev\psoc4/platform.c ****     ADD_RCOS_VERSION("psoc4/platform", "2.0.2")
  54              		.loc 1 47 0
  55              		.cfi_startproc
  56              		@ args = 0, pretend = 0, frame = 0
  57              		@ frame_needed = 0, uses_anonymous_args = 0
ARM GAS  C:\Users\turan\AppData\Local\Temp\ccH9sbmL.s 			page 3


  58 0000 10B5     		push	{r4, lr}
  59              		.cfi_def_cfa_offset 8
  60              		.cfi_offset 4, -8
  61              		.cfi_offset 14, -4
  62              	.LBB2:
  63              	.LBB3:
  48:RCOS\dev\psoc4/platform.c **** 
  64              		.loc 1 48 0
  65 0002 0349     		ldr	r1, .L3
  66 0004 0348     		ldr	r0, .L3+4
  67 0006 FFF7FEFF 		bl	addVersionItem
  68              	.LVL0:
  69              	.LBE3:
  70              	.LBE2:
  50:RCOS\dev\psoc4/platform.c **** }
  71              		.loc 1 50 0
  72 000a FFF7FEFF 		bl	globalIntEnable
  73              	.LVL1:
  51:RCOS\dev\psoc4/platform.c **** 
  74              		.loc 1 51 0
  75              		@ sp needed
  76 000e 10BD     		pop	{r4, pc}
  77              	.L4:
  78              		.align	2
  79              	.L3:
  80 0010 00000000 		.word	.LANCHOR0
  81 0014 00000000 		.word	rcosVersionList
  82              		.cfi_endproc
  83              	.LFE43:
  84              		.size	platformInit, .-platformInit
  85              		.section	.text.globalIntDisable,"ax",%progbits
  86              		.align	2
  87              		.global	globalIntDisable
  88              		.code	16
  89              		.thumb_func
  90              		.type	globalIntDisable, %function
  91              	globalIntDisable:
  92              	.LFB45:
  57:RCOS\dev\psoc4/platform.c **** 
  58:RCOS\dev\psoc4/platform.c **** void globalIntDisable(void)
  59:RCOS\dev\psoc4/platform.c **** {
  93              		.loc 1 59 0
  94              		.cfi_startproc
  95              		@ args = 0, pretend = 0, frame = 0
  96              		@ frame_needed = 0, uses_anonymous_args = 0
  97              		@ link register save eliminated.
  60:RCOS\dev\psoc4/platform.c ****     CyGlobalIntDisable;
  98              		.loc 1 60 0
  99              		.syntax divided
 100              	@ 60 "RCOS\dev\psoc4\platform.c" 1
 101 0000 72B6     		CPSID   i
 102              	@ 0 "" 2
  61:RCOS\dev\psoc4/platform.c **** }
 103              		.loc 1 61 0
 104              		.thumb
 105              		.syntax unified
 106              		@ sp needed
ARM GAS  C:\Users\turan\AppData\Local\Temp\ccH9sbmL.s 			page 4


 107 0002 7047     		bx	lr
 108              		.cfi_endproc
 109              	.LFE45:
 110              		.size	globalIntDisable, .-globalIntDisable
 111              		.section	.text.isIsrActive,"ax",%progbits
 112              		.align	2
 113              		.global	isIsrActive
 114              		.code	16
 115              		.thumb_func
 116              		.type	isIsrActive, %function
 117              	isIsrActive:
 118              	.LFB46:
  62:RCOS\dev\psoc4/platform.c **** 
  63:RCOS\dev\psoc4/platform.c **** teBool isIsrActive(void)
  64:RCOS\dev\psoc4/platform.c **** {
 119              		.loc 1 64 0
 120              		.cfi_startproc
 121              		@ args = 0, pretend = 0, frame = 0
 122              		@ frame_needed = 0, uses_anonymous_args = 0
 123              		@ link register save eliminated.
  65:RCOS\dev\psoc4/platform.c ****     // return 0xff; // n/a
  66:RCOS\dev\psoc4/platform.c ****     return ((SCB->ICSR & SCB_ICSR_VECTACTIVE_Msk) != 0);
 124              		.loc 1 66 0
 125 0000 034B     		ldr	r3, .L7
 126 0002 5868     		ldr	r0, [r3, #4]
 127 0004 C005     		lsls	r0, r0, #23
 128 0006 431E     		subs	r3, r0, #1
 129 0008 9841     		sbcs	r0, r0, r3
 130 000a C0B2     		uxtb	r0, r0
  67:RCOS\dev\psoc4/platform.c **** }
 131              		.loc 1 67 0
 132              		@ sp needed
 133 000c 7047     		bx	lr
 134              	.L8:
 135 000e C046     		.align	2
 136              	.L7:
 137 0010 00ED00E0 		.word	-536810240
 138              		.cfi_endproc
 139              	.LFE46:
 140              		.size	isIsrActive, .-isIsrActive
 141              		.section	.text.getUniqId,"ax",%progbits
 142              		.align	2
 143              		.global	getUniqId
 144              		.code	16
 145              		.thumb_func
 146              		.type	getUniqId, %function
 147              	getUniqId:
 148              	.LFB47:
  68:RCOS\dev\psoc4/platform.c **** 
  69:RCOS\dev\psoc4/platform.c **** void getUniqId(uint8_t *ptr, uint8_t length)
  70:RCOS\dev\psoc4/platform.c **** {
 149              		.loc 1 70 0
 150              		.cfi_startproc
 151              		@ args = 0, pretend = 0, frame = 8
 152              		@ frame_needed = 0, uses_anonymous_args = 0
 153              	.LVL2:
 154 0000 30B5     		push	{r4, r5, lr}
ARM GAS  C:\Users\turan\AppData\Local\Temp\ccH9sbmL.s 			page 5


 155              		.cfi_def_cfa_offset 12
 156              		.cfi_offset 4, -12
 157              		.cfi_offset 5, -8
 158              		.cfi_offset 14, -4
 159 0002 83B0     		sub	sp, sp, #12
 160              		.cfi_def_cfa_offset 24
 161 0004 0400     		movs	r4, r0
 162 0006 0D00     		movs	r5, r1
  71:RCOS\dev\psoc4/platform.c ****     uint8_t tempBuff[8];
  72:RCOS\dev\psoc4/platform.c ****     ///< Returns the 64-bit unique id of the device by loading them into the integer array pointed 
  73:RCOS\dev\psoc4/platform.c ****     CyGetUniqueId(tempBuff);
 163              		.loc 1 73 0
 164 0008 6846     		mov	r0, sp
 165              	.LVL3:
 166 000a FFF7FEFF 		bl	CyGetUniqueId
 167              	.LVL4:
  74:RCOS\dev\psoc4/platform.c ****     memcpy(ptr, tempBuff, length);
 168              		.loc 1 74 0
 169 000e 2A00     		movs	r2, r5
 170 0010 6946     		mov	r1, sp
 171 0012 2000     		movs	r0, r4
 172 0014 FFF7FEFF 		bl	memcpy
 173              	.LVL5:
  75:RCOS\dev\psoc4/platform.c **** }
 174              		.loc 1 75 0
 175 0018 03B0     		add	sp, sp, #12
 176              		@ sp needed
 177              	.LVL6:
 178 001a 30BD     		pop	{r4, r5, pc}
 179              		.cfi_endproc
 180              	.LFE47:
 181              		.size	getUniqId, .-getUniqId
 182              		.section	.text.htonl,"ax",%progbits
 183              		.align	2
 184              		.global	htonl
 185              		.code	16
 186              		.thumb_func
 187              		.type	htonl, %function
 188              	htonl:
 189              	.LFB49:
  76:RCOS\dev\psoc4/platform.c **** 
  77:RCOS\dev\psoc4/platform.c **** uint32_t ntohl(uint32_t data)
  78:RCOS\dev\psoc4/platform.c **** {
  79:RCOS\dev\psoc4/platform.c ****     return htonl(data);
  80:RCOS\dev\psoc4/platform.c **** }
  81:RCOS\dev\psoc4/platform.c **** 
  82:RCOS\dev\psoc4/platform.c **** uint32_t htonl(uint32_t _32)
  83:RCOS\dev\psoc4/platform.c **** {
 190              		.loc 1 83 0
 191              		.cfi_startproc
 192              		@ args = 0, pretend = 0, frame = 0
 193              		@ frame_needed = 0, uses_anonymous_args = 0
 194              	.LVL7:
 195 0000 10B5     		push	{r4, lr}
 196              		.cfi_def_cfa_offset 8
 197              		.cfi_offset 4, -8
 198              		.cfi_offset 14, -4
ARM GAS  C:\Users\turan\AppData\Local\Temp\ccH9sbmL.s 			page 6


  84:RCOS\dev\psoc4/platform.c ****     return ((((_32)&0xfful) << 24) |
 199              		.loc 1 84 0
 200 0002 0406     		lsls	r4, r0, #24
  85:RCOS\dev\psoc4/platform.c ****             (((_32)&0xff00ul) << 8) |
 201              		.loc 1 85 0
 202 0004 0302     		lsls	r3, r0, #8
 203 0006 FF22     		movs	r2, #255
 204 0008 1204     		lsls	r2, r2, #16
 205 000a 1340     		ands	r3, r2
  84:RCOS\dev\psoc4/platform.c ****     return ((((_32)&0xfful) << 24) |
 206              		.loc 1 84 0
 207 000c 2100     		movs	r1, r4
 208 000e 1943     		orrs	r1, r3
  86:RCOS\dev\psoc4/platform.c ****             (((_32)&0xff0000ul) >> 8) |
 209              		.loc 1 86 0
 210 0010 030A     		lsrs	r3, r0, #8
 211 0012 FF22     		movs	r2, #255
 212 0014 1202     		lsls	r2, r2, #8
 213 0016 1A40     		ands	r2, r3
  85:RCOS\dev\psoc4/platform.c ****             (((_32)&0xff00ul) << 8) |
 214              		.loc 1 85 0
 215 0018 0B00     		movs	r3, r1
 216 001a 1343     		orrs	r3, r2
  87:RCOS\dev\psoc4/platform.c ****             (((_32)&0xff000000ul) >> 24));
 217              		.loc 1 87 0
 218 001c 000E     		lsrs	r0, r0, #24
 219              	.LVL8:
  84:RCOS\dev\psoc4/platform.c ****             (((_32)&0xff00ul) << 8) |
 220              		.loc 1 84 0
 221 001e 1843     		orrs	r0, r3
  88:RCOS\dev\psoc4/platform.c **** }
 222              		.loc 1 88 0
 223              		@ sp needed
 224 0020 10BD     		pop	{r4, pc}
 225              		.cfi_endproc
 226              	.LFE49:
 227              		.size	htonl, .-htonl
 228 0022 C046     		.section	.text.ntohl,"ax",%progbits
 229              		.align	2
 230              		.global	ntohl
 231              		.code	16
 232              		.thumb_func
 233              		.type	ntohl, %function
 234              	ntohl:
 235              	.LFB48:
  78:RCOS\dev\psoc4/platform.c ****     return htonl(data);
 236              		.loc 1 78 0
 237              		.cfi_startproc
 238              		@ args = 0, pretend = 0, frame = 0
 239              		@ frame_needed = 0, uses_anonymous_args = 0
 240              	.LVL9:
 241 0000 10B5     		push	{r4, lr}
 242              		.cfi_def_cfa_offset 8
 243              		.cfi_offset 4, -8
 244              		.cfi_offset 14, -4
  79:RCOS\dev\psoc4/platform.c **** }
 245              		.loc 1 79 0
ARM GAS  C:\Users\turan\AppData\Local\Temp\ccH9sbmL.s 			page 7


 246 0002 FFF7FEFF 		bl	htonl
 247              	.LVL10:
  80:RCOS\dev\psoc4/platform.c **** 
 248              		.loc 1 80 0
 249              		@ sp needed
 250 0006 10BD     		pop	{r4, pc}
 251              		.cfi_endproc
 252              	.LFE48:
 253              		.size	ntohl, .-ntohl
 254              		.section	.text.htons,"ax",%progbits
 255              		.align	2
 256              		.global	htons
 257              		.code	16
 258              		.thumb_func
 259              		.type	htons, %function
 260              	htons:
 261              	.LFB51:
  89:RCOS\dev\psoc4/platform.c **** 
  90:RCOS\dev\psoc4/platform.c **** uint16_t ntohs(uint16_t _16)
  91:RCOS\dev\psoc4/platform.c **** {
  92:RCOS\dev\psoc4/platform.c ****     return htons(_16);
  93:RCOS\dev\psoc4/platform.c **** }
  94:RCOS\dev\psoc4/platform.c **** 
  95:RCOS\dev\psoc4/platform.c **** uint16_t htons(uint16_t _16)
  96:RCOS\dev\psoc4/platform.c **** {
 262              		.loc 1 96 0
 263              		.cfi_startproc
 264              		@ args = 0, pretend = 0, frame = 0
 265              		@ frame_needed = 0, uses_anonymous_args = 0
 266              		@ link register save eliminated.
 267              	.LVL11:
  97:RCOS\dev\psoc4/platform.c ****     return ((((_16)&0xfful) << 8) | (((_16)&0xff00ul) >> 8));
 268              		.loc 1 97 0
 269 0000 40BA     		rev16	r0, r0
 270              	.LVL12:
 271 0002 80B2     		uxth	r0, r0
  98:RCOS\dev\psoc4/platform.c **** }
 272              		.loc 1 98 0
 273              		@ sp needed
 274 0004 7047     		bx	lr
 275              		.cfi_endproc
 276              	.LFE51:
 277              		.size	htons, .-htons
 278 0006 C046     		.section	.text.ntohs,"ax",%progbits
 279              		.align	2
 280              		.global	ntohs
 281              		.code	16
 282              		.thumb_func
 283              		.type	ntohs, %function
 284              	ntohs:
 285              	.LFB50:
  91:RCOS\dev\psoc4/platform.c ****     return htons(_16);
 286              		.loc 1 91 0
 287              		.cfi_startproc
 288              		@ args = 0, pretend = 0, frame = 0
 289              		@ frame_needed = 0, uses_anonymous_args = 0
 290              	.LVL13:
ARM GAS  C:\Users\turan\AppData\Local\Temp\ccH9sbmL.s 			page 8


 291 0000 10B5     		push	{r4, lr}
 292              		.cfi_def_cfa_offset 8
 293              		.cfi_offset 4, -8
 294              		.cfi_offset 14, -4
  92:RCOS\dev\psoc4/platform.c **** }
 295              		.loc 1 92 0
 296 0002 FFF7FEFF 		bl	htons
 297              	.LVL14:
  93:RCOS\dev\psoc4/platform.c **** 
 298              		.loc 1 93 0
 299              		@ sp needed
 300 0006 10BD     		pop	{r4, pc}
 301              		.cfi_endproc
 302              	.LFE50:
 303              		.size	ntohs, .-ntohs
 304              		.section	.rodata
 305              		.align	2
 306              		.type	version.7031, %object
 307              		.size	version.7031, 8
 308              	version.7031:
 309 0000 00000000 		.word	.LC2
 310 0004 10000000 		.word	.LC3
 311              		.data
 312              		.align	2
 313              		.set	.LANCHOR0,. + 0
 314              		.type	versionItem.7032, %object
 315              		.size	versionItem.7032, 8
 316              	versionItem.7032:
 317 0000 00000000 		.space	4
 318 0004 00000000 		.word	version.7031
 319              		.section	.rodata.str1.4,"aMS",%progbits,1
 320              		.align	2
 321              	.LC2:
 322 0000 70736F63 		.ascii	"psoc4/platform\000"
 322      342F706C 
 322      6174666F 
 322      726D00
 323 000f 00       		.space	1
 324              	.LC3:
 325 0010 322E302E 		.ascii	"2.0.2\000"
 325      3200
 326              		.text
 327              	.Letext0:
 328              		.file 2 "c:\\program files (x86)\\cypress\\psoc creator\\4.4\\psoc creator\\import\\gnu\\arm\\5.4.
 329              		.file 3 "c:\\program files (x86)\\cypress\\psoc creator\\4.4\\psoc creator\\import\\gnu\\arm\\5.4.
 330              		.file 4 ".\\RCOS/libs/libs.h"
 331              		.file 5 ".\\RCOS/libs/list_sl.h"
 332              		.file 6 ".\\RCOS/libs/version.h"
 333              		.file 7 "Generated_Source\\PSoC4/core_cm0.h"
 334              		.file 8 ".\\RCOS/libs/bits.h"
 335              		.file 9 "Generated_Source\\PSoC4/CyLib.h"