ARM GAS  C:\Users\turan\AppData\Local\Temp\ccB235Nb.s 			page 1


   1              		.syntax unified
   2              		.cpu cortex-m0
   3              		.fpu softvfp
   4              		.eabi_attribute 20, 1
   5              		.eabi_attribute 21, 1
   6              		.eabi_attribute 23, 3
   7              		.eabi_attribute 24, 1
   8              		.eabi_attribute 25, 1
   9              		.eabi_attribute 26, 1
  10              		.eabi_attribute 30, 1
  11              		.eabi_attribute 34, 0
  12              		.eabi_attribute 18, 4
  13              		.thumb
  14              		.syntax unified
  15              		.file	"process_ui.c"
  16              		.text
  17              	.Ltext0:
  18              		.cfi_sections	.debug_frame
  19              		.section	.text.processUiThread,"ax",%progbits
  20              		.align	2
  21              		.code	16
  22              		.thumb_func
  23              		.type	processUiThread, %function
  24              	processUiThread:
  25              	.LFB43:
  26              		.file 1 "app\\process_ui.c"
   1:app/process_ui.c **** /** @file       process_ui.c
   2:app/process_ui.c ****  *  @brief      PROCESS_UI application program file
   3:app/process_ui.c ****  *  @copyright  (c) 2021-Arcelik - All Rights Reserved
   4:app/process_ui.c ****  *              Permission to use, reproduce, copy, prepare derivative works,
   5:app/process_ui.c ****  *              modify, distribute, perform, display or sell this software and/or
   6:app/process_ui.c ****  *              its documentation for any purpose is prohibited without the express
   7:app/process_ui.c ****  *              written consent of Arcelik A.S.
   8:app/process_ui.c ****  *  @author     mertGemalmaz
   9:app/process_ui.c ****  *  @date       01.06.2021
  10:app/process_ui.c ****  */
  11:app/process_ui.c **** #define FILE_PROCESS_UI_C
  12:app/process_ui.c **** 
  13:app/process_ui.c **** #include "process_ui.h"
  14:app/process_ui.c **** #include "rcos.h"
  15:app/process_ui.c **** #include "system.h"
  16:app/process_ui.c **** #include "dev\sevenSegmentdisplay.h"
  17:app/process_ui.c **** #define DEBUG_FILE_NAME ""
  18:app/process_ui.c **** 
  19:app/process_ui.c **** // #define DEBUG_PORT_
  20:app/process_ui.c **** // DEBUG_START(0)
  21:app/process_ui.c **** 
  22:app/process_ui.c **** /**
  23:app/process_ui.c ****  *  @addtogroup PROCESS_UI
  24:app/process_ui.c ****  *  @{
  25:app/process_ui.c ****  */
  26:app/process_ui.c **** 
  27:app/process_ui.c **** static PT_THREAD(processUiThread)
  28:app/process_ui.c **** {
  27              		.loc 1 28 0
  28              		.cfi_startproc
  29              		@ args = 0, pretend = 0, frame = 0
ARM GAS  C:\Users\turan\AppData\Local\Temp\ccB235Nb.s 			page 2


  30              		@ frame_needed = 0, uses_anonymous_args = 0
  31              		@ link register save eliminated.
  32              	.LVL0:
  33              	.LBB2:
  29:app/process_ui.c ****     tsProcessUiParams *params = process->parameters;
  30:app/process_ui.c ****     const tsProcessUiConsts *consts = process->constants;
  31:app/process_ui.c ****     UNUSED(params); // REMOVE IF USED
  32:app/process_ui.c ****     UNUSED(consts); // REMOVE IF USED
  33:app/process_ui.c ****     PT_BEGIN();
  34              		.loc 1 33 0
  35 0000 0022     		movs	r2, #0
  36 0002 8B5E     		ldrsh	r3, [r1, r2]
  37 0004 002B     		cmp	r3, #0
  38 0006 02D0     		beq	.L3
  39 0008 252B     		cmp	r3, #37
  40 000a 04D0     		beq	.L6
  41 000c 07E0     		b	.L8
  42              	.LVL1:
  43              	.L3:
  34:app/process_ui.c **** 
  35:app/process_ui.c ****     for (;;)
  36:app/process_ui.c ****     {
  37:app/process_ui.c ****         PT_YIELD();
  44              		.loc 1 37 0
  45 000e 2523     		movs	r3, #37
  46 0010 0B80     		strh	r3, [r1]
  47 0012 0023     		movs	r3, #0
  48 0014 00E0     		b	.L4
  49              	.LVL2:
  50              	.L6:
  33:app/process_ui.c **** 
  51              		.loc 1 33 0
  52 0016 0123     		movs	r3, #1
  53              	.LVL3:
  54              	.L4:
  55              		.loc 1 37 0 discriminator 1
  56 0018 002B     		cmp	r3, #0
  57 001a F8D1     		bne	.L3
  58 001c 03E0     		b	.L7
  59              	.LVL4:
  60              	.L8:
  38:app/process_ui.c ****     }
  39:app/process_ui.c **** 
  40:app/process_ui.c ****     PT_END();
  61              		.loc 1 40 0
  62 001e 0023     		movs	r3, #0
  63 0020 0B80     		strh	r3, [r1]
  64              	.LVL5:
  65 0022 0020     		movs	r0, #0
  66              	.LVL6:
  67 0024 00E0     		b	.L5
  68              	.LVL7:
  69              	.L7:
  37:app/process_ui.c ****     }
  70              		.loc 1 37 0
  71 0026 0120     		movs	r0, #1
  72              	.LVL8:
ARM GAS  C:\Users\turan\AppData\Local\Temp\ccB235Nb.s 			page 3


  73              	.L5:
  74              	.LBE2:
  41:app/process_ui.c **** }
  75              		.loc 1 41 0
  76              		@ sp needed
  77 0028 7047     		bx	lr
  78              		.cfi_endproc
  79              	.LFE43:
  80              		.size	processUiThread, .-processUiThread
  81 002a C046     		.section	.text.processUiHandler,"ax",%progbits
  82              		.align	2
  83              		.code	16
  84              		.thumb_func
  85              		.type	processUiHandler, %function
  86              	processUiHandler:
  87              	.LFB46:
  42:app/process_ui.c **** 
  43:app/process_ui.c **** 
  44:app/process_ui.c **** #define BUZZER_BEEP(data) (devIoPut(params->patternBuzzer, (uint32_t)data))
  45:app/process_ui.c **** #define CHILD_LOCK_ENABLE TRUE
  46:app/process_ui.c **** #define CHILD_LOCK_DISABLE FALSE
  47:app/process_ui.c **** #define HALF_SECOND_IN_MS (500)
  48:app/process_ui.c **** #define ONE_SECOND_IN_MS (1000)
  49:app/process_ui.c **** #define TWO_SECOND_IN_MS (2000)
  50:app/process_ui.c **** #define THREE_SECOND_IN_MS (3000)
  51:app/process_ui.c **** #define FOUR_SECOND_IN_MS (4000)
  52:app/process_ui.c **** #define FIVE_SECOND_IN_MS (5000)
  53:app/process_ui.c **** #define BUTON_SHORT_PRESS_DURATION (50)
  54:app/process_ui.c **** #define BUTON_LONG_PRESS_DURATION (THREE_SECOND_IN_MS)
  55:app/process_ui.c **** #define SEVSEG_MAX_COUNT 19
  56:app/process_ui.c **** #define SEVSEG_MIN_COUNT 0
  57:app/process_ui.c **** 
  58:app/process_ui.c **** /// @brief  Local Variables
  59:app/process_ui.c **** typedef enum
  60:app/process_ui.c **** {
  61:app/process_ui.c ****     eLedP43,
  62:app/process_ui.c ****     eLedP44,
  63:app/process_ui.c ****     eLedP45,
  64:app/process_ui.c **** } teLeds;
  65:app/process_ui.c **** 
  66:app/process_ui.c **** typedef enum
  67:app/process_ui.c **** {
  68:app/process_ui.c ****     eBuzzerLevel1 = 5,
  69:app/process_ui.c ****     eBuzzerLevel2 = 10,
  70:app/process_ui.c ****     eBuzzerLevel3 = 30,
  71:app/process_ui.c **** } teBuzzerSoundLevel;
  72:app/process_ui.c **** 
  73:app/process_ui.c **** typedef struct
  74:app/process_ui.c **** {
  75:app/process_ui.c ****     uint8_t p46;
  76:app/process_ui.c ****     teBool p70;
  77:app/process_ui.c ****     teBool p71;
  78:app/process_ui.c **** } tsButonStatus; //0: not pressed    1: is pressing
  79:app/process_ui.c **** 
  80:app/process_ui.c **** tsButonStatus guiButonStatus;
  81:app/process_ui.c **** uint8_t sevSegCounter = 0;
  82:app/process_ui.c **** uint8_t encoderStat = 0;
ARM GAS  C:\Users\turan\AppData\Local\Temp\ccB235Nb.s 			page 4


  83:app/process_ui.c **** uint8_t encoderStatPrev = 0;
  84:app/process_ui.c **** 
  85:app/process_ui.c **** /// @brief  Buzzer Melodies
  86:app/process_ui.c **** const tsPatternNode melodyArcelik[] =
  87:app/process_ui.c ****     {
  88:app/process_ui.c **** #define M_TEMPO TEMPO_Lento
  89:app/process_ui.c ****         MELODY_TELVE_ARCELIK,
  90:app/process_ui.c ****         PATTERN_NODE_END(0)
  91:app/process_ui.c ****     };
  92:app/process_ui.c **** 
  93:app/process_ui.c **** const tsPatternNode melodyPres[] =
  94:app/process_ui.c ****     {
  95:app/process_ui.c ****         {NOTE_7_A, 150},
  96:app/process_ui.c ****         PATTERN_NODE_END(0)
  97:app/process_ui.c ****     };
  98:app/process_ui.c **** 
  99:app/process_ui.c **** const tsPatternNode melodyRelease[] =
 100:app/process_ui.c ****     {
 101:app/process_ui.c ****         {NOTE_7_G, 150},
 102:app/process_ui.c ****         PATTERN_NODE_END(0)
 103:app/process_ui.c ****     };
 104:app/process_ui.c **** 
 105:app/process_ui.c **** const tsPatternNode melodyKeyWarning[] =
 106:app/process_ui.c ****     {
 107:app/process_ui.c ****         {4000, 150},
 108:app/process_ui.c ****         {3000, 200},
 109:app/process_ui.c ****         {4000, 150},
 110:app/process_ui.c ****         PATTERN_NODE_END(0)};
 111:app/process_ui.c **** 
 112:app/process_ui.c **** const tsPatternNode melodyLock[] =
 113:app/process_ui.c ****     {
 114:app/process_ui.c ****         {NOTE_7_A, 150},
 115:app/process_ui.c ****         {NOTE_7_B, 200},
 116:app/process_ui.c ****         {NOTE_7_C, 150},
 117:app/process_ui.c ****         PATTERN_NODE_END(0)
 118:app/process_ui.c ****     };
 119:app/process_ui.c **** 
 120:app/process_ui.c **** /// @brief  Local Function Prototypes
 121:app/process_ui.c **** static PROCESS_HANDLER_PROTO(processUiHandler);
 122:app/process_ui.c **** static void guiDefaultHandler(tsProcess *process);
 123:app/process_ui.c **** void ledGuiHandler(tsProcess *process, teLeds led, uint8 onOff);
 124:app/process_ui.c **** void allLedsOnOff(tsProcess *process, uint8 onOff);
 125:app/process_ui.c **** void buttonMapper(tsProcess *process, teProcessUiEvents event, uint16_t pressDuration, teBool *buto
 126:app/process_ui.c **** 
 127:app/process_ui.c **** 
 128:app/process_ui.c **** /// @brief  Initialization function of processUi
 129:app/process_ui.c **** PROCESS_INIT_PROTO(processUiInit)
 130:app/process_ui.c **** {
 131:app/process_ui.c ****     tsProcessUiParams *params = process->parameters;
 132:app/process_ui.c ****     const tsProcessUiConsts *consts = process->constants;
 133:app/process_ui.c **** 
 134:app/process_ui.c ****     UNUSED(params); // REMOVE IF USED
 135:app/process_ui.c ****     UNUSED(consts); // REMOVE IF USED
 136:app/process_ui.c **** 
 137:app/process_ui.c ****     PROCESS_STATE_CHANGE(process, processUiHandler);
 138:app/process_ui.c ****     threadStart(process, processUiThread);
 139:app/process_ui.c ****     process->initialized = 1; // If process needs other checks, set this another time
ARM GAS  C:\Users\turan\AppData\Local\Temp\ccB235Nb.s 			page 5


 140:app/process_ui.c **** 
 141:app/process_ui.c ****     devIoInit(consts->csdDevIo, NULL);      //init capsense object
 142:app/process_ui.c ****     devIoInit(params->leds, NULL);          //init led object
 143:app/process_ui.c ****     devIoInit(params->patternBuzzer, NULL); //init buzzer pattern object
 144:app/process_ui.c ****     devIoInit(params->buzzerLevel, NULL);   //init buzzer sound level object
 145:app/process_ui.c **** 
 146:app/process_ui.c ****     devIoPut(params->buzzerLevel, eBuzzerLevel3); //arrange buzzer sound level
 147:app/process_ui.c ****     //allLedsOnOff(process, TRUE);
 148:app/process_ui.c ****     //BUZZER_BEEP(melodyArcelik);                    //starUp Melody
 149:app/process_ui.c ****     timerEventStart(&params->stopAnimation, 2300); //animation stop timer
 150:app/process_ui.c ****     params->lockStatus = CHILD_LOCK_ENABLE;
 151:app/process_ui.c **** }
 152:app/process_ui.c **** 
 153:app/process_ui.c **** /// @brief  Deinitialization function of processUi
 154:app/process_ui.c **** PROCESS_DEINIT_PROTO(processUiDeinit)
 155:app/process_ui.c **** {
 156:app/process_ui.c ****     tsProcessUiParams *params = process->parameters;
 157:app/process_ui.c ****     const tsProcessUiConsts *consts = process->constants;
 158:app/process_ui.c **** 
 159:app/process_ui.c ****     UNUSED(params); // REMOVE IF USED
 160:app/process_ui.c ****     UNUSED(consts); // REMOVE IF USED
 161:app/process_ui.c **** 
 162:app/process_ui.c ****     PROCESS_STATE_CHANGE(process, NULL);
 163:app/process_ui.c ****     threadStop(process, process->threadFunction);
 164:app/process_ui.c ****     process->initialized = 0; // If process needs other checks, clear this another time
 165:app/process_ui.c **** }
 166:app/process_ui.c **** 
 167:app/process_ui.c **** 
 168:app/process_ui.c **** /// @brief  Event handler function of processUi
 169:app/process_ui.c **** static PROCESS_HANDLER_PROTO(processUiHandler)
 170:app/process_ui.c **** {
  88              		.loc 1 170 0
  89              		.cfi_startproc
  90              		@ args = 0, pretend = 0, frame = 0
  91              		@ frame_needed = 0, uses_anonymous_args = 0
  92              	.LVL9:
  93 0000 10B5     		push	{r4, lr}
  94              		.cfi_def_cfa_offset 8
  95              		.cfi_offset 4, -8
  96              		.cfi_offset 14, -4
  97              	.LVL10:
 171:app/process_ui.c ****     tsProcessUiParams *params = process->parameters;
 172:app/process_ui.c ****     const tsProcessUiConsts *consts = process->constants;
 173:app/process_ui.c **** 
 174:app/process_ui.c ****     UNUSED(params); // REMOVE IF USED
 175:app/process_ui.c ****     UNUSED(consts); // REMOVE IF USED
 176:app/process_ui.c ****     const tProcessEnum aaa = eRedLedProcess;
 177:app/process_ui.c **** 
 178:app/process_ui.c ****     switch (eventCurrent.event)
  98              		.loc 1 178 0
  99 0002 2D4B     		ldr	r3, .L20
 100 0004 9B78     		ldrb	r3, [r3, #2]
 101 0006 0B3B     		subs	r3, r3, #11
 102 0008 DAB2     		uxtb	r2, r3
 103 000a 112A     		cmp	r2, #17
 104 000c 52D8     		bhi	.L9
 105 000e 9300     		lsls	r3, r2, #2
ARM GAS  C:\Users\turan\AppData\Local\Temp\ccB235Nb.s 			page 6


 106 0010 2A4A     		ldr	r2, .L20+4
 107 0012 D358     		ldr	r3, [r2, r3]
 108 0014 9F46     		mov	pc, r3
 109              		.section	.rodata
 110              		.align	2
 111              	.L12:
 112 0000 16000000 		.word	.L11
 113 0004 24000000 		.word	.L13
 114 0008 B4000000 		.word	.L9
 115 000c B4000000 		.word	.L9
 116 0010 B4000000 		.word	.L9
 117 0014 B4000000 		.word	.L9
 118 0018 32000000 		.word	.L14
 119 001c B4000000 		.word	.L9
 120 0020 B4000000 		.word	.L9
 121 0024 40000000 		.word	.L15
 122 0028 B4000000 		.word	.L9
 123 002c B4000000 		.word	.L9
 124 0030 B4000000 		.word	.L9
 125 0034 B4000000 		.word	.L9
 126 0038 4E000000 		.word	.L16
 127 003c 68000000 		.word	.L17
 128 0040 82000000 		.word	.L18
 129 0044 9C000000 		.word	.L19
 130              		.section	.text.processUiHandler
 131              	.L11:
 179:app/process_ui.c ****     {
 180:app/process_ui.c ****         case p46Pressed:
 181:app/process_ui.c ****             eventPost(eRedLedProcess, p43light, NULL, 0);
 132              		.loc 1 181 0
 133 0016 0023     		movs	r3, #0
 134 0018 0022     		movs	r2, #0
 135 001a 0521     		movs	r1, #5
 136 001c 0120     		movs	r0, #1
 137              	.LVL11:
 138 001e FFF7FEFF 		bl	eventPost
 139              	.LVL12:
 182:app/process_ui.c ****         break;
 140              		.loc 1 182 0
 141 0022 47E0     		b	.L9
 142              	.LVL13:
 143              	.L13:
 183:app/process_ui.c ****         case p46Released:
 184:app/process_ui.c ****             eventPost(eRedLedProcess, p43close, NULL, 0);
 144              		.loc 1 184 0
 145 0024 0023     		movs	r3, #0
 146 0026 0022     		movs	r2, #0
 147 0028 0821     		movs	r1, #8
 148 002a 0120     		movs	r0, #1
 149              	.LVL14:
 150 002c FFF7FEFF 		bl	eventPost
 151              	.LVL15:
 185:app/process_ui.c ****         break;
 152              		.loc 1 185 0
 153 0030 40E0     		b	.L9
 154              	.LVL16:
 155              	.L14:
ARM GAS  C:\Users\turan\AppData\Local\Temp\ccB235Nb.s 			page 7


 186:app/process_ui.c ****         case p71Pressed:
 187:app/process_ui.c ****             eventPost(eGreenLedProcess, p45light, NULL, 0);
 156              		.loc 1 187 0
 157 0032 0023     		movs	r3, #0
 158 0034 0022     		movs	r2, #0
 159 0036 0721     		movs	r1, #7
 160 0038 0220     		movs	r0, #2
 161              	.LVL17:
 162 003a FFF7FEFF 		bl	eventPost
 163              	.LVL18:
 188:app/process_ui.c ****         break;
 164              		.loc 1 188 0
 165 003e 39E0     		b	.L9
 166              	.LVL19:
 167              	.L15:
 189:app/process_ui.c ****         case p71Released:
 190:app/process_ui.c ****             eventPost(eGreenLedProcess, p45close, NULL, 0);
 168              		.loc 1 190 0
 169 0040 0023     		movs	r3, #0
 170 0042 0022     		movs	r2, #0
 171 0044 0A21     		movs	r1, #10
 172 0046 0220     		movs	r0, #2
 173              	.LVL20:
 174 0048 FFF7FEFF 		bl	eventPost
 175              	.LVL21:
 191:app/process_ui.c ****         break;
 176              		.loc 1 191 0
 177 004c 32E0     		b	.L9
 178              	.LVL22:
 179              	.L16:
 192:app/process_ui.c ****         case p46p71Pressed:
 193:app/process_ui.c ****             eventPost(eRedLedProcess, p43light, NULL, 0);
 180              		.loc 1 193 0
 181 004e 0023     		movs	r3, #0
 182 0050 0022     		movs	r2, #0
 183 0052 0521     		movs	r1, #5
 184 0054 0120     		movs	r0, #1
 185              	.LVL23:
 186 0056 FFF7FEFF 		bl	eventPost
 187              	.LVL24:
 194:app/process_ui.c ****             eventPost(eGreenLedProcess, p45light, NULL, 0);
 188              		.loc 1 194 0
 189 005a 0023     		movs	r3, #0
 190 005c 0022     		movs	r2, #0
 191 005e 0721     		movs	r1, #7
 192 0060 0220     		movs	r0, #2
 193 0062 FFF7FEFF 		bl	eventPost
 194              	.LVL25:
 195:app/process_ui.c ****         break;
 195              		.loc 1 195 0
 196 0066 25E0     		b	.L9
 197              	.LVL26:
 198              	.L17:
 196:app/process_ui.c ****         case p46p71Released:
 197:app/process_ui.c ****             eventPost(eRedLedProcess, p43close, NULL, 0);
 199              		.loc 1 197 0
 200 0068 0023     		movs	r3, #0
ARM GAS  C:\Users\turan\AppData\Local\Temp\ccB235Nb.s 			page 8


 201 006a 0022     		movs	r2, #0
 202 006c 0821     		movs	r1, #8
 203 006e 0120     		movs	r0, #1
 204              	.LVL27:
 205 0070 FFF7FEFF 		bl	eventPost
 206              	.LVL28:
 198:app/process_ui.c ****             eventPost(eGreenLedProcess, p45close, NULL, 0);
 207              		.loc 1 198 0
 208 0074 0023     		movs	r3, #0
 209 0076 0022     		movs	r2, #0
 210 0078 0A21     		movs	r1, #10
 211 007a 0220     		movs	r0, #2
 212 007c FFF7FEFF 		bl	eventPost
 213              	.LVL29:
 199:app/process_ui.c ****         break;
 214              		.loc 1 199 0
 215 0080 18E0     		b	.L9
 216              	.LVL30:
 217              	.L18:
 200:app/process_ui.c ****         case p46p70p71Pressed:
 201:app/process_ui.c ****             eventPost(eRedLedProcess, p43light, NULL, 0);
 218              		.loc 1 201 0
 219 0082 0023     		movs	r3, #0
 220 0084 0022     		movs	r2, #0
 221 0086 0521     		movs	r1, #5
 222 0088 0120     		movs	r0, #1
 223              	.LVL31:
 224 008a FFF7FEFF 		bl	eventPost
 225              	.LVL32:
 202:app/process_ui.c ****             eventPost(eGreenLedProcess, p45light, NULL, 0);
 226              		.loc 1 202 0
 227 008e 0023     		movs	r3, #0
 228 0090 0022     		movs	r2, #0
 229 0092 0721     		movs	r1, #7
 230 0094 0220     		movs	r0, #2
 231 0096 FFF7FEFF 		bl	eventPost
 232              	.LVL33:
 203:app/process_ui.c ****         break;
 233              		.loc 1 203 0
 234 009a 0BE0     		b	.L9
 235              	.LVL34:
 236              	.L19:
 204:app/process_ui.c ****         case p46p70p71Released:
 205:app/process_ui.c ****             eventPost(eRedLedProcess, p43close, NULL, 0);
 237              		.loc 1 205 0
 238 009c 0023     		movs	r3, #0
 239 009e 0022     		movs	r2, #0
 240 00a0 0821     		movs	r1, #8
 241 00a2 0120     		movs	r0, #1
 242              	.LVL35:
 243 00a4 FFF7FEFF 		bl	eventPost
 244              	.LVL36:
 206:app/process_ui.c ****             eventPost(eGreenLedProcess, p45close, NULL, 0);
 245              		.loc 1 206 0
 246 00a8 0023     		movs	r3, #0
 247 00aa 0022     		movs	r2, #0
 248 00ac 0A21     		movs	r1, #10
ARM GAS  C:\Users\turan\AppData\Local\Temp\ccB235Nb.s 			page 9


 249 00ae 0220     		movs	r0, #2
 250 00b0 FFF7FEFF 		bl	eventPost
 251              	.LVL37:
 252              	.L9:
 207:app/process_ui.c ****         break;
 208:app/process_ui.c ****         
 209:app/process_ui.c ****         default:
 210:app/process_ui.c ****         break;
 211:app/process_ui.c ****     
 212:app/process_ui.c ****     }
 213:app/process_ui.c **** }
 253              		.loc 1 213 0
 254              		@ sp needed
 255 00b4 10BD     		pop	{r4, pc}
 256              	.L21:
 257 00b6 C046     		.align	2
 258              	.L20:
 259 00b8 00000000 		.word	eventCurrent
 260 00bc 00000000 		.word	.L12
 261              		.cfi_endproc
 262              	.LFE46:
 263              		.size	processUiHandler, .-processUiHandler
 264              		.section	.text.processUiInit,"ax",%progbits
 265              		.align	2
 266              		.global	processUiInit
 267              		.code	16
 268              		.thumb_func
 269              		.type	processUiInit, %function
 270              	processUiInit:
 271              	.LFB44:
 130:app/process_ui.c ****     tsProcessUiParams *params = process->parameters;
 272              		.loc 1 130 0
 273              		.cfi_startproc
 274              		@ args = 0, pretend = 0, frame = 0
 275              		@ frame_needed = 0, uses_anonymous_args = 0
 276              	.LVL38:
 277 0000 F8B5     		push	{r3, r4, r5, r6, r7, lr}
 278              		.cfi_def_cfa_offset 24
 279              		.cfi_offset 3, -24
 280              		.cfi_offset 4, -20
 281              		.cfi_offset 5, -16
 282              		.cfi_offset 6, -12
 283              		.cfi_offset 7, -8
 284              		.cfi_offset 14, -4
 285 0002 0400     		movs	r4, r0
 131:app/process_ui.c ****     const tsProcessUiConsts *consts = process->constants;
 286              		.loc 1 131 0
 287 0004 8569     		ldr	r5, [r0, #24]
 288              	.LVL39:
 132:app/process_ui.c **** 
 289              		.loc 1 132 0
 290 0006 C769     		ldr	r7, [r0, #28]
 291              	.LVL40:
 137:app/process_ui.c ****     threadStart(process, processUiThread);
 292              		.loc 1 137 0
 293 0008 0369     		ldr	r3, [r0, #16]
 294 000a 4361     		str	r3, [r0, #20]
ARM GAS  C:\Users\turan\AppData\Local\Temp\ccB235Nb.s 			page 10


 295 000c 114B     		ldr	r3, .L23
 296 000e 0361     		str	r3, [r0, #16]
 138:app/process_ui.c ****     process->initialized = 1; // If process needs other checks, set this another time
 297              		.loc 1 138 0
 298 0010 1149     		ldr	r1, .L23+4
 299 0012 FFF7FEFF 		bl	threadStart
 300              	.LVL41:
 139:app/process_ui.c **** 
 301              		.loc 1 139 0
 302 0016 0126     		movs	r6, #1
 303 0018 4523     		movs	r3, #69
 304 001a E654     		strb	r6, [r4, r3]
 141:app/process_ui.c ****     devIoInit(params->leds, NULL);          //init led object
 305              		.loc 1 141 0
 306 001c 3868     		ldr	r0, [r7]
 307 001e 0021     		movs	r1, #0
 308 0020 FFF7FEFF 		bl	devIoInit
 309              	.LVL42:
 142:app/process_ui.c ****     devIoInit(params->patternBuzzer, NULL); //init buzzer pattern object
 310              		.loc 1 142 0
 311 0024 0021     		movs	r1, #0
 312 0026 A86B     		ldr	r0, [r5, #56]
 313 0028 FFF7FEFF 		bl	devIoInit
 314              	.LVL43:
 143:app/process_ui.c ****     devIoInit(params->buzzerLevel, NULL);   //init buzzer sound level object
 315              		.loc 1 143 0
 316 002c 0021     		movs	r1, #0
 317 002e 286C     		ldr	r0, [r5, #64]
 318 0030 FFF7FEFF 		bl	devIoInit
 319              	.LVL44:
 144:app/process_ui.c **** 
 320              		.loc 1 144 0
 321 0034 0021     		movs	r1, #0
 322 0036 E86B     		ldr	r0, [r5, #60]
 323 0038 FFF7FEFF 		bl	devIoInit
 324              	.LVL45:
 146:app/process_ui.c ****     //allLedsOnOff(process, TRUE);
 325              		.loc 1 146 0
 326 003c 1E21     		movs	r1, #30
 327 003e E86B     		ldr	r0, [r5, #60]
 328 0040 FFF7FEFF 		bl	devIoPut
 329              	.LVL46:
 149:app/process_ui.c ****     params->lockStatus = CHILD_LOCK_ENABLE;
 330              		.loc 1 149 0
 331 0044 2800     		movs	r0, r5
 332 0046 1030     		adds	r0, r0, #16
 333 0048 0449     		ldr	r1, .L23+8
 334 004a FFF7FEFF 		bl	timerEventStart
 335              	.LVL47:
 150:app/process_ui.c **** }
 336              		.loc 1 150 0
 337 004e 3423     		movs	r3, #52
 338 0050 EE54     		strb	r6, [r5, r3]
 151:app/process_ui.c **** 
 339              		.loc 1 151 0
 340              		@ sp needed
 341              	.LVL48:
ARM GAS  C:\Users\turan\AppData\Local\Temp\ccB235Nb.s 			page 11


 342              	.LVL49:
 343              	.LVL50:
 344 0052 F8BD     		pop	{r3, r4, r5, r6, r7, pc}
 345              	.L24:
 346              		.align	2
 347              	.L23:
 348 0054 00000000 		.word	processUiHandler
 349 0058 00000000 		.word	processUiThread
 350 005c FC080000 		.word	2300
 351              		.cfi_endproc
 352              	.LFE44:
 353              		.size	processUiInit, .-processUiInit
 354              		.section	.text.processUiDeinit,"ax",%progbits
 355              		.align	2
 356              		.global	processUiDeinit
 357              		.code	16
 358              		.thumb_func
 359              		.type	processUiDeinit, %function
 360              	processUiDeinit:
 361              	.LFB45:
 155:app/process_ui.c ****     tsProcessUiParams *params = process->parameters;
 362              		.loc 1 155 0
 363              		.cfi_startproc
 364              		@ args = 0, pretend = 0, frame = 0
 365              		@ frame_needed = 0, uses_anonymous_args = 0
 366              	.LVL51:
 367 0000 70B5     		push	{r4, r5, r6, lr}
 368              		.cfi_def_cfa_offset 16
 369              		.cfi_offset 4, -16
 370              		.cfi_offset 5, -12
 371              		.cfi_offset 6, -8
 372              		.cfi_offset 14, -4
 373 0002 0400     		movs	r4, r0
 374              	.LVL52:
 162:app/process_ui.c ****     threadStop(process, process->threadFunction);
 375              		.loc 1 162 0
 376 0004 0369     		ldr	r3, [r0, #16]
 377 0006 4361     		str	r3, [r0, #20]
 378 0008 0025     		movs	r5, #0
 379 000a 0561     		str	r5, [r0, #16]
 163:app/process_ui.c ****     process->initialized = 0; // If process needs other checks, clear this another time
 380              		.loc 1 163 0
 381 000c 816A     		ldr	r1, [r0, #40]
 382 000e FFF7FEFF 		bl	threadStop
 383              	.LVL53:
 164:app/process_ui.c **** }
 384              		.loc 1 164 0
 385 0012 4523     		movs	r3, #69
 386 0014 E554     		strb	r5, [r4, r3]
 165:app/process_ui.c **** 
 387              		.loc 1 165 0
 388              		@ sp needed
 389              	.LVL54:
 390 0016 70BD     		pop	{r4, r5, r6, pc}
 391              		.cfi_endproc
 392              	.LFE45:
 393              		.size	processUiDeinit, .-processUiDeinit
ARM GAS  C:\Users\turan\AppData\Local\Temp\ccB235Nb.s 			page 12


 394              		.section	.text.ledGuiHandler,"ax",%progbits
 395              		.align	2
 396              		.global	ledGuiHandler
 397              		.code	16
 398              		.thumb_func
 399              		.type	ledGuiHandler, %function
 400              	ledGuiHandler:
 401              	.LFB48:
 214:app/process_ui.c **** 
 215:app/process_ui.c **** static void guiDefaultHandler(tsProcess *process)
 216:app/process_ui.c **** {
 217:app/process_ui.c ****     tsProcessUiParams *params = process->parameters;
 218:app/process_ui.c ****     const tsProcessUiConsts *consts = process->constants;
 219:app/process_ui.c **** 
 220:app/process_ui.c ****     UNUSED(params); // REMOVE IF USED
 221:app/process_ui.c ****     UNUSED(consts); // REMOVE IF USED
 222:app/process_ui.c **** 
 223:app/process_ui.c **** 
 224:app/process_ui.c ****     switch (eventCurrent.event)
 225:app/process_ui.c ****     {
 226:app/process_ui.c ****     case eGuiGetUi: // gather ui data from DEVs
 227:app/process_ui.c ****     {
 228:app/process_ui.c ****         encoderStat = devIoGet(params->encoder);
 229:app/process_ui.c **** 
 230:app/process_ui.c ****         if (encoderStat ^ encoderStatPrev)
 231:app/process_ui.c ****         {
 232:app/process_ui.c ****             if ((encoderStat) > (encoderStatPrev)) //clockWise
 233:app/process_ui.c ****             {
 234:app/process_ui.c ****                 eventPost(process->enumeration, eGuiEncoderCW, NULL, 0);
 235:app/process_ui.c ****             }
 236:app/process_ui.c ****             else // counterClockWise
 237:app/process_ui.c ****             {
 238:app/process_ui.c ****                 eventPost(process->enumeration, eGuiEncoderCCW, NULL, 0);
 239:app/process_ui.c ****             }
 240:app/process_ui.c ****         }
 241:app/process_ui.c ****         encoderStatPrev = encoderStat;
 242:app/process_ui.c ****         timerEventStart(&params->getUiData, 100);
 243:app/process_ui.c ****     }
 244:app/process_ui.c ****     break;
 245:app/process_ui.c **** 
 246:app/process_ui.c ****     case p46Pressed:
 247:app/process_ui.c ****     {
 248:app/process_ui.c ****         ledGuiHandler(process, eLedP43, TRUE);
 249:app/process_ui.c ****         BUZZER_BEEP(melodyPres);
 250:app/process_ui.c ****     }
 251:app/process_ui.c ****     break;
 252:app/process_ui.c **** 
 253:app/process_ui.c ****     case p46Released:
 254:app/process_ui.c ****     {
 255:app/process_ui.c ****         ledGuiHandler(process, eLedP43, FALSE);
 256:app/process_ui.c ****         BUZZER_BEEP(melodyRelease);
 257:app/process_ui.c ****     }
 258:app/process_ui.c ****     break;
 259:app/process_ui.c **** 
 260:app/process_ui.c ****     case p70Pressed:
 261:app/process_ui.c ****     {
 262:app/process_ui.c ****         buttonMapper(process, p70PressedShort, BUTON_SHORT_PRESS_DURATION, &guiButonStatus.p70);
ARM GAS  C:\Users\turan\AppData\Local\Temp\ccB235Nb.s 			page 13


 263:app/process_ui.c ****     }
 264:app/process_ui.c ****     break;
 265:app/process_ui.c **** 
 266:app/process_ui.c ****     case p70Released:
 267:app/process_ui.c ****     {
 268:app/process_ui.c ****         guiButonStatus.p70 = FALSE;
 269:app/process_ui.c ****     }
 270:app/process_ui.c ****     break;
 271:app/process_ui.c **** 
 272:app/process_ui.c ****     case p71Pressed:
 273:app/process_ui.c ****     {
 274:app/process_ui.c ****         buttonMapper(process, p71PressedShort, BUTON_SHORT_PRESS_DURATION, &guiButonStatus.p71);
 275:app/process_ui.c ****     }
 276:app/process_ui.c ****     break;
 277:app/process_ui.c **** 
 278:app/process_ui.c ****     case p71Released:
 279:app/process_ui.c ****     {
 280:app/process_ui.c ****         guiButonStatus.p71 = FALSE;
 281:app/process_ui.c ****     }
 282:app/process_ui.c ****     break;
 283:app/process_ui.c **** 
 284:app/process_ui.c ****     default:
 285:app/process_ui.c ****         break;
 286:app/process_ui.c ****     }
 287:app/process_ui.c **** }
 288:app/process_ui.c **** 
 289:app/process_ui.c **** void ledGuiHandler(tsProcess *process, teLeds led, uint8 onOff)
 290:app/process_ui.c **** {
 402              		.loc 1 290 0
 403              		.cfi_startproc
 404              		@ args = 0, pretend = 0, frame = 0
 405              		@ frame_needed = 0, uses_anonymous_args = 0
 406              	.LVL55:
 407 0000 10B5     		push	{r4, lr}
 408              		.cfi_def_cfa_offset 8
 409              		.cfi_offset 4, -8
 410              		.cfi_offset 14, -4
 291:app/process_ui.c ****     tsProcessUiParams *params = process->parameters;
 411              		.loc 1 291 0
 412 0002 8369     		ldr	r3, [r0, #24]
 413              	.LVL56:
 292:app/process_ui.c ****     const tsProcessUiConsts *consts = process->constants;
 293:app/process_ui.c **** 
 294:app/process_ui.c ****     UNUSED(params); // REMOVE IF USED
 295:app/process_ui.c ****     UNUSED(consts); // REMOVE IF USED
 296:app/process_ui.c **** 
 297:app/process_ui.c ****     if (onOff)
 414              		.loc 1 297 0
 415 0004 002A     		cmp	r2, #0
 416 0006 05D0     		beq	.L27
 298:app/process_ui.c ****     {
 299:app/process_ui.c ****         params->ledState |= BIT(led); //turn on
 417              		.loc 1 299 0
 418 0008 0122     		movs	r2, #1
 419              	.LVL57:
 420 000a 8A40     		lsls	r2, r2, r1
 421 000c 196B     		ldr	r1, [r3, #48]
ARM GAS  C:\Users\turan\AppData\Local\Temp\ccB235Nb.s 			page 14


 422              	.LVL58:
 423 000e 0A43     		orrs	r2, r1
 424 0010 1A63     		str	r2, [r3, #48]
 425              	.LVL59:
 426 0012 04E0     		b	.L28
 427              	.LVL60:
 428              	.L27:
 300:app/process_ui.c ****     }
 301:app/process_ui.c ****     else
 302:app/process_ui.c ****     {
 303:app/process_ui.c ****         params->ledState &= ~BIT(led); //turn off
 429              		.loc 1 303 0
 430 0014 0122     		movs	r2, #1
 431              	.LVL61:
 432 0016 8A40     		lsls	r2, r2, r1
 433 0018 196B     		ldr	r1, [r3, #48]
 434              	.LVL62:
 435 001a 9143     		bics	r1, r2
 436 001c 1963     		str	r1, [r3, #48]
 437              	.LVL63:
 438              	.L28:
 304:app/process_ui.c ****     }
 305:app/process_ui.c **** 
 306:app/process_ui.c ****     devIoPut(params->leds, params->ledState);
 439              		.loc 1 306 0
 440 001e 196B     		ldr	r1, [r3, #48]
 441 0020 986B     		ldr	r0, [r3, #56]
 442              	.LVL64:
 443 0022 FFF7FEFF 		bl	devIoPut
 444              	.LVL65:
 307:app/process_ui.c **** }
 445              		.loc 1 307 0
 446              		@ sp needed
 447 0026 10BD     		pop	{r4, pc}
 448              		.cfi_endproc
 449              	.LFE48:
 450              		.size	ledGuiHandler, .-ledGuiHandler
 451              		.section	.text.allLedsOnOff,"ax",%progbits
 452              		.align	2
 453              		.global	allLedsOnOff
 454              		.code	16
 455              		.thumb_func
 456              		.type	allLedsOnOff, %function
 457              	allLedsOnOff:
 458              	.LFB49:
 308:app/process_ui.c **** 
 309:app/process_ui.c **** void allLedsOnOff(tsProcess *process, uint8 onOff)
 310:app/process_ui.c **** {
 459              		.loc 1 310 0
 460              		.cfi_startproc
 461              		@ args = 0, pretend = 0, frame = 0
 462              		@ frame_needed = 0, uses_anonymous_args = 0
 463              	.LVL66:
 464 0000 70B5     		push	{r4, r5, r6, lr}
 465              		.cfi_def_cfa_offset 16
 466              		.cfi_offset 4, -16
 467              		.cfi_offset 5, -12
ARM GAS  C:\Users\turan\AppData\Local\Temp\ccB235Nb.s 			page 15


 468              		.cfi_offset 6, -8
 469              		.cfi_offset 14, -4
 470 0002 0600     		movs	r6, r0
 471 0004 0D00     		movs	r5, r1
 472              	.LVL67:
 311:app/process_ui.c ****     tsProcessUiParams *params = process->parameters;
 312:app/process_ui.c ****     const tsProcessUiConsts *consts = process->constants;
 313:app/process_ui.c **** 
 314:app/process_ui.c ****     UNUSED(params); // REMOVE IF USED
 315:app/process_ui.c ****     UNUSED(consts); // REMOVE IF USED
 316:app/process_ui.c ****     uint8 idx;
 317:app/process_ui.c ****     for (idx = eLedP43; idx <= eLedP45; idx++)
 473              		.loc 1 317 0
 474 0006 0024     		movs	r4, #0
 475 0008 06E0     		b	.L30
 476              	.LVL68:
 477              	.L31:
 318:app/process_ui.c ****     {
 319:app/process_ui.c ****         ledGuiHandler(process, idx, onOff);
 478              		.loc 1 319 0 discriminator 3
 479 000a 2A00     		movs	r2, r5
 480 000c 2100     		movs	r1, r4
 481 000e 3000     		movs	r0, r6
 482 0010 FFF7FEFF 		bl	ledGuiHandler
 483              	.LVL69:
 317:app/process_ui.c ****     {
 484              		.loc 1 317 0 discriminator 3
 485 0014 0134     		adds	r4, r4, #1
 486              	.LVL70:
 487 0016 E4B2     		uxtb	r4, r4
 488              	.LVL71:
 489              	.L30:
 317:app/process_ui.c ****     {
 490              		.loc 1 317 0 is_stmt 0 discriminator 1
 491 0018 022C     		cmp	r4, #2
 492 001a F6D9     		bls	.L31
 320:app/process_ui.c ****     }
 321:app/process_ui.c **** }
 493              		.loc 1 321 0 is_stmt 1
 494              		@ sp needed
 495              	.LVL72:
 496              	.LVL73:
 497 001c 70BD     		pop	{r4, r5, r6, pc}
 498              		.cfi_endproc
 499              	.LFE49:
 500              		.size	allLedsOnOff, .-allLedsOnOff
 501 001e C046     		.section	.text.buttonMapper,"ax",%progbits
 502              		.align	2
 503              		.global	buttonMapper
 504              		.code	16
 505              		.thumb_func
 506              		.type	buttonMapper, %function
 507              	buttonMapper:
 508              	.LFB50:
 322:app/process_ui.c **** 
 323:app/process_ui.c **** void buttonMapper(tsProcess *process, teProcessUiEvents event, uint16_t pressDuration, teBool *buto
 324:app/process_ui.c **** {
ARM GAS  C:\Users\turan\AppData\Local\Temp\ccB235Nb.s 			page 16


 509              		.loc 1 324 0
 510              		.cfi_startproc
 511              		@ args = 0, pretend = 0, frame = 16
 512              		@ frame_needed = 0, uses_anonymous_args = 0
 513              	.LVL74:
 514 0000 F0B5     		push	{r4, r5, r6, r7, lr}
 515              		.cfi_def_cfa_offset 20
 516              		.cfi_offset 4, -20
 517              		.cfi_offset 5, -16
 518              		.cfi_offset 6, -12
 519              		.cfi_offset 7, -8
 520              		.cfi_offset 14, -4
 521 0002 85B0     		sub	sp, sp, #20
 522              		.cfi_def_cfa_offset 40
 523 0004 0191     		str	r1, [sp, #4]
 524 0006 1500     		movs	r5, r2
 525 0008 1F00     		movs	r7, r3
 325:app/process_ui.c ****     tsProcessUiParams *params = process->parameters;
 526              		.loc 1 325 0
 527 000a 8669     		ldr	r6, [r0, #24]
 528              	.LVL75:
 326:app/process_ui.c ****     const tsProcessUiConsts *consts = process->constants;
 327:app/process_ui.c **** 
 328:app/process_ui.c ****     UNUSED(params); // REMOVE IF USED
 329:app/process_ui.c ****     UNUSED(consts); // REMOVE IF USED
 330:app/process_ui.c **** 
 331:app/process_ui.c ****     uint16_t duration;
 332:app/process_ui.c ****     memcpy(&duration, &eventData, sizeof(uint16_t));
 529              		.loc 1 332 0
 530 000c 02AB     		add	r3, sp, #8
 531              	.LVL76:
 532 000e 9C1D     		adds	r4, r3, #6
 533 0010 0222     		movs	r2, #2
 534              	.LVL77:
 535 0012 0F49     		ldr	r1, .L35
 536              	.LVL78:
 537 0014 2000     		movs	r0, r4
 538              	.LVL79:
 539 0016 FFF7FEFF 		bl	memcpy
 540              	.LVL80:
 333:app/process_ui.c **** 
 334:app/process_ui.c ****     if ((duration >= pressDuration) && (!*butonStatus))
 541              		.loc 1 334 0
 542 001a 2388     		ldrh	r3, [r4]
 543 001c AB42     		cmp	r3, r5
 544 001e 14D3     		bcc	.L32
 545              		.loc 1 334 0 is_stmt 0 discriminator 1
 546 0020 3B78     		ldrb	r3, [r7]
 547 0022 002B     		cmp	r3, #0
 548 0024 11D1     		bne	.L32
 335:app/process_ui.c ****     {
 336:app/process_ui.c ****         *butonStatus = TRUE;
 549              		.loc 1 336 0 is_stmt 1
 550 0026 0133     		adds	r3, r3, #1
 551 0028 3B70     		strb	r3, [r7]
 337:app/process_ui.c ****         if (!params->lockStatus)
 552              		.loc 1 337 0
ARM GAS  C:\Users\turan\AppData\Local\Temp\ccB235Nb.s 			page 17


 553 002a 3333     		adds	r3, r3, #51
 554 002c F35C     		ldrb	r3, [r6, r3]
 555 002e 002B     		cmp	r3, #0
 556 0030 07D1     		bne	.L34
 338:app/process_ui.c ****         {
 339:app/process_ui.c ****             eventPost(eventCurrent.destination, event, NULL, 0);
 557              		.loc 1 339 0
 558 0032 084B     		ldr	r3, .L35+4
 559 0034 5878     		ldrb	r0, [r3, #1]
 560 0036 0023     		movs	r3, #0
 561 0038 0022     		movs	r2, #0
 562 003a 0199     		ldr	r1, [sp, #4]
 563 003c FFF7FEFF 		bl	eventPost
 564              	.LVL81:
 565 0040 03E0     		b	.L32
 566              	.L34:
 340:app/process_ui.c ****         }
 341:app/process_ui.c ****         else
 342:app/process_ui.c ****         {
 343:app/process_ui.c ****             BUZZER_BEEP(melodyKeyWarning);
 567              		.loc 1 343 0
 568 0042 306C     		ldr	r0, [r6, #64]
 569 0044 0449     		ldr	r1, .L35+8
 570 0046 FFF7FEFF 		bl	devIoPut
 571              	.LVL82:
 572              	.L32:
 344:app/process_ui.c ****         }
 345:app/process_ui.c ****     }
 346:app/process_ui.c **** }
 573              		.loc 1 346 0
 574 004a 05B0     		add	sp, sp, #20
 575              		@ sp needed
 576              	.LVL83:
 577              	.LVL84:
 578 004c F0BD     		pop	{r4, r5, r6, r7, pc}
 579              	.L36:
 580 004e C046     		.align	2
 581              	.L35:
 582 0050 00000000 		.word	eventData
 583 0054 00000000 		.word	eventCurrent
 584 0058 48000000 		.word	.LANCHOR0
 585              		.cfi_endproc
 586              	.LFE50:
 587              		.size	buttonMapper, .-buttonMapper
 588              		.global	melodyLock
 589              		.global	melodyKeyWarning
 590              		.global	melodyRelease
 591              		.global	melodyPres
 592              		.global	melodyArcelik
 593              		.global	encoderStatPrev
 594              		.global	encoderStat
 595              		.global	sevSegCounter
 596              		.comm	guiButonStatus,3,4
 597              		.section	.rodata
 598              		.align	2
 599              		.set	.LANCHOR0,. + 0
 600              		.type	melodyKeyWarning, %object
ARM GAS  C:\Users\turan\AppData\Local\Temp\ccB235Nb.s 			page 18


 601              		.size	melodyKeyWarning, 32
 602              	melodyKeyWarning:
 603 0048 A00F0000 		.word	4000
 604 004c 96000000 		.word	150
 605 0050 B80B0000 		.word	3000
 606 0054 C8000000 		.word	200
 607 0058 A00F0000 		.word	4000
 608 005c 96000000 		.word	150
 609 0060 00000000 		.word	0
 610 0064 00000000 		.word	0
 611              		.type	melodyLock, %object
 612              		.size	melodyLock, 32
 613              	melodyLock:
 614 0068 C00D0000 		.word	3520
 615 006c 96000000 		.word	150
 616 0070 6F0F0000 		.word	3951
 617 0074 C8000000 		.word	200
 618 0078 2D080000 		.word	2093
 619 007c 96000000 		.word	150
 620 0080 00000000 		.word	0
 621 0084 00000000 		.word	0
 622              		.type	melodyRelease, %object
 623              		.size	melodyRelease, 16
 624              	melodyRelease:
 625 0088 3F0C0000 		.word	3135
 626 008c 96000000 		.word	150
 627 0090 00000000 		.word	0
 628 0094 00000000 		.word	0
 629              		.type	melodyPres, %object
 630              		.size	melodyPres, 16
 631              	melodyPres:
 632 0098 C00D0000 		.word	3520
 633 009c 96000000 		.word	150
 634 00a0 00000000 		.word	0
 635 00a4 00000000 		.word	0
 636              		.type	melodyArcelik, %object
 637              		.size	melodyArcelik, 104
 638              	melodyArcelik:
 639 00a8 26050000 		.word	1318
 640 00ac FC000000 		.word	252
 641 00b0 00000000 		.word	0
 642 00b4 24000000 		.word	36
 643 00b8 26050000 		.word	1318
 644 00bc FC000000 		.word	252
 645 00c0 00000000 		.word	0
 646 00c4 24000000 		.word	36
 647 00c8 26050000 		.word	1318
 648 00cc FC000000 		.word	252
 649 00d0 00000000 		.word	0
 650 00d4 24000000 		.word	36
 651 00d8 00000000 		.word	0
 652 00dc 20010000 		.word	288
 653 00e0 26050000 		.word	1318
 654 00e4 FC000000 		.word	252
 655 00e8 00000000 		.word	0
 656 00ec 24000000 		.word	36
 657 00f0 E0060000 		.word	1760
ARM GAS  C:\Users\turan\AppData\Local\Temp\ccB235Nb.s 			page 19


 658 00f4 1C020000 		.word	540
 659 00f8 00000000 		.word	0
 660 00fc 24000000 		.word	36
 661 0100 00000000 		.word	0
 662 0104 20010000 		.word	288
 663 0108 00000000 		.word	0
 664 010c 00000000 		.word	0
 665              		.bss
 666              		.type	encoderStatPrev, %object
 667              		.size	encoderStatPrev, 1
 668              	encoderStatPrev:
 669 0000 00       		.space	1
 670              		.type	encoderStat, %object
 671              		.size	encoderStat, 1
 672              	encoderStat:
 673 0001 00       		.space	1
 674              		.type	sevSegCounter, %object
 675              		.size	sevSegCounter, 1
 676              	sevSegCounter:
 677 0002 00       		.space	1
 678              		.text
 679              	.Letext0:
 680              		.file 2 "c:\\program files (x86)\\cypress\\psoc creator\\4.4\\psoc creator\\import\\gnu\\arm\\5.4.
 681              		.file 3 "c:\\program files (x86)\\cypress\\psoc creator\\4.4\\psoc creator\\import\\gnu\\arm\\5.4.
 682              		.file 4 ".\\RCOS/libs/libs.h"
 683              		.file 5 "Generated_Source\\PSoC4/cytypes.h"
 684              		.file 6 ".\\RCOS/libs/list_dl.h"
 685              		.file 7 ".\\RCOS/dev/dev.h"
 686              		.file 8 ".\\RCOS/core/core.h"
 687              		.file 9 ".\\RCOS/dev\\pattern.h"
 688              		.file 10 "app\\process_ui.h"
 689              		.file 11 "./system.h"
 690              		.file 12 ".\\RCOS/libs/bits.h"