ARM GAS  C:\Users\turan\AppData\Local\Temp\ccpxrUdb.s 			page 1


   1              		.syntax unified
   2              		.cpu cortex-m0
   3              		.fpu softvfp
   4              		.eabi_attribute 20, 1
   5              		.eabi_attribute 21, 1
   6              		.eabi_attribute 23, 3
   7              		.eabi_attribute 24, 1
   8              		.eabi_attribute 25, 1
   9              		.eabi_attribute 26, 1
  10              		.eabi_attribute 30, 1
  11              		.eabi_attribute 34, 0
  12              		.eabi_attribute 18, 4
  13              		.thumb
  14              		.syntax unified
  15              		.file	"redledprocess.c"
  16              		.text
  17              	.Ltext0:
  18              		.cfi_sections	.debug_frame
  19              		.section	.text.redLedProcessThread,"ax",%progbits
  20              		.align	2
  21              		.code	16
  22              		.thumb_func
  23              		.type	redLedProcessThread, %function
  24              	redLedProcessThread:
  25              	.LFB43:
  26              		.file 1 "app\\redledprocess.c"
   1:app/redledprocess.c **** /** @file       redledprocess.c
   2:app/redledprocess.c ****  *  @brief      REDLEDPROCESS application program file
   3:app/redledprocess.c ****  *  @copyright  (c) 2023-Arcelik - All Rights Reserved
   4:app/redledprocess.c ****  *              Permission to use, reproduce, copy, prepare derivative works,
   5:app/redledprocess.c ****  *              modify, distribute, perform, display or sell this software and/or
   6:app/redledprocess.c ****  *              its documentation for any purpose is prohibited without the express
   7:app/redledprocess.c ****  *              written consent of Arcelik A.S.
   8:app/redledprocess.c ****  *  @author     Cagri
   9:app/redledprocess.c ****  *  @date       31.07.2023
  10:app/redledprocess.c ****  */
  11:app/redledprocess.c **** #define FILE_REDLEDPROCESS_C
  12:app/redledprocess.c **** 
  13:app/redledprocess.c **** #include "process_ui.h"
  14:app/redledprocess.c **** #include "redledprocess.h"
  15:app/redledprocess.c **** #include "rcos.h"
  16:app/redledprocess.c **** #include "system.h"
  17:app/redledprocess.c **** 
  18:app/redledprocess.c **** #define DEBUG_FILE_NAME ""
  19:app/redledprocess.c **** 
  20:app/redledprocess.c **** // #define DEBUG_PORT_
  21:app/redledprocess.c **** // DEBUG_START(0)
  22:app/redledprocess.c **** 
  23:app/redledprocess.c **** /**
  24:app/redledprocess.c ****  *  @addtogroup REDLEDPROCESS
  25:app/redledprocess.c ****  *  @{
  26:app/redledprocess.c ****  */
  27:app/redledprocess.c **** 
  28:app/redledprocess.c **** typedef enum
  29:app/redledprocess.c **** {
  30:app/redledprocess.c ****     eLedP43,
  31:app/redledprocess.c **** } teLeds;
ARM GAS  C:\Users\turan\AppData\Local\Temp\ccpxrUdb.s 			page 2


  32:app/redledprocess.c **** 
  33:app/redledprocess.c **** static PT_THREAD(redLedProcessThread)
  34:app/redledprocess.c **** {
  27              		.loc 1 34 0
  28              		.cfi_startproc
  29              		@ args = 0, pretend = 0, frame = 0
  30              		@ frame_needed = 0, uses_anonymous_args = 0
  31              		@ link register save eliminated.
  32              	.LVL0:
  33              	.LBB2:
  35:app/redledprocess.c ****     tsRedLedProcessParams *params       = process->parameters;
  36:app/redledprocess.c ****     const tsRedLedProcessConsts *consts = process->constants;
  37:app/redledprocess.c **** 
  38:app/redledprocess.c ****     PT_BEGIN();
  34              		.loc 1 38 0
  35 0000 0022     		movs	r2, #0
  36 0002 8B5E     		ldrsh	r3, [r1, r2]
  37 0004 002B     		cmp	r3, #0
  38 0006 02D0     		beq	.L3
  39 0008 2A2B     		cmp	r3, #42
  40 000a 04D0     		beq	.L6
  41 000c 07E0     		b	.L8
  42              	.LVL1:
  43              	.L3:
  39:app/redledprocess.c **** 
  40:app/redledprocess.c ****     for (;;)
  41:app/redledprocess.c ****     {
  42:app/redledprocess.c ****         PT_YIELD();
  44              		.loc 1 42 0
  45 000e 2A23     		movs	r3, #42
  46 0010 0B80     		strh	r3, [r1]
  47 0012 0023     		movs	r3, #0
  48 0014 00E0     		b	.L4
  49              	.LVL2:
  50              	.L6:
  38:app/redledprocess.c **** 
  51              		.loc 1 38 0
  52 0016 0123     		movs	r3, #1
  53              	.LVL3:
  54              	.L4:
  55              		.loc 1 42 0 discriminator 1
  56 0018 002B     		cmp	r3, #0
  57 001a F8D1     		bne	.L3
  58 001c 03E0     		b	.L7
  59              	.LVL4:
  60              	.L8:
  43:app/redledprocess.c ****     }
  44:app/redledprocess.c **** 
  45:app/redledprocess.c ****     PT_END();
  61              		.loc 1 45 0
  62 001e 0023     		movs	r3, #0
  63 0020 0B80     		strh	r3, [r1]
  64              	.LVL5:
  65 0022 0020     		movs	r0, #0
  66              	.LVL6:
  67 0024 00E0     		b	.L5
  68              	.LVL7:
ARM GAS  C:\Users\turan\AppData\Local\Temp\ccpxrUdb.s 			page 3


  69              	.L7:
  42:app/redledprocess.c ****     }
  70              		.loc 1 42 0
  71 0026 0120     		movs	r0, #1
  72              	.LVL8:
  73              	.L5:
  74              	.LBE2:
  46:app/redledprocess.c **** }
  75              		.loc 1 46 0
  76              		@ sp needed
  77 0028 7047     		bx	lr
  78              		.cfi_endproc
  79              	.LFE43:
  80              		.size	redLedProcessThread, .-redLedProcessThread
  81 002a C046     		.section	.text.redLedProcessInit,"ax",%progbits
  82              		.align	2
  83              		.global	redLedProcessInit
  84              		.code	16
  85              		.thumb_func
  86              		.type	redLedProcessInit, %function
  87              	redLedProcessInit:
  88              	.LFB44:
  47:app/redledprocess.c **** 
  48:app/redledprocess.c **** static PROCESS_HANDLER_PROTO(redLedProcessHandler);
  49:app/redledprocess.c **** void ledRedHandler(tsProcess *process, teLeds led, uint8 onOff);
  50:app/redledprocess.c **** 
  51:app/redledprocess.c **** /// @brief  Initialization function of redLedProcess
  52:app/redledprocess.c **** PROCESS_INIT_PROTO(redLedProcessInit)
  53:app/redledprocess.c **** {
  89              		.loc 1 53 0
  90              		.cfi_startproc
  91              		@ args = 0, pretend = 0, frame = 0
  92              		@ frame_needed = 0, uses_anonymous_args = 0
  93              	.LVL9:
  94 0000 70B5     		push	{r4, r5, r6, lr}
  95              		.cfi_def_cfa_offset 16
  96              		.cfi_offset 4, -16
  97              		.cfi_offset 5, -12
  98              		.cfi_offset 6, -8
  99              		.cfi_offset 14, -4
 100 0002 0400     		movs	r4, r0
  54:app/redledprocess.c ****     tsRedLedProcessParams *params       = process->parameters;
 101              		.loc 1 54 0
 102 0004 8569     		ldr	r5, [r0, #24]
 103              	.LVL10:
  55:app/redledprocess.c ****     const tsRedLedProcessConsts *consts = process->constants;
 104              		.loc 1 55 0
 105 0006 C669     		ldr	r6, [r0, #28]
 106              	.LVL11:
  56:app/redledprocess.c **** 
  57:app/redledprocess.c ****     UNUSED(params); // REMOVE IF USED
  58:app/redledprocess.c ****     UNUSED(consts); // REMOVE IF USED
  59:app/redledprocess.c **** 
  60:app/redledprocess.c ****     PROCESS_STATE_CHANGE(process, redLedProcessHandler);
 107              		.loc 1 60 0
 108 0008 0369     		ldr	r3, [r0, #16]
 109 000a 4361     		str	r3, [r0, #20]
ARM GAS  C:\Users\turan\AppData\Local\Temp\ccpxrUdb.s 			page 4


 110 000c 084B     		ldr	r3, .L10
 111 000e 0361     		str	r3, [r0, #16]
  61:app/redledprocess.c ****     threadStart(process, redLedProcessThread);
 112              		.loc 1 61 0
 113 0010 0849     		ldr	r1, .L10+4
 114 0012 FFF7FEFF 		bl	threadStart
 115              	.LVL12:
  62:app/redledprocess.c ****     process->initialized = 1; // If process needs other checks, clear this another time
 116              		.loc 1 62 0
 117 0016 0122     		movs	r2, #1
 118 0018 4523     		movs	r3, #69
 119 001a E254     		strb	r2, [r4, r3]
  63:app/redledprocess.c ****     
  64:app/redledprocess.c ****     devIoInit(consts->leds, NULL);          //init led object
 120              		.loc 1 64 0
 121 001c 3069     		ldr	r0, [r6, #16]
 122 001e 0021     		movs	r1, #0
 123 0020 FFF7FEFF 		bl	devIoInit
 124              	.LVL13:
  65:app/redledprocess.c ****     timerEventStart(&params->stopAnimation, 2300); //animation stop timer
 125              		.loc 1 65 0
 126 0024 2800     		movs	r0, r5
 127 0026 1030     		adds	r0, r0, #16
 128 0028 0349     		ldr	r1, .L10+8
 129 002a FFF7FEFF 		bl	timerEventStart
 130              	.LVL14:
  66:app/redledprocess.c **** }
 131              		.loc 1 66 0
 132              		@ sp needed
 133              	.LVL15:
 134              	.LVL16:
 135              	.LVL17:
 136 002e 70BD     		pop	{r4, r5, r6, pc}
 137              	.L11:
 138              		.align	2
 139              	.L10:
 140 0030 00000000 		.word	redLedProcessHandler
 141 0034 00000000 		.word	redLedProcessThread
 142 0038 FC080000 		.word	2300
 143              		.cfi_endproc
 144              	.LFE44:
 145              		.size	redLedProcessInit, .-redLedProcessInit
 146              		.section	.text.redLedProcessDeinit,"ax",%progbits
 147              		.align	2
 148              		.global	redLedProcessDeinit
 149              		.code	16
 150              		.thumb_func
 151              		.type	redLedProcessDeinit, %function
 152              	redLedProcessDeinit:
 153              	.LFB45:
  67:app/redledprocess.c **** 
  68:app/redledprocess.c **** /// @brief  Deinitialization function of redLedProcess
  69:app/redledprocess.c **** PROCESS_DEINIT_PROTO(redLedProcessDeinit)
  70:app/redledprocess.c **** {
 154              		.loc 1 70 0
 155              		.cfi_startproc
 156              		@ args = 0, pretend = 0, frame = 0
ARM GAS  C:\Users\turan\AppData\Local\Temp\ccpxrUdb.s 			page 5


 157              		@ frame_needed = 0, uses_anonymous_args = 0
 158              	.LVL18:
 159 0000 70B5     		push	{r4, r5, r6, lr}
 160              		.cfi_def_cfa_offset 16
 161              		.cfi_offset 4, -16
 162              		.cfi_offset 5, -12
 163              		.cfi_offset 6, -8
 164              		.cfi_offset 14, -4
 165 0002 0400     		movs	r4, r0
 166              	.LVL19:
  71:app/redledprocess.c ****     tsRedLedProcessParams *params       = process->parameters;
  72:app/redledprocess.c ****     const tsRedLedProcessConsts *consts = process->constants;
  73:app/redledprocess.c **** 
  74:app/redledprocess.c ****     UNUSED(params); // REMOVE IF USED
  75:app/redledprocess.c ****     UNUSED(consts); // REMOVE IF USED
  76:app/redledprocess.c **** 
  77:app/redledprocess.c ****     PROCESS_STATE_CHANGE(process, NULL);
 167              		.loc 1 77 0
 168 0004 0369     		ldr	r3, [r0, #16]
 169 0006 4361     		str	r3, [r0, #20]
 170 0008 0025     		movs	r5, #0
 171 000a 0561     		str	r5, [r0, #16]
  78:app/redledprocess.c ****     threadStop(process, process->threadFunction);
 172              		.loc 1 78 0
 173 000c 816A     		ldr	r1, [r0, #40]
 174 000e FFF7FEFF 		bl	threadStop
 175              	.LVL20:
  79:app/redledprocess.c ****     process->initialized = 0; // If process needs other checks, clear this another time
 176              		.loc 1 79 0
 177 0012 4523     		movs	r3, #69
 178 0014 E554     		strb	r5, [r4, r3]
  80:app/redledprocess.c **** }
 179              		.loc 1 80 0
 180              		@ sp needed
 181              	.LVL21:
 182 0016 70BD     		pop	{r4, r5, r6, pc}
 183              		.cfi_endproc
 184              	.LFE45:
 185              		.size	redLedProcessDeinit, .-redLedProcessDeinit
 186              		.section	.text.ledRedHandler,"ax",%progbits
 187              		.align	2
 188              		.global	ledRedHandler
 189              		.code	16
 190              		.thumb_func
 191              		.type	ledRedHandler, %function
 192              	ledRedHandler:
 193              	.LFB47:
  81:app/redledprocess.c **** 
  82:app/redledprocess.c **** /// @brief  Event handler function of redLedProcess
  83:app/redledprocess.c **** static PROCESS_HANDLER_PROTO(redLedProcessHandler)
  84:app/redledprocess.c **** {
  85:app/redledprocess.c ****     tsRedLedProcessParams *params       = process->parameters;
  86:app/redledprocess.c ****     const tsRedLedProcessConsts *consts = process->constants;
  87:app/redledprocess.c **** 
  88:app/redledprocess.c ****     UNUSED(params); // REMOVE IF USED
  89:app/redledprocess.c ****     UNUSED(consts); // REMOVE IF USED
  90:app/redledprocess.c **** 
ARM GAS  C:\Users\turan\AppData\Local\Temp\ccpxrUdb.s 			page 6


  91:app/redledprocess.c ****     switch(eventCurrent.event)
  92:app/redledprocess.c ****     {
  93:app/redledprocess.c ****         case p43light:
  94:app/redledprocess.c ****         ledRedHandler(process, eLedP43, TRUE);
  95:app/redledprocess.c ****         break;
  96:app/redledprocess.c ****         
  97:app/redledprocess.c ****         case p43close:
  98:app/redledprocess.c ****         ledRedHandler(process, eLedP43, FALSE);
  99:app/redledprocess.c ****         break;
 100:app/redledprocess.c ****     }
 101:app/redledprocess.c **** }
 102:app/redledprocess.c **** 
 103:app/redledprocess.c **** void ledRedHandler(tsProcess *process, teLeds led, uint8 onOff)
 104:app/redledprocess.c **** {
 194              		.loc 1 104 0
 195              		.cfi_startproc
 196              		@ args = 0, pretend = 0, frame = 0
 197              		@ frame_needed = 0, uses_anonymous_args = 0
 198              	.LVL22:
 199 0000 10B5     		push	{r4, lr}
 200              		.cfi_def_cfa_offset 8
 201              		.cfi_offset 4, -8
 202              		.cfi_offset 14, -4
 105:app/redledprocess.c ****     tsRedLedProcessParams *params = process->parameters;
 203              		.loc 1 105 0
 204 0002 8369     		ldr	r3, [r0, #24]
 205              	.LVL23:
 106:app/redledprocess.c ****     const tsRedLedProcessConsts *consts = process->constants;
 206              		.loc 1 106 0
 207 0004 C069     		ldr	r0, [r0, #28]
 208              	.LVL24:
 107:app/redledprocess.c **** 
 108:app/redledprocess.c ****     UNUSED(params); // REMOVE IF USED
 109:app/redledprocess.c ****     UNUSED(consts); // REMOVE IF USED
 110:app/redledprocess.c **** 
 111:app/redledprocess.c ****     if (onOff)
 209              		.loc 1 111 0
 210 0006 002A     		cmp	r2, #0
 211 0008 05D0     		beq	.L14
 112:app/redledprocess.c ****     {
 113:app/redledprocess.c ****         params->ledState |= BIT(led); //turn on
 212              		.loc 1 113 0
 213 000a 0122     		movs	r2, #1
 214              	.LVL25:
 215 000c 8A40     		lsls	r2, r2, r1
 216 000e 196B     		ldr	r1, [r3, #48]
 217              	.LVL26:
 218 0010 0A43     		orrs	r2, r1
 219 0012 1A63     		str	r2, [r3, #48]
 220 0014 04E0     		b	.L15
 221              	.LVL27:
 222              	.L14:
 114:app/redledprocess.c ****     }
 115:app/redledprocess.c ****     else
 116:app/redledprocess.c ****     {
 117:app/redledprocess.c ****         params->ledState &= ~BIT(led); //turn off
 223              		.loc 1 117 0
ARM GAS  C:\Users\turan\AppData\Local\Temp\ccpxrUdb.s 			page 7


 224 0016 0122     		movs	r2, #1
 225              	.LVL28:
 226 0018 8A40     		lsls	r2, r2, r1
 227 001a 196B     		ldr	r1, [r3, #48]
 228              	.LVL29:
 229 001c 9143     		bics	r1, r2
 230 001e 1963     		str	r1, [r3, #48]
 231              	.L15:
 118:app/redledprocess.c ****     }
 119:app/redledprocess.c **** 
 120:app/redledprocess.c ****     devIoPut(consts->leds, params->ledState);
 232              		.loc 1 120 0
 233 0020 196B     		ldr	r1, [r3, #48]
 234 0022 0069     		ldr	r0, [r0, #16]
 235              	.LVL30:
 236 0024 FFF7FEFF 		bl	devIoPut
 237              	.LVL31:
 121:app/redledprocess.c **** }
 238              		.loc 1 121 0
 239              		@ sp needed
 240 0028 10BD     		pop	{r4, pc}
 241              		.cfi_endproc
 242              	.LFE47:
 243              		.size	ledRedHandler, .-ledRedHandler
 244 002a C046     		.section	.text.redLedProcessHandler,"ax",%progbits
 245              		.align	2
 246              		.code	16
 247              		.thumb_func
 248              		.type	redLedProcessHandler, %function
 249              	redLedProcessHandler:
 250              	.LFB46:
  84:app/redledprocess.c ****     tsRedLedProcessParams *params       = process->parameters;
 251              		.loc 1 84 0
 252              		.cfi_startproc
 253              		@ args = 0, pretend = 0, frame = 0
 254              		@ frame_needed = 0, uses_anonymous_args = 0
 255              	.LVL32:
 256 0000 10B5     		push	{r4, lr}
 257              		.cfi_def_cfa_offset 8
 258              		.cfi_offset 4, -8
 259              		.cfi_offset 14, -4
 260              	.LVL33:
  91:app/redledprocess.c ****     {
 261              		.loc 1 91 0
 262 0002 084B     		ldr	r3, .L20
 263 0004 9B78     		ldrb	r3, [r3, #2]
 264 0006 052B     		cmp	r3, #5
 265 0008 02D0     		beq	.L18
 266 000a 082B     		cmp	r3, #8
 267 000c 05D0     		beq	.L19
 268 000e 08E0     		b	.L16
 269              	.L18:
  94:app/redledprocess.c ****         break;
 270              		.loc 1 94 0
 271 0010 0122     		movs	r2, #1
 272 0012 0021     		movs	r1, #0
 273 0014 FFF7FEFF 		bl	ledRedHandler
ARM GAS  C:\Users\turan\AppData\Local\Temp\ccpxrUdb.s 			page 8


 274              	.LVL34:
  95:app/redledprocess.c ****         
 275              		.loc 1 95 0
 276 0018 03E0     		b	.L16
 277              	.LVL35:
 278              	.L19:
  98:app/redledprocess.c ****         break;
 279              		.loc 1 98 0
 280 001a 0022     		movs	r2, #0
 281 001c 0021     		movs	r1, #0
 282 001e FFF7FEFF 		bl	ledRedHandler
 283              	.LVL36:
 284              	.L16:
 101:app/redledprocess.c **** 
 285              		.loc 1 101 0
 286              		@ sp needed
 287 0022 10BD     		pop	{r4, pc}
 288              	.L21:
 289              		.align	2
 290              	.L20:
 291 0024 00000000 		.word	eventCurrent
 292              		.cfi_endproc
 293              	.LFE46:
 294              		.size	redLedProcessHandler, .-redLedProcessHandler
 295              		.text
 296              	.Letext0:
 297              		.file 2 "c:\\program files (x86)\\cypress\\psoc creator\\4.4\\psoc creator\\import\\gnu\\arm\\5.4.
 298              		.file 3 "c:\\program files (x86)\\cypress\\psoc creator\\4.4\\psoc creator\\import\\gnu\\arm\\5.4.
 299              		.file 4 "Generated_Source\\PSoC4/cytypes.h"
 300              		.file 5 ".\\RCOS/libs/list_dl.h"
 301              		.file 6 ".\\RCOS/dev/dev.h"
 302              		.file 7 ".\\RCOS/core/core.h"
 303              		.file 8 ".\\RCOS/libs/libs.h"
 304              		.file 9 "app\\process_ui.h"
 305              		.file 10 "app\\redledprocess.h"
 306              		.file 11 ".\\RCOS/libs/bits.h"